ARM GAS  C:\Users\vrnk\AppData\Local\Temp\ccnz7Ubz.s 			page 1


   1              		.cpu cortex-m0
   2              		.fpu softvfp
   3              		.eabi_attribute 20, 1
   4              		.eabi_attribute 21, 1
   5              		.eabi_attribute 23, 3
   6              		.eabi_attribute 24, 1
   7              		.eabi_attribute 25, 1
   8              		.eabi_attribute 26, 1
   9              		.eabi_attribute 30, 4
  10              		.eabi_attribute 34, 0
  11              		.eabi_attribute 18, 4
  12              		.code	16
  13              		.file	"Bootloader.c"
  14              		.text
  15              	.Ltext0:
  16              		.cfi_sections	.debug_frame
  17              		.section	.text.Bootloader_LaunchBootloadable,"ax",%progbits
  18              		.align	1
  19              		.code	16
  20              		.thumb_func
  21              		.type	Bootloader_LaunchBootloadable, %function
  22              	Bootloader_LaunchBootloadable:
  23              	.LFB38:
  24              		.file 1 ".\\Generated_Source\\PSoC4\\Bootloader.c"
   1:.\Generated_Source\PSoC4/Bootloader.c **** /*******************************************************************************
   2:.\Generated_Source\PSoC4/Bootloader.c **** * File Name: Bootloader.c
   3:.\Generated_Source\PSoC4/Bootloader.c **** * Version 1.20
   4:.\Generated_Source\PSoC4/Bootloader.c **** *
   5:.\Generated_Source\PSoC4/Bootloader.c **** *  Description:
   6:.\Generated_Source\PSoC4/Bootloader.c **** *   Provides an API for the Bootloader component. The API includes functions
   7:.\Generated_Source\PSoC4/Bootloader.c **** *   for starting boot loading operations, validating the application and
   8:.\Generated_Source\PSoC4/Bootloader.c **** *   jumping to the application.
   9:.\Generated_Source\PSoC4/Bootloader.c **** *
  10:.\Generated_Source\PSoC4/Bootloader.c **** ********************************************************************************
  11:.\Generated_Source\PSoC4/Bootloader.c **** * Copyright 2008-2013, Cypress Semiconductor Corporation.  All rights reserved.
  12:.\Generated_Source\PSoC4/Bootloader.c **** * You may use this file only in accordance with the license, terms, conditions,
  13:.\Generated_Source\PSoC4/Bootloader.c **** * disclaimers, and limitations in the end user license agreement accompanying
  14:.\Generated_Source\PSoC4/Bootloader.c **** * the software package with which this file was provided.
  15:.\Generated_Source\PSoC4/Bootloader.c **** *******************************************************************************/
  16:.\Generated_Source\PSoC4/Bootloader.c **** 
  17:.\Generated_Source\PSoC4/Bootloader.c **** #include "Bootloader_PVT.h"
  18:.\Generated_Source\PSoC4/Bootloader.c **** 
  19:.\Generated_Source\PSoC4/Bootloader.c **** #include "project.h"
  20:.\Generated_Source\PSoC4/Bootloader.c **** #include <string.h>
  21:.\Generated_Source\PSoC4/Bootloader.c **** 
  22:.\Generated_Source\PSoC4/Bootloader.c **** 
  23:.\Generated_Source\PSoC4/Bootloader.c **** /*******************************************************************************
  24:.\Generated_Source\PSoC4/Bootloader.c **** * The Checksum and SizeBytes are forcefully set in code. We then post process
  25:.\Generated_Source\PSoC4/Bootloader.c **** * the hex file from the linker and inject their values then. When the hex file
  26:.\Generated_Source\PSoC4/Bootloader.c **** * is loaded onto the device these two variables should have valid values.
  27:.\Generated_Source\PSoC4/Bootloader.c **** * Because the compiler can do optimizations remove the constant
  28:.\Generated_Source\PSoC4/Bootloader.c **** * accesses, these should not be accessed directly. Instead, the variables
  29:.\Generated_Source\PSoC4/Bootloader.c **** * CyBtldr_ChecksumAccess & CyBtldr_SizeBytesAccess should be used to get the
  30:.\Generated_Source\PSoC4/Bootloader.c **** * proper values at runtime.
  31:.\Generated_Source\PSoC4/Bootloader.c **** *******************************************************************************/
  32:.\Generated_Source\PSoC4/Bootloader.c **** #if defined(__ARMCC_VERSION) || defined (__GNUC__)
  33:.\Generated_Source\PSoC4/Bootloader.c ****     __attribute__((section (".bootloader")))
ARM GAS  C:\Users\vrnk\AppData\Local\Temp\ccnz7Ubz.s 			page 2


  34:.\Generated_Source\PSoC4/Bootloader.c **** #elif defined (__ICCARM__)
  35:.\Generated_Source\PSoC4/Bootloader.c ****     #pragma location=".bootloader"
  36:.\Generated_Source\PSoC4/Bootloader.c **** #endif  /* defined(__ARMCC_VERSION) || defined (__GNUC__) */
  37:.\Generated_Source\PSoC4/Bootloader.c **** 
  38:.\Generated_Source\PSoC4/Bootloader.c **** const uint8  CYCODE Bootloader_Checksum = 0u;
  39:.\Generated_Source\PSoC4/Bootloader.c **** const uint8  CYCODE *Bootloader_ChecksumAccess  = (const uint8  CYCODE *)(&Bootloader_Checksum);
  40:.\Generated_Source\PSoC4/Bootloader.c **** 
  41:.\Generated_Source\PSoC4/Bootloader.c **** #if defined(__ARMCC_VERSION) || defined (__GNUC__)
  42:.\Generated_Source\PSoC4/Bootloader.c ****     __attribute__((section (".bootloader")))
  43:.\Generated_Source\PSoC4/Bootloader.c **** #elif defined (__ICCARM__)
  44:.\Generated_Source\PSoC4/Bootloader.c ****     #pragma location=".bootloader"
  45:.\Generated_Source\PSoC4/Bootloader.c **** #endif  /* defined(__ARMCC_VERSION) || defined (__GNUC__) */
  46:.\Generated_Source\PSoC4/Bootloader.c **** 
  47:.\Generated_Source\PSoC4/Bootloader.c **** const uint32 CYCODE Bootloader_SizeBytes = 0xFFFFFFFFu;
  48:.\Generated_Source\PSoC4/Bootloader.c **** const uint32 CYCODE *Bootloader_SizeBytesAccess = (const uint32 CYCODE *)(&Bootloader_SizeBytes);
  49:.\Generated_Source\PSoC4/Bootloader.c **** 
  50:.\Generated_Source\PSoC4/Bootloader.c **** 
  51:.\Generated_Source\PSoC4/Bootloader.c **** #if(0u != Bootloader_DUAL_APP_BOOTLOADER)
  52:.\Generated_Source\PSoC4/Bootloader.c ****     uint8 Bootloader_activeApp = Bootloader_MD_BTLDB_ACTIVE_NONE;
  53:.\Generated_Source\PSoC4/Bootloader.c **** #else
  54:.\Generated_Source\PSoC4/Bootloader.c ****     #define Bootloader_activeApp      (Bootloader_MD_BTLDB_ACTIVE_0)
  55:.\Generated_Source\PSoC4/Bootloader.c **** #endif  /* (0u != Bootloader_DUAL_APP_BOOTLOADER) */
  56:.\Generated_Source\PSoC4/Bootloader.c **** 
  57:.\Generated_Source\PSoC4/Bootloader.c **** 
  58:.\Generated_Source\PSoC4/Bootloader.c **** /***************************************
  59:.\Generated_Source\PSoC4/Bootloader.c **** *     Function Prototypes
  60:.\Generated_Source\PSoC4/Bootloader.c **** ***************************************/
  61:.\Generated_Source\PSoC4/Bootloader.c **** static cystatus Bootloader_WritePacket(uint8 status, uint8 buffer[], uint16 size) CYSMALL \
  62:.\Generated_Source\PSoC4/Bootloader.c ****                                     ;
  63:.\Generated_Source\PSoC4/Bootloader.c **** 
  64:.\Generated_Source\PSoC4/Bootloader.c **** static uint16   Bootloader_CalcPacketChecksum(const uint8 buffer[], uint16 size) CYSMALL \
  65:.\Generated_Source\PSoC4/Bootloader.c ****                                     ;
  66:.\Generated_Source\PSoC4/Bootloader.c **** 
  67:.\Generated_Source\PSoC4/Bootloader.c **** static uint8    Bootloader_Calc8BitFlashSum(uint32 start, uint32 size) CYSMALL \
  68:.\Generated_Source\PSoC4/Bootloader.c ****                                     ;
  69:.\Generated_Source\PSoC4/Bootloader.c **** #if(!CY_PSOC4)
  70:.\Generated_Source\PSoC4/Bootloader.c **** static uint8    Bootloader_Calc8BitEepromSum(uint32 start, uint32 size) CYSMALL \
  71:.\Generated_Source\PSoC4/Bootloader.c ****                                     ;
  72:.\Generated_Source\PSoC4/Bootloader.c **** #endif /* (!CY_PSOC4) */
  73:.\Generated_Source\PSoC4/Bootloader.c **** 
  74:.\Generated_Source\PSoC4/Bootloader.c **** static void     Bootloader_HostLink(uint8 timeOut) \
  75:.\Generated_Source\PSoC4/Bootloader.c ****                                     ;
  76:.\Generated_Source\PSoC4/Bootloader.c **** 
  77:.\Generated_Source\PSoC4/Bootloader.c **** static void     Bootloader_LaunchApplication(void) CYSMALL \
  78:.\Generated_Source\PSoC4/Bootloader.c ****                                     ;
  79:.\Generated_Source\PSoC4/Bootloader.c **** 
  80:.\Generated_Source\PSoC4/Bootloader.c **** static cystatus Bootloader_ValidateBootloadable(uint8 appId) CYSMALL \
  81:.\Generated_Source\PSoC4/Bootloader.c ****                                     ;
  82:.\Generated_Source\PSoC4/Bootloader.c **** 
  83:.\Generated_Source\PSoC4/Bootloader.c **** static uint32   Bootloader_GetMetadata(uint8 fieldName, uint8 appId)\
  84:.\Generated_Source\PSoC4/Bootloader.c ****                                     ;
  85:.\Generated_Source\PSoC4/Bootloader.c **** 
  86:.\Generated_Source\PSoC4/Bootloader.c **** #if(!CY_PSOC3)
  87:.\Generated_Source\PSoC4/Bootloader.c ****     /* Implementation for the PSoC 3 resides in a Bootloader_psoc3.a51 file.  */
  88:.\Generated_Source\PSoC4/Bootloader.c ****     static void     Bootloader_LaunchBootloadable(uint32 appAddr);
  89:.\Generated_Source\PSoC4/Bootloader.c **** #endif  /* (!CY_PSOC3) */
  90:.\Generated_Source\PSoC4/Bootloader.c **** 
ARM GAS  C:\Users\vrnk\AppData\Local\Temp\ccnz7Ubz.s 			page 3


  91:.\Generated_Source\PSoC4/Bootloader.c **** 
  92:.\Generated_Source\PSoC4/Bootloader.c **** /*******************************************************************************
  93:.\Generated_Source\PSoC4/Bootloader.c **** * Function Name: Bootloader_CalcPacketChecksum
  94:.\Generated_Source\PSoC4/Bootloader.c **** ********************************************************************************
  95:.\Generated_Source\PSoC4/Bootloader.c **** *
  96:.\Generated_Source\PSoC4/Bootloader.c **** * Summary:
  97:.\Generated_Source\PSoC4/Bootloader.c **** *  This computes the 16 bit checksum for the provided number of bytes contained
  98:.\Generated_Source\PSoC4/Bootloader.c **** *  in the provided buffer
  99:.\Generated_Source\PSoC4/Bootloader.c **** *
 100:.\Generated_Source\PSoC4/Bootloader.c **** * Parameters:
 101:.\Generated_Source\PSoC4/Bootloader.c **** *  buffer:
 102:.\Generated_Source\PSoC4/Bootloader.c **** *     The buffer containing the data to compute the checksum for
 103:.\Generated_Source\PSoC4/Bootloader.c **** *  size:
 104:.\Generated_Source\PSoC4/Bootloader.c **** *     The number of bytes in buffer to compute the checksum for
 105:.\Generated_Source\PSoC4/Bootloader.c **** *
 106:.\Generated_Source\PSoC4/Bootloader.c **** * Returns:
 107:.\Generated_Source\PSoC4/Bootloader.c **** *  16 bit checksum for the provided data
 108:.\Generated_Source\PSoC4/Bootloader.c **** *
 109:.\Generated_Source\PSoC4/Bootloader.c **** *******************************************************************************/
 110:.\Generated_Source\PSoC4/Bootloader.c **** static uint16 Bootloader_CalcPacketChecksum(const uint8 buffer[], uint16 size) \
 111:.\Generated_Source\PSoC4/Bootloader.c ****                     CYSMALL 
 112:.\Generated_Source\PSoC4/Bootloader.c **** {
 113:.\Generated_Source\PSoC4/Bootloader.c ****     #if(0u != Bootloader_PACKET_CHECKSUM_CRC)
 114:.\Generated_Source\PSoC4/Bootloader.c **** 
 115:.\Generated_Source\PSoC4/Bootloader.c ****         uint16 CYDATA crc = Bootloader_CRC_CCITT_INITIAL_VALUE;
 116:.\Generated_Source\PSoC4/Bootloader.c ****         uint16 CYDATA tmp;
 117:.\Generated_Source\PSoC4/Bootloader.c ****         uint8  CYDATA i;
 118:.\Generated_Source\PSoC4/Bootloader.c ****         uint16 CYDATA tmpIndex = size;
 119:.\Generated_Source\PSoC4/Bootloader.c **** 
 120:.\Generated_Source\PSoC4/Bootloader.c ****         if(0u == size)
 121:.\Generated_Source\PSoC4/Bootloader.c ****         {
 122:.\Generated_Source\PSoC4/Bootloader.c ****             crc = ~crc;
 123:.\Generated_Source\PSoC4/Bootloader.c ****         }
 124:.\Generated_Source\PSoC4/Bootloader.c ****         else
 125:.\Generated_Source\PSoC4/Bootloader.c ****         {
 126:.\Generated_Source\PSoC4/Bootloader.c ****             do
 127:.\Generated_Source\PSoC4/Bootloader.c ****             {
 128:.\Generated_Source\PSoC4/Bootloader.c ****                 tmp = buffer[tmpIndex - size];
 129:.\Generated_Source\PSoC4/Bootloader.c **** 
 130:.\Generated_Source\PSoC4/Bootloader.c ****                 for (i = 0u; i < 8u; i++)
 131:.\Generated_Source\PSoC4/Bootloader.c ****                 {
 132:.\Generated_Source\PSoC4/Bootloader.c ****                     if (0u != ((crc & 0x0001u) ^ (tmp & 0x0001u)))
 133:.\Generated_Source\PSoC4/Bootloader.c ****                     {
 134:.\Generated_Source\PSoC4/Bootloader.c ****                         crc = (crc >> 1u) ^ Bootloader_CRC_CCITT_POLYNOMIAL;
 135:.\Generated_Source\PSoC4/Bootloader.c ****                     }
 136:.\Generated_Source\PSoC4/Bootloader.c ****                     else
 137:.\Generated_Source\PSoC4/Bootloader.c ****                     {
 138:.\Generated_Source\PSoC4/Bootloader.c ****                         crc >>= 1u;
 139:.\Generated_Source\PSoC4/Bootloader.c ****                     }
 140:.\Generated_Source\PSoC4/Bootloader.c **** 
 141:.\Generated_Source\PSoC4/Bootloader.c ****                     tmp >>= 1u;
 142:.\Generated_Source\PSoC4/Bootloader.c ****                 }
 143:.\Generated_Source\PSoC4/Bootloader.c **** 
 144:.\Generated_Source\PSoC4/Bootloader.c ****                 size--;
 145:.\Generated_Source\PSoC4/Bootloader.c ****             }
 146:.\Generated_Source\PSoC4/Bootloader.c ****             while(0u != size);
 147:.\Generated_Source\PSoC4/Bootloader.c **** 
ARM GAS  C:\Users\vrnk\AppData\Local\Temp\ccnz7Ubz.s 			page 4


 148:.\Generated_Source\PSoC4/Bootloader.c ****             crc = ~crc;
 149:.\Generated_Source\PSoC4/Bootloader.c ****             tmp = crc;
 150:.\Generated_Source\PSoC4/Bootloader.c ****             crc = ( uint16 )(crc << 8u) | (tmp >> 8u);
 151:.\Generated_Source\PSoC4/Bootloader.c ****         }
 152:.\Generated_Source\PSoC4/Bootloader.c **** 
 153:.\Generated_Source\PSoC4/Bootloader.c ****         return(crc);
 154:.\Generated_Source\PSoC4/Bootloader.c **** 
 155:.\Generated_Source\PSoC4/Bootloader.c ****     #else
 156:.\Generated_Source\PSoC4/Bootloader.c **** 
 157:.\Generated_Source\PSoC4/Bootloader.c ****         uint16 CYDATA sum = 0u;
 158:.\Generated_Source\PSoC4/Bootloader.c **** 
 159:.\Generated_Source\PSoC4/Bootloader.c ****         while (size > 0u)
 160:.\Generated_Source\PSoC4/Bootloader.c ****         {
 161:.\Generated_Source\PSoC4/Bootloader.c ****             sum += buffer[size - 1u];
 162:.\Generated_Source\PSoC4/Bootloader.c ****             size--;
 163:.\Generated_Source\PSoC4/Bootloader.c ****         }
 164:.\Generated_Source\PSoC4/Bootloader.c **** 
 165:.\Generated_Source\PSoC4/Bootloader.c ****         return(( uint16 )1u + ( uint16 )(~sum));
 166:.\Generated_Source\PSoC4/Bootloader.c **** 
 167:.\Generated_Source\PSoC4/Bootloader.c ****     #endif /* (0u != Bootloader_PACKET_CHECKSUM_CRC) */
 168:.\Generated_Source\PSoC4/Bootloader.c **** }
 169:.\Generated_Source\PSoC4/Bootloader.c **** 
 170:.\Generated_Source\PSoC4/Bootloader.c **** 
 171:.\Generated_Source\PSoC4/Bootloader.c **** /*******************************************************************************
 172:.\Generated_Source\PSoC4/Bootloader.c **** * Function Name: Bootloader_Calc8BitFlashSum
 173:.\Generated_Source\PSoC4/Bootloader.c **** ********************************************************************************
 174:.\Generated_Source\PSoC4/Bootloader.c **** *
 175:.\Generated_Source\PSoC4/Bootloader.c **** * Summary:
 176:.\Generated_Source\PSoC4/Bootloader.c **** *  This computes the 8 bit sum for the provided number of bytes contained in
 177:.\Generated_Source\PSoC4/Bootloader.c **** *  flash.
 178:.\Generated_Source\PSoC4/Bootloader.c **** *
 179:.\Generated_Source\PSoC4/Bootloader.c **** * Parameters:
 180:.\Generated_Source\PSoC4/Bootloader.c **** *  start:
 181:.\Generated_Source\PSoC4/Bootloader.c **** *     The starting address to start summing data for
 182:.\Generated_Source\PSoC4/Bootloader.c **** *  size:
 183:.\Generated_Source\PSoC4/Bootloader.c **** *     The number of bytes to read and compute the sum for
 184:.\Generated_Source\PSoC4/Bootloader.c **** *
 185:.\Generated_Source\PSoC4/Bootloader.c **** * Returns:
 186:.\Generated_Source\PSoC4/Bootloader.c **** *   8 bit sum for the provided data
 187:.\Generated_Source\PSoC4/Bootloader.c **** *
 188:.\Generated_Source\PSoC4/Bootloader.c **** *******************************************************************************/
 189:.\Generated_Source\PSoC4/Bootloader.c **** static uint8 Bootloader_Calc8BitFlashSum(uint32 start, uint32 size) \
 190:.\Generated_Source\PSoC4/Bootloader.c ****                 CYSMALL 
 191:.\Generated_Source\PSoC4/Bootloader.c **** {
 192:.\Generated_Source\PSoC4/Bootloader.c ****     uint8 CYDATA sum = 0u;
 193:.\Generated_Source\PSoC4/Bootloader.c **** 
 194:.\Generated_Source\PSoC4/Bootloader.c ****     while (size > 0u)
 195:.\Generated_Source\PSoC4/Bootloader.c ****     {
 196:.\Generated_Source\PSoC4/Bootloader.c ****         size--;
 197:.\Generated_Source\PSoC4/Bootloader.c ****         sum += Bootloader_GET_CODE_BYTE(start + size);
 198:.\Generated_Source\PSoC4/Bootloader.c ****     }
 199:.\Generated_Source\PSoC4/Bootloader.c **** 
 200:.\Generated_Source\PSoC4/Bootloader.c ****     return(sum);
 201:.\Generated_Source\PSoC4/Bootloader.c **** }
 202:.\Generated_Source\PSoC4/Bootloader.c **** 
 203:.\Generated_Source\PSoC4/Bootloader.c **** 
 204:.\Generated_Source\PSoC4/Bootloader.c **** #if(!CY_PSOC4)
ARM GAS  C:\Users\vrnk\AppData\Local\Temp\ccnz7Ubz.s 			page 5


 205:.\Generated_Source\PSoC4/Bootloader.c **** 
 206:.\Generated_Source\PSoC4/Bootloader.c ****     /*******************************************************************************
 207:.\Generated_Source\PSoC4/Bootloader.c ****     * Function Name: Bootloader_Calc8BitEepromSum
 208:.\Generated_Source\PSoC4/Bootloader.c ****     ********************************************************************************
 209:.\Generated_Source\PSoC4/Bootloader.c ****     *
 210:.\Generated_Source\PSoC4/Bootloader.c ****     * Summary:
 211:.\Generated_Source\PSoC4/Bootloader.c ****     *  This computes the 8 bit sum for the provided number of bytes contained in
 212:.\Generated_Source\PSoC4/Bootloader.c ****     *  EEPROM.
 213:.\Generated_Source\PSoC4/Bootloader.c ****     *
 214:.\Generated_Source\PSoC4/Bootloader.c ****     * Parameters:
 215:.\Generated_Source\PSoC4/Bootloader.c ****     *  start:
 216:.\Generated_Source\PSoC4/Bootloader.c ****     *     The starting address to start summing data for
 217:.\Generated_Source\PSoC4/Bootloader.c ****     *  size:
 218:.\Generated_Source\PSoC4/Bootloader.c ****     *     The number of bytes to read and compute the sum for
 219:.\Generated_Source\PSoC4/Bootloader.c ****     *
 220:.\Generated_Source\PSoC4/Bootloader.c ****     * Returns:
 221:.\Generated_Source\PSoC4/Bootloader.c ****     *   8 bit sum for the provided data
 222:.\Generated_Source\PSoC4/Bootloader.c ****     *
 223:.\Generated_Source\PSoC4/Bootloader.c ****     *******************************************************************************/
 224:.\Generated_Source\PSoC4/Bootloader.c ****     static uint8 Bootloader_Calc8BitEepromSum(uint32 start, uint32 size) \
 225:.\Generated_Source\PSoC4/Bootloader.c ****                     CYSMALL 
 226:.\Generated_Source\PSoC4/Bootloader.c ****     {
 227:.\Generated_Source\PSoC4/Bootloader.c ****         uint8 CYDATA sum = 0u;
 228:.\Generated_Source\PSoC4/Bootloader.c **** 
 229:.\Generated_Source\PSoC4/Bootloader.c ****         while (size > 0u)
 230:.\Generated_Source\PSoC4/Bootloader.c ****         {
 231:.\Generated_Source\PSoC4/Bootloader.c ****             size--;
 232:.\Generated_Source\PSoC4/Bootloader.c ****             sum += Bootloader_GET_EEPROM_BYTE(start + size);
 233:.\Generated_Source\PSoC4/Bootloader.c ****         }
 234:.\Generated_Source\PSoC4/Bootloader.c **** 
 235:.\Generated_Source\PSoC4/Bootloader.c ****         return(sum);
 236:.\Generated_Source\PSoC4/Bootloader.c ****     }
 237:.\Generated_Source\PSoC4/Bootloader.c **** 
 238:.\Generated_Source\PSoC4/Bootloader.c **** #endif  /* (!CY_PSOC4) */
 239:.\Generated_Source\PSoC4/Bootloader.c **** 
 240:.\Generated_Source\PSoC4/Bootloader.c **** 
 241:.\Generated_Source\PSoC4/Bootloader.c **** /*******************************************************************************
 242:.\Generated_Source\PSoC4/Bootloader.c **** * Function Name: Bootloader_Start
 243:.\Generated_Source\PSoC4/Bootloader.c **** ********************************************************************************
 244:.\Generated_Source\PSoC4/Bootloader.c **** * Summary:
 245:.\Generated_Source\PSoC4/Bootloader.c **** *  This function is called in order executing following algorithm:
 246:.\Generated_Source\PSoC4/Bootloader.c **** *
 247:.\Generated_Source\PSoC4/Bootloader.c **** *  - Identify active bootloadable application (applicable only to
 248:.\Generated_Source\PSoC4/Bootloader.c **** *    Multi-application bootloader)
 249:.\Generated_Source\PSoC4/Bootloader.c **** *
 250:.\Generated_Source\PSoC4/Bootloader.c **** *  - Validate bootloader application (desing-time configurable, Bootloader
 251:.\Generated_Source\PSoC4/Bootloader.c **** *    application validation option of the component customizer)
 252:.\Generated_Source\PSoC4/Bootloader.c **** *
 253:.\Generated_Source\PSoC4/Bootloader.c **** *  - Validate active bootloadable application
 254:.\Generated_Source\PSoC4/Bootloader.c **** *
 255:.\Generated_Source\PSoC4/Bootloader.c **** *  - Run communication subroutine (desing-time configurable, Wait for command
 256:.\Generated_Source\PSoC4/Bootloader.c **** *    option of the component customizer)
 257:.\Generated_Source\PSoC4/Bootloader.c **** *
 258:.\Generated_Source\PSoC4/Bootloader.c **** *  - Schedule bootloadable and reset device
 259:.\Generated_Source\PSoC4/Bootloader.c **** *
 260:.\Generated_Source\PSoC4/Bootloader.c **** * Parameters:
 261:.\Generated_Source\PSoC4/Bootloader.c **** *  None
ARM GAS  C:\Users\vrnk\AppData\Local\Temp\ccnz7Ubz.s 			page 6


 262:.\Generated_Source\PSoC4/Bootloader.c **** *
 263:.\Generated_Source\PSoC4/Bootloader.c **** * Return:
 264:.\Generated_Source\PSoC4/Bootloader.c **** *  This method will never return. It will either load a new application and
 265:.\Generated_Source\PSoC4/Bootloader.c **** *  reset the device or it will jump directly to the existing application.
 266:.\Generated_Source\PSoC4/Bootloader.c **** *
 267:.\Generated_Source\PSoC4/Bootloader.c **** * Side Effects:
 268:.\Generated_Source\PSoC4/Bootloader.c **** *  If this method determines that the bootloader appliation itself is corrupt,
 269:.\Generated_Source\PSoC4/Bootloader.c **** *  this method will not return, instead it will simply hang the application.
 270:.\Generated_Source\PSoC4/Bootloader.c **** *
 271:.\Generated_Source\PSoC4/Bootloader.c **** *******************************************************************************/
 272:.\Generated_Source\PSoC4/Bootloader.c **** void Bootloader_Start(void) CYSMALL 
 273:.\Generated_Source\PSoC4/Bootloader.c **** {
 274:.\Generated_Source\PSoC4/Bootloader.c ****     #if(0u != Bootloader_BOOTLOADER_APP_VALIDATION)
 275:.\Generated_Source\PSoC4/Bootloader.c ****         uint8 CYDATA calcedChecksum;
 276:.\Generated_Source\PSoC4/Bootloader.c ****     #endif    /* (0u != Bootloader_BOOTLOADER_APP_VALIDATION) */
 277:.\Generated_Source\PSoC4/Bootloader.c **** 
 278:.\Generated_Source\PSoC4/Bootloader.c ****     #if(!CY_PSOC4)
 279:.\Generated_Source\PSoC4/Bootloader.c ****         uint8 CYXDATA Bootloader_flashBuffer[Bootloader_FROW_SIZE];
 280:.\Generated_Source\PSoC4/Bootloader.c ****     #endif  /* (!CY_PSOC4) */
 281:.\Generated_Source\PSoC4/Bootloader.c **** 
 282:.\Generated_Source\PSoC4/Bootloader.c ****     cystatus tmpStatus;
 283:.\Generated_Source\PSoC4/Bootloader.c **** 
 284:.\Generated_Source\PSoC4/Bootloader.c **** 
 285:.\Generated_Source\PSoC4/Bootloader.c ****     /* Identify active bootloadable application */
 286:.\Generated_Source\PSoC4/Bootloader.c ****     #if(0u != Bootloader_DUAL_APP_BOOTLOADER)
 287:.\Generated_Source\PSoC4/Bootloader.c **** 
 288:.\Generated_Source\PSoC4/Bootloader.c ****         if(Bootloader_MD_BTLDB_ACTIVE_VALUE(0u) == Bootloader_MD_BTLDB_IS_ACTIVE)
 289:.\Generated_Source\PSoC4/Bootloader.c ****         {
 290:.\Generated_Source\PSoC4/Bootloader.c ****             Bootloader_activeApp = Bootloader_MD_BTLDB_ACTIVE_0;
 291:.\Generated_Source\PSoC4/Bootloader.c ****         }
 292:.\Generated_Source\PSoC4/Bootloader.c ****         else if (Bootloader_MD_BTLDB_ACTIVE_VALUE(1u) == Bootloader_MD_BTLDB_IS_ACTIVE)
 293:.\Generated_Source\PSoC4/Bootloader.c ****         {
 294:.\Generated_Source\PSoC4/Bootloader.c ****             Bootloader_activeApp = Bootloader_MD_BTLDB_ACTIVE_1;
 295:.\Generated_Source\PSoC4/Bootloader.c ****         }
 296:.\Generated_Source\PSoC4/Bootloader.c ****         else
 297:.\Generated_Source\PSoC4/Bootloader.c ****         {
 298:.\Generated_Source\PSoC4/Bootloader.c ****             Bootloader_activeApp = Bootloader_MD_BTLDB_ACTIVE_NONE;
 299:.\Generated_Source\PSoC4/Bootloader.c ****         }
 300:.\Generated_Source\PSoC4/Bootloader.c **** 
 301:.\Generated_Source\PSoC4/Bootloader.c ****     #endif  /* (0u != Bootloader_DUAL_APP_BOOTLOADER) */
 302:.\Generated_Source\PSoC4/Bootloader.c **** 
 303:.\Generated_Source\PSoC4/Bootloader.c **** 
 304:.\Generated_Source\PSoC4/Bootloader.c ****     /* Initialize Flash subsystem for non-PSoC 4 devices */
 305:.\Generated_Source\PSoC4/Bootloader.c ****     #if(!CY_PSOC4)
 306:.\Generated_Source\PSoC4/Bootloader.c ****         if (CYRET_SUCCESS != CySetTemp())
 307:.\Generated_Source\PSoC4/Bootloader.c ****         {
 308:.\Generated_Source\PSoC4/Bootloader.c ****             CyHalt(0x00u);
 309:.\Generated_Source\PSoC4/Bootloader.c ****         }
 310:.\Generated_Source\PSoC4/Bootloader.c **** 
 311:.\Generated_Source\PSoC4/Bootloader.c ****         if (CYRET_SUCCESS != CySetFlashEEBuffer(Bootloader_flashBuffer))
 312:.\Generated_Source\PSoC4/Bootloader.c ****         {
 313:.\Generated_Source\PSoC4/Bootloader.c ****             CyHalt(0x00u);
 314:.\Generated_Source\PSoC4/Bootloader.c ****         }
 315:.\Generated_Source\PSoC4/Bootloader.c ****     #endif  /* (CY_PSOC4) */
 316:.\Generated_Source\PSoC4/Bootloader.c **** 
 317:.\Generated_Source\PSoC4/Bootloader.c **** 
 318:.\Generated_Source\PSoC4/Bootloader.c ****     /***********************************************************************
ARM GAS  C:\Users\vrnk\AppData\Local\Temp\ccnz7Ubz.s 			page 7


 319:.\Generated_Source\PSoC4/Bootloader.c ****     * Bootloader Application Validation
 320:.\Generated_Source\PSoC4/Bootloader.c ****     *
 321:.\Generated_Source\PSoC4/Bootloader.c ****     * Halt device if:
 322:.\Generated_Source\PSoC4/Bootloader.c ****     *  - Calculated checksum does not much one stored in metadata section
 323:.\Generated_Source\PSoC4/Bootloader.c ****     *  - Invalid pointer to the place where bootloader application ends
 324:.\Generated_Source\PSoC4/Bootloader.c ****     *  - Flash subsystem where not initialized correctly
 325:.\Generated_Source\PSoC4/Bootloader.c ****     ***********************************************************************/
 326:.\Generated_Source\PSoC4/Bootloader.c ****     #if(0u != Bootloader_BOOTLOADER_APP_VALIDATION)
 327:.\Generated_Source\PSoC4/Bootloader.c **** 
 328:.\Generated_Source\PSoC4/Bootloader.c ****         /* Calculate Bootloader application checksum */
 329:.\Generated_Source\PSoC4/Bootloader.c ****         calcedChecksum = Bootloader_Calc8BitFlashSum(Bootloader_MD_BTLDR_ADDR_PTR,
 330:.\Generated_Source\PSoC4/Bootloader.c ****                 *Bootloader_SizeBytesAccess - Bootloader_MD_BTLDR_ADDR_PTR);
 331:.\Generated_Source\PSoC4/Bootloader.c **** 
 332:.\Generated_Source\PSoC4/Bootloader.c ****         /* we actually included the checksum, so remove it */
 333:.\Generated_Source\PSoC4/Bootloader.c ****         calcedChecksum -= *Bootloader_ChecksumAccess;
 334:.\Generated_Source\PSoC4/Bootloader.c ****         calcedChecksum = ( uint8 )1u + ( uint8 )(~calcedChecksum);
 335:.\Generated_Source\PSoC4/Bootloader.c **** 
 336:.\Generated_Source\PSoC4/Bootloader.c ****         /* Checksum and pointer to bootloader verification */
 337:.\Generated_Source\PSoC4/Bootloader.c ****         if((calcedChecksum != *Bootloader_ChecksumAccess) ||
 338:.\Generated_Source\PSoC4/Bootloader.c ****            (0u == *Bootloader_SizeBytesAccess))
 339:.\Generated_Source\PSoC4/Bootloader.c ****         {
 340:.\Generated_Source\PSoC4/Bootloader.c ****             CyHalt(0x00u);
 341:.\Generated_Source\PSoC4/Bootloader.c ****         }
 342:.\Generated_Source\PSoC4/Bootloader.c **** 
 343:.\Generated_Source\PSoC4/Bootloader.c ****     #endif  /* (0u != Bootloader_BOOTLOADER_APP_VALIDATION) */
 344:.\Generated_Source\PSoC4/Bootloader.c **** 
 345:.\Generated_Source\PSoC4/Bootloader.c **** 
 346:.\Generated_Source\PSoC4/Bootloader.c ****     /***********************************************************************
 347:.\Generated_Source\PSoC4/Bootloader.c ****     * Active Bootloadable Application Validation
 348:.\Generated_Source\PSoC4/Bootloader.c ****     *
 349:.\Generated_Source\PSoC4/Bootloader.c ****     * If active bootloadable application is invalid or bootloader
 350:.\Generated_Source\PSoC4/Bootloader.c ****     * application is scheduled - do the following:
 351:.\Generated_Source\PSoC4/Bootloader.c ****     *  - schedule bootloader application to be run after software reset
 352:.\Generated_Source\PSoC4/Bootloader.c ****     *  - Go to the communication subroutine. Will wait for commands forever
 353:.\Generated_Source\PSoC4/Bootloader.c ****     ***********************************************************************/
 354:.\Generated_Source\PSoC4/Bootloader.c ****     tmpStatus = Bootloader_ValidateBootloadable(Bootloader_activeApp);
 355:.\Generated_Source\PSoC4/Bootloader.c **** 
 356:.\Generated_Source\PSoC4/Bootloader.c ****     if ((Bootloader_GET_RUN_TYPE == Bootloader_START_BTLDR) ||
 357:.\Generated_Source\PSoC4/Bootloader.c ****         (CYRET_SUCCESS != tmpStatus))
 358:.\Generated_Source\PSoC4/Bootloader.c ****     {
 359:.\Generated_Source\PSoC4/Bootloader.c ****         Bootloader_SET_RUN_TYPE(0u);
 360:.\Generated_Source\PSoC4/Bootloader.c **** 
 361:.\Generated_Source\PSoC4/Bootloader.c ****         Bootloader_HostLink(Bootloader_WAIT_FOR_COMMAND_FOREVER);
 362:.\Generated_Source\PSoC4/Bootloader.c ****     }
 363:.\Generated_Source\PSoC4/Bootloader.c **** 
 364:.\Generated_Source\PSoC4/Bootloader.c **** 
 365:.\Generated_Source\PSoC4/Bootloader.c ****     /* Go to the communication subroutine. Will wait for commands specifed time */
 366:.\Generated_Source\PSoC4/Bootloader.c ****     #if(0u != Bootloader_WAIT_FOR_COMMAND)
 367:.\Generated_Source\PSoC4/Bootloader.c **** 
 368:.\Generated_Source\PSoC4/Bootloader.c ****         /* Timeout is in 100s of miliseconds */
 369:.\Generated_Source\PSoC4/Bootloader.c ****         Bootloader_HostLink(Bootloader_WAIT_FOR_COMMAND_TIME);
 370:.\Generated_Source\PSoC4/Bootloader.c **** 
 371:.\Generated_Source\PSoC4/Bootloader.c ****     #endif  /* (0u != Bootloader_WAIT_FOR_COMMAND) */
 372:.\Generated_Source\PSoC4/Bootloader.c **** 
 373:.\Generated_Source\PSoC4/Bootloader.c **** 
 374:.\Generated_Source\PSoC4/Bootloader.c ****     /* Schedule bootloadable application and perform software reset */
 375:.\Generated_Source\PSoC4/Bootloader.c ****     Bootloader_LaunchApplication();
ARM GAS  C:\Users\vrnk\AppData\Local\Temp\ccnz7Ubz.s 			page 8


 376:.\Generated_Source\PSoC4/Bootloader.c **** }
 377:.\Generated_Source\PSoC4/Bootloader.c **** 
 378:.\Generated_Source\PSoC4/Bootloader.c **** 
 379:.\Generated_Source\PSoC4/Bootloader.c **** /*******************************************************************************
 380:.\Generated_Source\PSoC4/Bootloader.c **** * Function Name: Bootloader_LaunchApplication
 381:.\Generated_Source\PSoC4/Bootloader.c **** ********************************************************************************
 382:.\Generated_Source\PSoC4/Bootloader.c **** *
 383:.\Generated_Source\PSoC4/Bootloader.c **** * Summary:
 384:.\Generated_Source\PSoC4/Bootloader.c **** *  Jumps the PC to the start address of the user application in flash.
 385:.\Generated_Source\PSoC4/Bootloader.c **** *
 386:.\Generated_Source\PSoC4/Bootloader.c **** * Parameters:
 387:.\Generated_Source\PSoC4/Bootloader.c **** *  None
 388:.\Generated_Source\PSoC4/Bootloader.c **** *
 389:.\Generated_Source\PSoC4/Bootloader.c **** * Returns:
 390:.\Generated_Source\PSoC4/Bootloader.c **** *  This method will never return if it succesfully goes to the user application.
 391:.\Generated_Source\PSoC4/Bootloader.c **** *
 392:.\Generated_Source\PSoC4/Bootloader.c **** *******************************************************************************/
 393:.\Generated_Source\PSoC4/Bootloader.c **** static void Bootloader_LaunchApplication(void) CYSMALL 
 394:.\Generated_Source\PSoC4/Bootloader.c **** {
 395:.\Generated_Source\PSoC4/Bootloader.c ****     /* Schedule Bootloadable to start after reset */
 396:.\Generated_Source\PSoC4/Bootloader.c ****     Bootloader_SET_RUN_TYPE(Bootloader_START_APP);
 397:.\Generated_Source\PSoC4/Bootloader.c **** 
 398:.\Generated_Source\PSoC4/Bootloader.c ****     CySoftwareReset();
 399:.\Generated_Source\PSoC4/Bootloader.c **** }
 400:.\Generated_Source\PSoC4/Bootloader.c **** 
 401:.\Generated_Source\PSoC4/Bootloader.c **** 
 402:.\Generated_Source\PSoC4/Bootloader.c **** /*******************************************************************************
 403:.\Generated_Source\PSoC4/Bootloader.c **** * Function Name: CyBtldr_CheckLaunch
 404:.\Generated_Source\PSoC4/Bootloader.c **** ********************************************************************************
 405:.\Generated_Source\PSoC4/Bootloader.c **** *
 406:.\Generated_Source\PSoC4/Bootloader.c **** * Summary:
 407:.\Generated_Source\PSoC4/Bootloader.c **** *  This routine checks to see if the bootloader or the bootloadable application
 408:.\Generated_Source\PSoC4/Bootloader.c **** *  should be run.  If the application is to be run, it will start executing.
 409:.\Generated_Source\PSoC4/Bootloader.c **** *  If the bootloader is to be run, it will return so the bootloader can
 410:.\Generated_Source\PSoC4/Bootloader.c **** *  continue starting up.
 411:.\Generated_Source\PSoC4/Bootloader.c **** *
 412:.\Generated_Source\PSoC4/Bootloader.c **** * Parameters:
 413:.\Generated_Source\PSoC4/Bootloader.c **** *  None
 414:.\Generated_Source\PSoC4/Bootloader.c **** *
 415:.\Generated_Source\PSoC4/Bootloader.c **** * Returns:
 416:.\Generated_Source\PSoC4/Bootloader.c **** *  None
 417:.\Generated_Source\PSoC4/Bootloader.c **** *
 418:.\Generated_Source\PSoC4/Bootloader.c **** *******************************************************************************/
 419:.\Generated_Source\PSoC4/Bootloader.c **** void CyBtldr_CheckLaunch(void) CYSMALL 
 420:.\Generated_Source\PSoC4/Bootloader.c **** {
 421:.\Generated_Source\PSoC4/Bootloader.c **** 
 422:.\Generated_Source\PSoC4/Bootloader.c **** #if(CY_PSOC4)
 423:.\Generated_Source\PSoC4/Bootloader.c **** 
 424:.\Generated_Source\PSoC4/Bootloader.c ****     /*******************************************************************************
 425:.\Generated_Source\PSoC4/Bootloader.c ****     * Set cyBtldrRunType to zero in case of non-software reset occured. This means
 426:.\Generated_Source\PSoC4/Bootloader.c ****     * that bootloader application is scheduled - that is initial clean state. The
 427:.\Generated_Source\PSoC4/Bootloader.c ****     * value of cyBtldrRunType is valid only in case of software reset.
 428:.\Generated_Source\PSoC4/Bootloader.c ****     *******************************************************************************/
 429:.\Generated_Source\PSoC4/Bootloader.c ****     if (0u == (Bootloader_RES_CAUSE_REG & Bootloader_RES_CAUSE_RESET_SOFT))
 430:.\Generated_Source\PSoC4/Bootloader.c ****     {
 431:.\Generated_Source\PSoC4/Bootloader.c ****         cyBtldrRunType = 0u;
 432:.\Generated_Source\PSoC4/Bootloader.c ****     }
ARM GAS  C:\Users\vrnk\AppData\Local\Temp\ccnz7Ubz.s 			page 9


 433:.\Generated_Source\PSoC4/Bootloader.c **** 
 434:.\Generated_Source\PSoC4/Bootloader.c **** #endif /* (CY_PSOC4) */
 435:.\Generated_Source\PSoC4/Bootloader.c **** 
 436:.\Generated_Source\PSoC4/Bootloader.c **** 
 437:.\Generated_Source\PSoC4/Bootloader.c ****     if (Bootloader_GET_RUN_TYPE == Bootloader_START_APP)
 438:.\Generated_Source\PSoC4/Bootloader.c ****     {
 439:.\Generated_Source\PSoC4/Bootloader.c ****         Bootloader_SET_RUN_TYPE(0u);
 440:.\Generated_Source\PSoC4/Bootloader.c **** 
 441:.\Generated_Source\PSoC4/Bootloader.c ****         /*******************************************************************************
 442:.\Generated_Source\PSoC4/Bootloader.c ****         * Indicates that we have told ourselves to jump to the application since we have
 443:.\Generated_Source\PSoC4/Bootloader.c ****         * already told ourselves to jump, we do not do any expensive verification of the
 444:.\Generated_Source\PSoC4/Bootloader.c ****         * application. We just check to make sure that the value at CY_APP_ADDR_ADDRESS
 445:.\Generated_Source\PSoC4/Bootloader.c ****         * is something other than 0.
 446:.\Generated_Source\PSoC4/Bootloader.c ****         *******************************************************************************/
 447:.\Generated_Source\PSoC4/Bootloader.c ****         if(0u != Bootloader_GetMetadata(Bootloader_GET_METADATA_BTLDB_ADDR, Bootloader_activeApp))
 448:.\Generated_Source\PSoC4/Bootloader.c ****         {
 449:.\Generated_Source\PSoC4/Bootloader.c ****             /* Never return from this method */
 450:.\Generated_Source\PSoC4/Bootloader.c ****             Bootloader_LaunchBootloadable(Bootloader_GetMetadata(Bootloader_GET_METADATA_BTLDB_ADDR
 451:.\Generated_Source\PSoC4/Bootloader.c ****                                                                              Bootloader_activeApp))
 452:.\Generated_Source\PSoC4/Bootloader.c ****         }
 453:.\Generated_Source\PSoC4/Bootloader.c ****     }
 454:.\Generated_Source\PSoC4/Bootloader.c **** }
 455:.\Generated_Source\PSoC4/Bootloader.c **** 
 456:.\Generated_Source\PSoC4/Bootloader.c **** 
 457:.\Generated_Source\PSoC4/Bootloader.c **** /* Moves the arguement appAddr (RO) into PC, moving execution to the appAddr */
 458:.\Generated_Source\PSoC4/Bootloader.c **** #if defined (__ARMCC_VERSION)
 459:.\Generated_Source\PSoC4/Bootloader.c **** 
 460:.\Generated_Source\PSoC4/Bootloader.c ****     __asm static void Bootloader_LaunchBootloadable(uint32 appAddr)
 461:.\Generated_Source\PSoC4/Bootloader.c ****     {
 462:.\Generated_Source\PSoC4/Bootloader.c ****         BX  R0
 463:.\Generated_Source\PSoC4/Bootloader.c ****         ALIGN
 464:.\Generated_Source\PSoC4/Bootloader.c ****     }
 465:.\Generated_Source\PSoC4/Bootloader.c **** 
 466:.\Generated_Source\PSoC4/Bootloader.c **** #elif defined(__GNUC__)
 467:.\Generated_Source\PSoC4/Bootloader.c **** 
 468:.\Generated_Source\PSoC4/Bootloader.c ****     __attribute__((noinline)) /* Workaround for GCC toolchain bug with inlining */
 469:.\Generated_Source\PSoC4/Bootloader.c ****     __attribute__((naked))
 470:.\Generated_Source\PSoC4/Bootloader.c ****     static void Bootloader_LaunchBootloadable(uint32 appAddr)
 471:.\Generated_Source\PSoC4/Bootloader.c ****     {
  25              		.loc 1 471 0
  26              		.cfi_startproc
  27              	.LVL0:
 472:.\Generated_Source\PSoC4/Bootloader.c ****         __asm volatile("    BX  R0\n");
  28              		.loc 1 472 0
  29              	@ 472 ".\Generated_Source\PSoC4\Bootloader.c" 1
  30 0000 0047     		    BX  R0
  31              	
  32              	@ 0 "" 2
 473:.\Generated_Source\PSoC4/Bootloader.c ****     }
  33              		.loc 1 473 0
  34              		.code	16
  35              		.cfi_endproc
  36              	.LFE38:
  37              		.size	Bootloader_LaunchBootloadable, .-Bootloader_LaunchBootloadable
  38              		.section	.text.Bootloader_GetMetadata.constprop.2,"ax",%progbits
  39              		.align	1
  40              		.code	16
ARM GAS  C:\Users\vrnk\AppData\Local\Temp\ccnz7Ubz.s 			page 10


  41              		.thumb_func
  42              		.type	Bootloader_GetMetadata.constprop.2, %function
  43              	Bootloader_GetMetadata.constprop.2:
  44              	.LFB44:
 474:.\Generated_Source\PSoC4/Bootloader.c **** 
 475:.\Generated_Source\PSoC4/Bootloader.c **** #elif defined (__ICCARM__)
 476:.\Generated_Source\PSoC4/Bootloader.c **** 
 477:.\Generated_Source\PSoC4/Bootloader.c ****     static void Bootloader_LaunchBootloadable(uint32 appAddr)
 478:.\Generated_Source\PSoC4/Bootloader.c ****     {
 479:.\Generated_Source\PSoC4/Bootloader.c ****         __asm volatile("    BX  R0\n");
 480:.\Generated_Source\PSoC4/Bootloader.c ****     }
 481:.\Generated_Source\PSoC4/Bootloader.c **** 
 482:.\Generated_Source\PSoC4/Bootloader.c **** #endif  /* (__ARMCC_VERSION) */
 483:.\Generated_Source\PSoC4/Bootloader.c **** 
 484:.\Generated_Source\PSoC4/Bootloader.c **** 
 485:.\Generated_Source\PSoC4/Bootloader.c **** /*******************************************************************************
 486:.\Generated_Source\PSoC4/Bootloader.c **** * Function Name: Bootloader_ValidateBootloadable
 487:.\Generated_Source\PSoC4/Bootloader.c **** ********************************************************************************
 488:.\Generated_Source\PSoC4/Bootloader.c **** * Summary:
 489:.\Generated_Source\PSoC4/Bootloader.c **** *  This routine computes the checksum, zero check, 0xFF check of the
 490:.\Generated_Source\PSoC4/Bootloader.c **** *  application area to determine whether a valid application is loaded.
 491:.\Generated_Source\PSoC4/Bootloader.c **** *
 492:.\Generated_Source\PSoC4/Bootloader.c **** * Parameters:
 493:.\Generated_Source\PSoC4/Bootloader.c **** *  appId:
 494:.\Generated_Source\PSoC4/Bootloader.c **** *      The application number to verify
 495:.\Generated_Source\PSoC4/Bootloader.c **** *
 496:.\Generated_Source\PSoC4/Bootloader.c **** * Returns:
 497:.\Generated_Source\PSoC4/Bootloader.c **** *  CYRET_SUCCESS  - if successful
 498:.\Generated_Source\PSoC4/Bootloader.c **** *  CYRET_BAD_DATA - if the bootloadable is corrupt
 499:.\Generated_Source\PSoC4/Bootloader.c **** *
 500:.\Generated_Source\PSoC4/Bootloader.c **** *******************************************************************************/
 501:.\Generated_Source\PSoC4/Bootloader.c **** static cystatus Bootloader_ValidateBootloadable(uint8 appId) CYSMALL \
 502:.\Generated_Source\PSoC4/Bootloader.c **** 
 503:.\Generated_Source\PSoC4/Bootloader.c ****     {
 504:.\Generated_Source\PSoC4/Bootloader.c ****         uint32 CYDATA idx;
 505:.\Generated_Source\PSoC4/Bootloader.c **** 
 506:.\Generated_Source\PSoC4/Bootloader.c ****         uint32 CYDATA end   = Bootloader_FIRST_APP_BYTE(appId) +
 507:.\Generated_Source\PSoC4/Bootloader.c ****                                 Bootloader_GetMetadata(Bootloader_GET_METADATA_BTLDB_LENGTH,
 508:.\Generated_Source\PSoC4/Bootloader.c ****                                                        appId);
 509:.\Generated_Source\PSoC4/Bootloader.c **** 
 510:.\Generated_Source\PSoC4/Bootloader.c ****         CYBIT         valid = 0u; /* Assume bad flash image */
 511:.\Generated_Source\PSoC4/Bootloader.c ****         uint8  CYDATA calcedChecksum = 0u;
 512:.\Generated_Source\PSoC4/Bootloader.c **** 
 513:.\Generated_Source\PSoC4/Bootloader.c **** 
 514:.\Generated_Source\PSoC4/Bootloader.c ****         #if(0u != Bootloader_DUAL_APP_BOOTLOADER)
 515:.\Generated_Source\PSoC4/Bootloader.c **** 
 516:.\Generated_Source\PSoC4/Bootloader.c ****             if(appId > 1u)
 517:.\Generated_Source\PSoC4/Bootloader.c ****             {
 518:.\Generated_Source\PSoC4/Bootloader.c ****                 return(CYRET_BAD_DATA);
 519:.\Generated_Source\PSoC4/Bootloader.c ****             }
 520:.\Generated_Source\PSoC4/Bootloader.c **** 
 521:.\Generated_Source\PSoC4/Bootloader.c ****         #endif  /* (0u != Bootloader_DUAL_APP_BOOTLOADER) */
 522:.\Generated_Source\PSoC4/Bootloader.c **** 
 523:.\Generated_Source\PSoC4/Bootloader.c **** 
 524:.\Generated_Source\PSoC4/Bootloader.c ****         #if(0u != Bootloader_FAST_APP_VALIDATION)
 525:.\Generated_Source\PSoC4/Bootloader.c **** 
 526:.\Generated_Source\PSoC4/Bootloader.c ****             if(Bootloader_MD_BTLDB_VERIFIED_VALUE(appId) == Bootloader_MD_BTLDB_IS_VERIFIED)
ARM GAS  C:\Users\vrnk\AppData\Local\Temp\ccnz7Ubz.s 			page 11


 527:.\Generated_Source\PSoC4/Bootloader.c ****             {
 528:.\Generated_Source\PSoC4/Bootloader.c ****                 return(CYRET_SUCCESS);
 529:.\Generated_Source\PSoC4/Bootloader.c ****             }
 530:.\Generated_Source\PSoC4/Bootloader.c **** 
 531:.\Generated_Source\PSoC4/Bootloader.c ****         #endif  /* (0u != Bootloader_FAST_APP_VALIDATION) */
 532:.\Generated_Source\PSoC4/Bootloader.c **** 
 533:.\Generated_Source\PSoC4/Bootloader.c **** 
 534:.\Generated_Source\PSoC4/Bootloader.c ****         /* Calculate checksum of bootloadable image */
 535:.\Generated_Source\PSoC4/Bootloader.c ****         for(idx = Bootloader_FIRST_APP_BYTE(appId); idx < end; ++idx)
 536:.\Generated_Source\PSoC4/Bootloader.c ****         {
 537:.\Generated_Source\PSoC4/Bootloader.c ****             uint8 CYDATA curByte = Bootloader_GET_CODE_BYTE(idx);
 538:.\Generated_Source\PSoC4/Bootloader.c **** 
 539:.\Generated_Source\PSoC4/Bootloader.c ****             if((curByte != 0u) && (curByte != 0xFFu))
 540:.\Generated_Source\PSoC4/Bootloader.c ****             {
 541:.\Generated_Source\PSoC4/Bootloader.c ****                 valid = 1u;
 542:.\Generated_Source\PSoC4/Bootloader.c ****             }
 543:.\Generated_Source\PSoC4/Bootloader.c **** 
 544:.\Generated_Source\PSoC4/Bootloader.c ****             calcedChecksum += curByte;
 545:.\Generated_Source\PSoC4/Bootloader.c ****         }
 546:.\Generated_Source\PSoC4/Bootloader.c **** 
 547:.\Generated_Source\PSoC4/Bootloader.c **** 
 548:.\Generated_Source\PSoC4/Bootloader.c ****         /***************************************************************************
 549:.\Generated_Source\PSoC4/Bootloader.c ****         * We do not compute checksum over the meta data section, so no need to
 550:.\Generated_Source\PSoC4/Bootloader.c ****         * subtract off App Verified or App Active information here like we do when
 551:.\Generated_Source\PSoC4/Bootloader.c ****         * verifying a row.
 552:.\Generated_Source\PSoC4/Bootloader.c ****         ***************************************************************************/
 553:.\Generated_Source\PSoC4/Bootloader.c **** 
 554:.\Generated_Source\PSoC4/Bootloader.c **** 
 555:.\Generated_Source\PSoC4/Bootloader.c ****         #if((!CY_PSOC4) && (CYDEV_ECC_ENABLE == 0u))
 556:.\Generated_Source\PSoC4/Bootloader.c **** 
 557:.\Generated_Source\PSoC4/Bootloader.c ****             /* Add ECC data to checksum */
 558:.\Generated_Source\PSoC4/Bootloader.c ****             idx = ((Bootloader_FIRST_APP_BYTE(appId)) >> 3u);
 559:.\Generated_Source\PSoC4/Bootloader.c **** 
 560:.\Generated_Source\PSoC4/Bootloader.c ****             /* Flash may run into meta data, ECC does not so use full row */
 561:.\Generated_Source\PSoC4/Bootloader.c ****             end = (end == (CY_FLASH_SIZE - Bootloader_MD_SIZEOF))
 562:.\Generated_Source\PSoC4/Bootloader.c ****                 ? (CY_FLASH_SIZE >> 3u)
 563:.\Generated_Source\PSoC4/Bootloader.c ****                 : (end >> 3u);
 564:.\Generated_Source\PSoC4/Bootloader.c **** 
 565:.\Generated_Source\PSoC4/Bootloader.c ****             for (; idx < end; ++idx)
 566:.\Generated_Source\PSoC4/Bootloader.c ****             {
 567:.\Generated_Source\PSoC4/Bootloader.c ****                 calcedChecksum += CY_GET_XTND_REG8((volatile uint8 *)(CYDEV_ECC_BASE + idx));
 568:.\Generated_Source\PSoC4/Bootloader.c ****             }
 569:.\Generated_Source\PSoC4/Bootloader.c **** 
 570:.\Generated_Source\PSoC4/Bootloader.c ****         #endif  /* ((!CY_PSOC4) && (CYDEV_ECC_ENABLE == 0u)) */
 571:.\Generated_Source\PSoC4/Bootloader.c **** 
 572:.\Generated_Source\PSoC4/Bootloader.c **** 
 573:.\Generated_Source\PSoC4/Bootloader.c ****         calcedChecksum = ( uint8 )1u + ( uint8 )(~calcedChecksum);
 574:.\Generated_Source\PSoC4/Bootloader.c **** 
 575:.\Generated_Source\PSoC4/Bootloader.c ****         if((calcedChecksum != Bootloader_MD_BTLDB_CHECKSUM_VALUE(appId)) ||
 576:.\Generated_Source\PSoC4/Bootloader.c ****            (0u == valid))
 577:.\Generated_Source\PSoC4/Bootloader.c ****         {
 578:.\Generated_Source\PSoC4/Bootloader.c ****             return(CYRET_BAD_DATA);
 579:.\Generated_Source\PSoC4/Bootloader.c ****         }
 580:.\Generated_Source\PSoC4/Bootloader.c **** 
 581:.\Generated_Source\PSoC4/Bootloader.c **** 
 582:.\Generated_Source\PSoC4/Bootloader.c ****         #if(0u != Bootloader_FAST_APP_VALIDATION)
 583:.\Generated_Source\PSoC4/Bootloader.c ****             Bootloader_SetFlashByte((uint32) Bootloader_MD_BTLDB_VERIFIED_OFFSET(appId),
ARM GAS  C:\Users\vrnk\AppData\Local\Temp\ccnz7Ubz.s 			page 12


 584:.\Generated_Source\PSoC4/Bootloader.c ****                                           Bootloader_MD_BTLDB_IS_VERIFIED);
 585:.\Generated_Source\PSoC4/Bootloader.c ****         #endif  /* (0u != Bootloader_FAST_APP_VALIDATION) */
 586:.\Generated_Source\PSoC4/Bootloader.c **** 
 587:.\Generated_Source\PSoC4/Bootloader.c **** 
 588:.\Generated_Source\PSoC4/Bootloader.c ****         return(CYRET_SUCCESS);
 589:.\Generated_Source\PSoC4/Bootloader.c **** }
 590:.\Generated_Source\PSoC4/Bootloader.c **** 
 591:.\Generated_Source\PSoC4/Bootloader.c **** 
 592:.\Generated_Source\PSoC4/Bootloader.c **** /*******************************************************************************
 593:.\Generated_Source\PSoC4/Bootloader.c **** * Function Name: Bootloader_HostLink
 594:.\Generated_Source\PSoC4/Bootloader.c **** ********************************************************************************
 595:.\Generated_Source\PSoC4/Bootloader.c **** *
 596:.\Generated_Source\PSoC4/Bootloader.c **** * Summary:
 597:.\Generated_Source\PSoC4/Bootloader.c **** *  Causes the bootloader to attempt to read data being transmitted by the
 598:.\Generated_Source\PSoC4/Bootloader.c **** *  host application.  If data is sent from the host, this establishes the
 599:.\Generated_Source\PSoC4/Bootloader.c **** *  communication interface to process all requests.
 600:.\Generated_Source\PSoC4/Bootloader.c **** *
 601:.\Generated_Source\PSoC4/Bootloader.c **** * Parameters:
 602:.\Generated_Source\PSoC4/Bootloader.c **** *  timeOut:
 603:.\Generated_Source\PSoC4/Bootloader.c **** *   The amount of time to listen for data before giving up. Timeout is
 604:.\Generated_Source\PSoC4/Bootloader.c **** *   measured in 10s of ms.  Use 0 for infinite wait.
 605:.\Generated_Source\PSoC4/Bootloader.c **** *
 606:.\Generated_Source\PSoC4/Bootloader.c **** * Return:
 607:.\Generated_Source\PSoC4/Bootloader.c **** *   None
 608:.\Generated_Source\PSoC4/Bootloader.c **** *
 609:.\Generated_Source\PSoC4/Bootloader.c **** *******************************************************************************/
 610:.\Generated_Source\PSoC4/Bootloader.c **** static void Bootloader_HostLink(uint8 timeOut) 
 611:.\Generated_Source\PSoC4/Bootloader.c **** {
 612:.\Generated_Source\PSoC4/Bootloader.c ****     uint16    CYDATA numberRead;
 613:.\Generated_Source\PSoC4/Bootloader.c ****     uint16    CYDATA rspSize;
 614:.\Generated_Source\PSoC4/Bootloader.c ****     uint8     CYDATA ackCode;
 615:.\Generated_Source\PSoC4/Bootloader.c ****     uint16    CYDATA pktChecksum;
 616:.\Generated_Source\PSoC4/Bootloader.c ****     cystatus  CYDATA readStat;
 617:.\Generated_Source\PSoC4/Bootloader.c ****     uint16    CYDATA pktSize    = 0u;
 618:.\Generated_Source\PSoC4/Bootloader.c ****     uint16    CYDATA dataOffset = 0u;
 619:.\Generated_Source\PSoC4/Bootloader.c ****     uint8     CYDATA timeOutCnt = 10u;
 620:.\Generated_Source\PSoC4/Bootloader.c **** 
 621:.\Generated_Source\PSoC4/Bootloader.c ****     #if(0u == Bootloader_DUAL_APP_BOOTLOADER)
 622:.\Generated_Source\PSoC4/Bootloader.c ****         uint8 CYDATA clearedMetaData = 0u;
 623:.\Generated_Source\PSoC4/Bootloader.c ****     #endif  /* (0u == Bootloader_DUAL_APP_BOOTLOADER) */
 624:.\Generated_Source\PSoC4/Bootloader.c **** 
 625:.\Generated_Source\PSoC4/Bootloader.c ****     CYBIT     communicationState = Bootloader_COMMUNICATION_STATE_IDLE;
 626:.\Generated_Source\PSoC4/Bootloader.c **** 
 627:.\Generated_Source\PSoC4/Bootloader.c ****     uint8     packetBuffer[Bootloader_SIZEOF_COMMAND_BUFFER];
 628:.\Generated_Source\PSoC4/Bootloader.c ****     uint8     dataBuffer  [Bootloader_SIZEOF_COMMAND_BUFFER];
 629:.\Generated_Source\PSoC4/Bootloader.c **** 
 630:.\Generated_Source\PSoC4/Bootloader.c **** 
 631:.\Generated_Source\PSoC4/Bootloader.c ****     /* Initialize communications channel. */
 632:.\Generated_Source\PSoC4/Bootloader.c ****     CyBtldrCommStart();
 633:.\Generated_Source\PSoC4/Bootloader.c **** 
 634:.\Generated_Source\PSoC4/Bootloader.c ****     /* Enable global interrupts */
 635:.\Generated_Source\PSoC4/Bootloader.c ****     CyGlobalIntEnable;
 636:.\Generated_Source\PSoC4/Bootloader.c **** 
 637:.\Generated_Source\PSoC4/Bootloader.c ****     do
 638:.\Generated_Source\PSoC4/Bootloader.c ****     {
 639:.\Generated_Source\PSoC4/Bootloader.c ****         ackCode = CYRET_SUCCESS;
 640:.\Generated_Source\PSoC4/Bootloader.c **** 
ARM GAS  C:\Users\vrnk\AppData\Local\Temp\ccnz7Ubz.s 			page 13


 641:.\Generated_Source\PSoC4/Bootloader.c ****         do
 642:.\Generated_Source\PSoC4/Bootloader.c ****         {
 643:.\Generated_Source\PSoC4/Bootloader.c ****             readStat = CyBtldrCommRead(packetBuffer,
 644:.\Generated_Source\PSoC4/Bootloader.c ****                                         Bootloader_SIZEOF_COMMAND_BUFFER,
 645:.\Generated_Source\PSoC4/Bootloader.c ****                                         &numberRead,
 646:.\Generated_Source\PSoC4/Bootloader.c ****                                         (0u == timeOut) ? 0xFFu : timeOut);
 647:.\Generated_Source\PSoC4/Bootloader.c ****             if (0u != timeOut)
 648:.\Generated_Source\PSoC4/Bootloader.c ****             {
 649:.\Generated_Source\PSoC4/Bootloader.c ****                 timeOutCnt--;
 650:.\Generated_Source\PSoC4/Bootloader.c ****             }
 651:.\Generated_Source\PSoC4/Bootloader.c **** 
 652:.\Generated_Source\PSoC4/Bootloader.c ****         } while ( (0u != timeOutCnt) && (readStat != CYRET_SUCCESS) );
 653:.\Generated_Source\PSoC4/Bootloader.c **** 
 654:.\Generated_Source\PSoC4/Bootloader.c **** 
 655:.\Generated_Source\PSoC4/Bootloader.c ****         if( readStat != CYRET_SUCCESS )
 656:.\Generated_Source\PSoC4/Bootloader.c ****         {
 657:.\Generated_Source\PSoC4/Bootloader.c ****             continue;
 658:.\Generated_Source\PSoC4/Bootloader.c ****         }
 659:.\Generated_Source\PSoC4/Bootloader.c **** 
 660:.\Generated_Source\PSoC4/Bootloader.c ****         if((numberRead < Bootloader_MIN_PKT_SIZE) ||
 661:.\Generated_Source\PSoC4/Bootloader.c ****            (packetBuffer[Bootloader_SOP_ADDR] != Bootloader_SOP))
 662:.\Generated_Source\PSoC4/Bootloader.c ****         {
 663:.\Generated_Source\PSoC4/Bootloader.c ****             ackCode = Bootloader_ERR_DATA;
 664:.\Generated_Source\PSoC4/Bootloader.c ****         }
 665:.\Generated_Source\PSoC4/Bootloader.c ****         else
 666:.\Generated_Source\PSoC4/Bootloader.c ****         {
 667:.\Generated_Source\PSoC4/Bootloader.c ****             pktSize = ((uint16)((uint16)packetBuffer[Bootloader_SIZE_ADDR + 1u] << 8u)) |
 668:.\Generated_Source\PSoC4/Bootloader.c ****                                packetBuffer[Bootloader_SIZE_ADDR];
 669:.\Generated_Source\PSoC4/Bootloader.c **** 
 670:.\Generated_Source\PSoC4/Bootloader.c ****             pktChecksum = ((uint16)((uint16)packetBuffer[Bootloader_CHK_ADDR(pktSize) + 1u] << 8u))
 671:.\Generated_Source\PSoC4/Bootloader.c ****                                    packetBuffer[Bootloader_CHK_ADDR(pktSize)];
 672:.\Generated_Source\PSoC4/Bootloader.c **** 
 673:.\Generated_Source\PSoC4/Bootloader.c ****             if((pktSize + Bootloader_MIN_PKT_SIZE) > numberRead)
 674:.\Generated_Source\PSoC4/Bootloader.c ****             {
 675:.\Generated_Source\PSoC4/Bootloader.c ****                 ackCode = Bootloader_ERR_LENGTH;
 676:.\Generated_Source\PSoC4/Bootloader.c ****             }
 677:.\Generated_Source\PSoC4/Bootloader.c ****             else if(packetBuffer[Bootloader_EOP_ADDR(pktSize)] != Bootloader_EOP)
 678:.\Generated_Source\PSoC4/Bootloader.c ****             {
 679:.\Generated_Source\PSoC4/Bootloader.c ****                 ackCode = Bootloader_ERR_DATA;
 680:.\Generated_Source\PSoC4/Bootloader.c ****             }
 681:.\Generated_Source\PSoC4/Bootloader.c ****             else if(pktChecksum != Bootloader_CalcPacketChecksum(packetBuffer,
 682:.\Generated_Source\PSoC4/Bootloader.c ****                                                                         pktSize + Bootloader_DATA_A
 683:.\Generated_Source\PSoC4/Bootloader.c ****             {
 684:.\Generated_Source\PSoC4/Bootloader.c ****                 ackCode = Bootloader_ERR_CHECKSUM;
 685:.\Generated_Source\PSoC4/Bootloader.c ****             }
 686:.\Generated_Source\PSoC4/Bootloader.c ****             else
 687:.\Generated_Source\PSoC4/Bootloader.c ****             {
 688:.\Generated_Source\PSoC4/Bootloader.c ****                 /* Empty section */
 689:.\Generated_Source\PSoC4/Bootloader.c ****             }
 690:.\Generated_Source\PSoC4/Bootloader.c ****         }
 691:.\Generated_Source\PSoC4/Bootloader.c **** 
 692:.\Generated_Source\PSoC4/Bootloader.c ****         rspSize = 0u;
 693:.\Generated_Source\PSoC4/Bootloader.c ****         if(ackCode == CYRET_SUCCESS)
 694:.\Generated_Source\PSoC4/Bootloader.c ****         {
 695:.\Generated_Source\PSoC4/Bootloader.c ****             uint8 CYDATA btldrData = packetBuffer[Bootloader_DATA_ADDR];
 696:.\Generated_Source\PSoC4/Bootloader.c **** 
 697:.\Generated_Source\PSoC4/Bootloader.c ****             ackCode = Bootloader_ERR_DATA;
ARM GAS  C:\Users\vrnk\AppData\Local\Temp\ccnz7Ubz.s 			page 14


 698:.\Generated_Source\PSoC4/Bootloader.c ****             switch(packetBuffer[Bootloader_CMD_ADDR])
 699:.\Generated_Source\PSoC4/Bootloader.c ****             {
 700:.\Generated_Source\PSoC4/Bootloader.c **** 
 701:.\Generated_Source\PSoC4/Bootloader.c **** 
 702:.\Generated_Source\PSoC4/Bootloader.c ****             /***************************************************************************
 703:.\Generated_Source\PSoC4/Bootloader.c ****             *   Get metadata
 704:.\Generated_Source\PSoC4/Bootloader.c ****             ***************************************************************************/
 705:.\Generated_Source\PSoC4/Bootloader.c ****             #if(0u != Bootloader_CMD_GET_METADATA)
 706:.\Generated_Source\PSoC4/Bootloader.c **** 
 707:.\Generated_Source\PSoC4/Bootloader.c ****                 case Bootloader_COMMAND_GET_METADATA:
 708:.\Generated_Source\PSoC4/Bootloader.c **** 
 709:.\Generated_Source\PSoC4/Bootloader.c ****                     if((Bootloader_COMMUNICATION_STATE_ACTIVE == communicationState) && (pktSize ==
 710:.\Generated_Source\PSoC4/Bootloader.c ****                     {
 711:.\Generated_Source\PSoC4/Bootloader.c ****                         if (btldrData >= Bootloader_MAX_NUM_OF_BTLDB)
 712:.\Generated_Source\PSoC4/Bootloader.c ****                         {
 713:.\Generated_Source\PSoC4/Bootloader.c ****                             ackCode = Bootloader_ERR_APP;
 714:.\Generated_Source\PSoC4/Bootloader.c ****                         }
 715:.\Generated_Source\PSoC4/Bootloader.c ****                         else if(CYRET_SUCCESS == Bootloader_ValidateBootloadable(btldrData))
 716:.\Generated_Source\PSoC4/Bootloader.c ****                         {
 717:.\Generated_Source\PSoC4/Bootloader.c ****                             #if(CY_PSOC3)
 718:.\Generated_Source\PSoC4/Bootloader.c ****                                 (void) memcpy(&packetBuffer[Bootloader_DATA_ADDR],
 719:.\Generated_Source\PSoC4/Bootloader.c ****                                             ((uint8  CYCODE *) (Bootloader_META_BASE(btldrData))), 
 720:.\Generated_Source\PSoC4/Bootloader.c ****                             #else
 721:.\Generated_Source\PSoC4/Bootloader.c ****                                 (void) memcpy(&packetBuffer[Bootloader_DATA_ADDR],
 722:.\Generated_Source\PSoC4/Bootloader.c ****                                             (uint8 *) Bootloader_META_BASE(btldrData), 56u);
 723:.\Generated_Source\PSoC4/Bootloader.c ****                             #endif  /* (CY_PSOC3) */
 724:.\Generated_Source\PSoC4/Bootloader.c **** 
 725:.\Generated_Source\PSoC4/Bootloader.c ****                             rspSize = 56u;
 726:.\Generated_Source\PSoC4/Bootloader.c ****                             ackCode = CYRET_SUCCESS;
 727:.\Generated_Source\PSoC4/Bootloader.c ****                         }
 728:.\Generated_Source\PSoC4/Bootloader.c ****                         else
 729:.\Generated_Source\PSoC4/Bootloader.c ****                         {
 730:.\Generated_Source\PSoC4/Bootloader.c ****                             ackCode = Bootloader_ERR_APP;
 731:.\Generated_Source\PSoC4/Bootloader.c ****                         }
 732:.\Generated_Source\PSoC4/Bootloader.c ****                     }
 733:.\Generated_Source\PSoC4/Bootloader.c ****                     break;
 734:.\Generated_Source\PSoC4/Bootloader.c **** 
 735:.\Generated_Source\PSoC4/Bootloader.c ****             #endif  /* (0u != Bootloader_CMD_GET_METADATA) */
 736:.\Generated_Source\PSoC4/Bootloader.c **** 
 737:.\Generated_Source\PSoC4/Bootloader.c **** 
 738:.\Generated_Source\PSoC4/Bootloader.c ****             /***************************************************************************
 739:.\Generated_Source\PSoC4/Bootloader.c ****             *   Verify checksum
 740:.\Generated_Source\PSoC4/Bootloader.c ****             ***************************************************************************/
 741:.\Generated_Source\PSoC4/Bootloader.c ****             case Bootloader_COMMAND_CHECKSUM:
 742:.\Generated_Source\PSoC4/Bootloader.c **** 
 743:.\Generated_Source\PSoC4/Bootloader.c ****                 if((Bootloader_COMMUNICATION_STATE_ACTIVE == communicationState) && (pktSize == 0u)
 744:.\Generated_Source\PSoC4/Bootloader.c ****                 {
 745:.\Generated_Source\PSoC4/Bootloader.c ****                     packetBuffer[Bootloader_DATA_ADDR] =
 746:.\Generated_Source\PSoC4/Bootloader.c ****                             (uint8)(Bootloader_ValidateBootloadable(Bootloader_activeApp) == CYRET_
 747:.\Generated_Source\PSoC4/Bootloader.c **** 
 748:.\Generated_Source\PSoC4/Bootloader.c ****                     rspSize = 1u;
 749:.\Generated_Source\PSoC4/Bootloader.c ****                     ackCode = CYRET_SUCCESS;
 750:.\Generated_Source\PSoC4/Bootloader.c ****                 }
 751:.\Generated_Source\PSoC4/Bootloader.c ****                 break;
 752:.\Generated_Source\PSoC4/Bootloader.c **** 
 753:.\Generated_Source\PSoC4/Bootloader.c **** 
 754:.\Generated_Source\PSoC4/Bootloader.c ****             /***************************************************************************
ARM GAS  C:\Users\vrnk\AppData\Local\Temp\ccnz7Ubz.s 			page 15


 755:.\Generated_Source\PSoC4/Bootloader.c ****             *   Get flash size
 756:.\Generated_Source\PSoC4/Bootloader.c ****             ***************************************************************************/
 757:.\Generated_Source\PSoC4/Bootloader.c ****             #if(0u != Bootloader_CMD_GET_FLASH_SIZE_AVAIL)
 758:.\Generated_Source\PSoC4/Bootloader.c **** 
 759:.\Generated_Source\PSoC4/Bootloader.c ****                 case Bootloader_COMMAND_REPORT_SIZE:
 760:.\Generated_Source\PSoC4/Bootloader.c **** 
 761:.\Generated_Source\PSoC4/Bootloader.c ****                     if((Bootloader_COMMUNICATION_STATE_ACTIVE == communicationState) && (pktSize ==
 762:.\Generated_Source\PSoC4/Bootloader.c ****                     {
 763:.\Generated_Source\PSoC4/Bootloader.c ****                         /* btldrData holds flash array ID sent by host */
 764:.\Generated_Source\PSoC4/Bootloader.c ****                         if(btldrData < Bootloader_NUM_OF_FLASH_ARRAYS)
 765:.\Generated_Source\PSoC4/Bootloader.c ****                         {
 766:.\Generated_Source\PSoC4/Bootloader.c ****                             #if (1u == Bootloader_NUM_OF_FLASH_ARRAYS)
 767:.\Generated_Source\PSoC4/Bootloader.c ****                                 uint16 CYDATA startRow = (uint16)*Bootloader_SizeBytesAccess / CYDE
 768:.\Generated_Source\PSoC4/Bootloader.c ****                             #else
 769:.\Generated_Source\PSoC4/Bootloader.c ****                                 uint16 CYDATA startRow = 0u;
 770:.\Generated_Source\PSoC4/Bootloader.c ****                             #endif  /* (1u == Bootloader_NUM_OF_FLASH_ARRAYS) */
 771:.\Generated_Source\PSoC4/Bootloader.c **** 
 772:.\Generated_Source\PSoC4/Bootloader.c ****                             packetBuffer[Bootloader_DATA_ADDR]      = LO8(startRow);
 773:.\Generated_Source\PSoC4/Bootloader.c ****                             packetBuffer[Bootloader_DATA_ADDR + 1u] = HI8(startRow);
 774:.\Generated_Source\PSoC4/Bootloader.c ****                             packetBuffer[Bootloader_DATA_ADDR + 2u] = LO8(CY_FLASH_NUMBER_ROWS - 1u
 775:.\Generated_Source\PSoC4/Bootloader.c ****                             packetBuffer[Bootloader_DATA_ADDR + 3u] = HI8(CY_FLASH_NUMBER_ROWS - 1u
 776:.\Generated_Source\PSoC4/Bootloader.c **** 
 777:.\Generated_Source\PSoC4/Bootloader.c ****                             rspSize = 4u;
 778:.\Generated_Source\PSoC4/Bootloader.c ****                             ackCode = CYRET_SUCCESS;
 779:.\Generated_Source\PSoC4/Bootloader.c ****                         }
 780:.\Generated_Source\PSoC4/Bootloader.c **** 
 781:.\Generated_Source\PSoC4/Bootloader.c ****                     }
 782:.\Generated_Source\PSoC4/Bootloader.c ****                     break;
 783:.\Generated_Source\PSoC4/Bootloader.c **** 
 784:.\Generated_Source\PSoC4/Bootloader.c ****             #endif  /* (0u != Bootloader_CMD_GET_FLASH_SIZE_AVAIL) */
 785:.\Generated_Source\PSoC4/Bootloader.c **** 
 786:.\Generated_Source\PSoC4/Bootloader.c **** 
 787:.\Generated_Source\PSoC4/Bootloader.c ****             /***************************************************************************
 788:.\Generated_Source\PSoC4/Bootloader.c ****             *   Get application status
 789:.\Generated_Source\PSoC4/Bootloader.c ****             ***************************************************************************/
 790:.\Generated_Source\PSoC4/Bootloader.c ****             #if(0u != Bootloader_DUAL_APP_BOOTLOADER)
 791:.\Generated_Source\PSoC4/Bootloader.c **** 
 792:.\Generated_Source\PSoC4/Bootloader.c ****                 #if(0u != Bootloader_CMD_GET_APP_STATUS_AVAIL)
 793:.\Generated_Source\PSoC4/Bootloader.c **** 
 794:.\Generated_Source\PSoC4/Bootloader.c ****                     case Bootloader_COMMAND_APP_STATUS:
 795:.\Generated_Source\PSoC4/Bootloader.c **** 
 796:.\Generated_Source\PSoC4/Bootloader.c ****                         if((Bootloader_COMMUNICATION_STATE_ACTIVE == communicationState) && (pktSiz
 797:.\Generated_Source\PSoC4/Bootloader.c ****                         {
 798:.\Generated_Source\PSoC4/Bootloader.c **** 
 799:.\Generated_Source\PSoC4/Bootloader.c ****                             packetBuffer[Bootloader_DATA_ADDR] =
 800:.\Generated_Source\PSoC4/Bootloader.c ****                                 (uint8)Bootloader_ValidateBootloadable(btldrData);
 801:.\Generated_Source\PSoC4/Bootloader.c **** 
 802:.\Generated_Source\PSoC4/Bootloader.c ****                             packetBuffer[Bootloader_DATA_ADDR + 1u] =
 803:.\Generated_Source\PSoC4/Bootloader.c ****                                 (uint8)Bootloader_MD_BTLDB_ACTIVE_VALUE(btldrData);
 804:.\Generated_Source\PSoC4/Bootloader.c **** 
 805:.\Generated_Source\PSoC4/Bootloader.c ****                             rspSize = 2u;
 806:.\Generated_Source\PSoC4/Bootloader.c ****                             ackCode = CYRET_SUCCESS;
 807:.\Generated_Source\PSoC4/Bootloader.c ****                         }
 808:.\Generated_Source\PSoC4/Bootloader.c ****                         break;
 809:.\Generated_Source\PSoC4/Bootloader.c **** 
 810:.\Generated_Source\PSoC4/Bootloader.c ****                 #endif  /* (0u != Bootloader_CMD_GET_APP_STATUS_AVAIL) */
 811:.\Generated_Source\PSoC4/Bootloader.c **** 
ARM GAS  C:\Users\vrnk\AppData\Local\Temp\ccnz7Ubz.s 			page 16


 812:.\Generated_Source\PSoC4/Bootloader.c ****             #endif  /* (0u != Bootloader_DUAL_APP_BOOTLOADER) */
 813:.\Generated_Source\PSoC4/Bootloader.c **** 
 814:.\Generated_Source\PSoC4/Bootloader.c **** 
 815:.\Generated_Source\PSoC4/Bootloader.c ****             /***************************************************************************
 816:.\Generated_Source\PSoC4/Bootloader.c ****             *   Program / Erase row
 817:.\Generated_Source\PSoC4/Bootloader.c ****             ***************************************************************************/
 818:.\Generated_Source\PSoC4/Bootloader.c ****             case Bootloader_COMMAND_PROGRAM:
 819:.\Generated_Source\PSoC4/Bootloader.c **** 
 820:.\Generated_Source\PSoC4/Bootloader.c ****             /* The btldrData variable holds Flash Array ID */
 821:.\Generated_Source\PSoC4/Bootloader.c **** 
 822:.\Generated_Source\PSoC4/Bootloader.c ****         #if (0u != Bootloader_CMD_ERASE_ROW_AVAIL)
 823:.\Generated_Source\PSoC4/Bootloader.c **** 
 824:.\Generated_Source\PSoC4/Bootloader.c ****             case Bootloader_COMMAND_ERASE:
 825:.\Generated_Source\PSoC4/Bootloader.c ****                 if (Bootloader_COMMAND_ERASE == packetBuffer[Bootloader_CMD_ADDR])
 826:.\Generated_Source\PSoC4/Bootloader.c ****                 {
 827:.\Generated_Source\PSoC4/Bootloader.c ****                     if ((Bootloader_COMMUNICATION_STATE_ACTIVE == communicationState) && (pktSize =
 828:.\Generated_Source\PSoC4/Bootloader.c ****                     {
 829:.\Generated_Source\PSoC4/Bootloader.c ****                         #if(!CY_PSOC4)
 830:.\Generated_Source\PSoC4/Bootloader.c ****                             if((btldrData >= Bootloader_FIRST_EE_ARRAYID) &&
 831:.\Generated_Source\PSoC4/Bootloader.c ****                                (btldrData <= Bootloader_LAST_EE_ARRAYID))
 832:.\Generated_Source\PSoC4/Bootloader.c ****                             {
 833:.\Generated_Source\PSoC4/Bootloader.c ****                                 /* Size of EEPROM row */
 834:.\Generated_Source\PSoC4/Bootloader.c ****                                 dataOffset = CY_EEPROM_SIZEOF_ROW;
 835:.\Generated_Source\PSoC4/Bootloader.c ****                             }
 836:.\Generated_Source\PSoC4/Bootloader.c ****                             else
 837:.\Generated_Source\PSoC4/Bootloader.c ****                             {
 838:.\Generated_Source\PSoC4/Bootloader.c ****                                 /* Size of FLASH row (depends on ECC configuration) */
 839:.\Generated_Source\PSoC4/Bootloader.c ****                                 dataOffset = Bootloader_FROW_SIZE;
 840:.\Generated_Source\PSoC4/Bootloader.c ****                             }
 841:.\Generated_Source\PSoC4/Bootloader.c ****                         #else
 842:.\Generated_Source\PSoC4/Bootloader.c ****                             /* Size of FLASH row (no ECC available) */
 843:.\Generated_Source\PSoC4/Bootloader.c ****                             dataOffset = Bootloader_FROW_SIZE;
 844:.\Generated_Source\PSoC4/Bootloader.c ****                         #endif  /* (!CY_PSOC4) */
 845:.\Generated_Source\PSoC4/Bootloader.c **** 
 846:.\Generated_Source\PSoC4/Bootloader.c ****                         #if(CY_PSOC3)
 847:.\Generated_Source\PSoC4/Bootloader.c ****                             (void) memset(dataBuffer, (char8) 0, (int16) dataOffset);
 848:.\Generated_Source\PSoC4/Bootloader.c ****                         #else
 849:.\Generated_Source\PSoC4/Bootloader.c ****                             (void) memset(dataBuffer, 0, dataOffset);
 850:.\Generated_Source\PSoC4/Bootloader.c ****                         #endif  /* (CY_PSOC3) */
 851:.\Generated_Source\PSoC4/Bootloader.c ****                     }
 852:.\Generated_Source\PSoC4/Bootloader.c ****                     else
 853:.\Generated_Source\PSoC4/Bootloader.c ****                     {
 854:.\Generated_Source\PSoC4/Bootloader.c ****                         break;
 855:.\Generated_Source\PSoC4/Bootloader.c ****                     }
 856:.\Generated_Source\PSoC4/Bootloader.c ****                 }
 857:.\Generated_Source\PSoC4/Bootloader.c **** 
 858:.\Generated_Source\PSoC4/Bootloader.c ****         #endif  /* (0u != Bootloader_CMD_ERASE_ROW_AVAIL) */
 859:.\Generated_Source\PSoC4/Bootloader.c **** 
 860:.\Generated_Source\PSoC4/Bootloader.c **** 
 861:.\Generated_Source\PSoC4/Bootloader.c ****                 if((Bootloader_COMMUNICATION_STATE_ACTIVE == communicationState) && (pktSize >= 3u)
 862:.\Generated_Source\PSoC4/Bootloader.c ****                 {
 863:.\Generated_Source\PSoC4/Bootloader.c **** 
 864:.\Generated_Source\PSoC4/Bootloader.c ****                     /* The command may be sent along with the last block of data, to program the ro
 865:.\Generated_Source\PSoC4/Bootloader.c ****                     #if(CY_PSOC3)
 866:.\Generated_Source\PSoC4/Bootloader.c ****                         (void) memcpy(&dataBuffer[dataOffset],
 867:.\Generated_Source\PSoC4/Bootloader.c ****                                       &packetBuffer[Bootloader_DATA_ADDR + 3u],
 868:.\Generated_Source\PSoC4/Bootloader.c ****                                       ( int16 )pktSize - 3);
ARM GAS  C:\Users\vrnk\AppData\Local\Temp\ccnz7Ubz.s 			page 17


 869:.\Generated_Source\PSoC4/Bootloader.c ****                     #else
 870:.\Generated_Source\PSoC4/Bootloader.c ****                         (void) memcpy(&dataBuffer[dataOffset],
 871:.\Generated_Source\PSoC4/Bootloader.c ****                                       &packetBuffer[Bootloader_DATA_ADDR + 3u],
 872:.\Generated_Source\PSoC4/Bootloader.c ****                                       pktSize - 3u);
 873:.\Generated_Source\PSoC4/Bootloader.c ****                     #endif  /* (CY_PSOC3) */
 874:.\Generated_Source\PSoC4/Bootloader.c **** 
 875:.\Generated_Source\PSoC4/Bootloader.c ****                     dataOffset += (pktSize - 3u);
 876:.\Generated_Source\PSoC4/Bootloader.c **** 
 877:.\Generated_Source\PSoC4/Bootloader.c ****                     #if(!CY_PSOC4)
 878:.\Generated_Source\PSoC4/Bootloader.c ****                         if((btldrData >= Bootloader_FIRST_EE_ARRAYID) &&
 879:.\Generated_Source\PSoC4/Bootloader.c ****                            (btldrData <= Bootloader_LAST_EE_ARRAYID))
 880:.\Generated_Source\PSoC4/Bootloader.c ****                         {
 881:.\Generated_Source\PSoC4/Bootloader.c **** 
 882:.\Generated_Source\PSoC4/Bootloader.c ****                             CyEEPROM_Start();
 883:.\Generated_Source\PSoC4/Bootloader.c **** 
 884:.\Generated_Source\PSoC4/Bootloader.c ****                             /* Size of EEPROM row */
 885:.\Generated_Source\PSoC4/Bootloader.c ****                             pktSize = CY_EEPROM_SIZEOF_ROW;
 886:.\Generated_Source\PSoC4/Bootloader.c ****                         }
 887:.\Generated_Source\PSoC4/Bootloader.c ****                         else
 888:.\Generated_Source\PSoC4/Bootloader.c ****                         {
 889:.\Generated_Source\PSoC4/Bootloader.c ****                             /* Size of FLASH row (depends on ECC configuration) */
 890:.\Generated_Source\PSoC4/Bootloader.c ****                             pktSize = Bootloader_FROW_SIZE;
 891:.\Generated_Source\PSoC4/Bootloader.c ****                         }
 892:.\Generated_Source\PSoC4/Bootloader.c ****                     #else
 893:.\Generated_Source\PSoC4/Bootloader.c ****                         /* Size of FLASH row (no ECC available) */
 894:.\Generated_Source\PSoC4/Bootloader.c ****                         pktSize = Bootloader_FROW_SIZE;
 895:.\Generated_Source\PSoC4/Bootloader.c ****                     #endif  /* (!CY_PSOC4) */
 896:.\Generated_Source\PSoC4/Bootloader.c **** 
 897:.\Generated_Source\PSoC4/Bootloader.c **** 
 898:.\Generated_Source\PSoC4/Bootloader.c ****                     /* Check if we have all data to program */
 899:.\Generated_Source\PSoC4/Bootloader.c ****                     if(dataOffset == pktSize)
 900:.\Generated_Source\PSoC4/Bootloader.c ****                     {
 901:.\Generated_Source\PSoC4/Bootloader.c ****                         /* Get FLASH/EEPROM row number */
 902:.\Generated_Source\PSoC4/Bootloader.c ****                         dataOffset = ((uint16)((uint16)packetBuffer[Bootloader_DATA_ADDR + 2u] << 8
 903:.\Generated_Source\PSoC4/Bootloader.c ****                                               packetBuffer[Bootloader_DATA_ADDR + 1u];
 904:.\Generated_Source\PSoC4/Bootloader.c **** 
 905:.\Generated_Source\PSoC4/Bootloader.c ****                         #if(!CY_PSOC4)
 906:.\Generated_Source\PSoC4/Bootloader.c ****                             if(btldrData <= Bootloader_LAST_FLASH_ARRAYID)
 907:.\Generated_Source\PSoC4/Bootloader.c ****                             {
 908:.\Generated_Source\PSoC4/Bootloader.c ****                         #endif  /* (!CY_PSOC4) */
 909:.\Generated_Source\PSoC4/Bootloader.c **** 
 910:.\Generated_Source\PSoC4/Bootloader.c ****                         #if(0u == Bootloader_DUAL_APP_BOOTLOADER)
 911:.\Generated_Source\PSoC4/Bootloader.c **** 
 912:.\Generated_Source\PSoC4/Bootloader.c ****                             if(0u == clearedMetaData)
 913:.\Generated_Source\PSoC4/Bootloader.c ****                             {
 914:.\Generated_Source\PSoC4/Bootloader.c ****                                 /* Metadata section must be filled with zeroes */
 915:.\Generated_Source\PSoC4/Bootloader.c **** 
 916:.\Generated_Source\PSoC4/Bootloader.c ****                                 uint8 erase[Bootloader_FROW_SIZE];
 917:.\Generated_Source\PSoC4/Bootloader.c **** 
 918:.\Generated_Source\PSoC4/Bootloader.c ****                                 #if(CY_PSOC3)
 919:.\Generated_Source\PSoC4/Bootloader.c ****                                     (void) memset(erase, (char8) 0, (int16) Bootloader_FROW_SIZE);
 920:.\Generated_Source\PSoC4/Bootloader.c ****                                 #else
 921:.\Generated_Source\PSoC4/Bootloader.c ****                                     (void) memset(erase, 0, Bootloader_FROW_SIZE);
 922:.\Generated_Source\PSoC4/Bootloader.c ****                                 #endif  /* (CY_PSOC3) */
 923:.\Generated_Source\PSoC4/Bootloader.c **** 
 924:.\Generated_Source\PSoC4/Bootloader.c ****                                 #if(CY_PSOC4)
 925:.\Generated_Source\PSoC4/Bootloader.c ****                                     (void) CySysFlashWriteRow(Bootloader_MD_ROW, erase);
ARM GAS  C:\Users\vrnk\AppData\Local\Temp\ccnz7Ubz.s 			page 18


 926:.\Generated_Source\PSoC4/Bootloader.c ****                                 #else
 927:.\Generated_Source\PSoC4/Bootloader.c ****                                     (void) CyWriteRowFull((uint8)  Bootloader_MD_FLASH_ARRAY_NUM,
 928:.\Generated_Source\PSoC4/Bootloader.c ****                                                           (uint16) Bootloader_MD_ROW,
 929:.\Generated_Source\PSoC4/Bootloader.c ****                                                                     erase,
 930:.\Generated_Source\PSoC4/Bootloader.c ****                                                                     Bootloader_FROW_SIZE);
 931:.\Generated_Source\PSoC4/Bootloader.c ****                                 #endif  /* (CY_PSOC4) */
 932:.\Generated_Source\PSoC4/Bootloader.c **** 
 933:.\Generated_Source\PSoC4/Bootloader.c ****                                 /* Set up flag that metadata was cleared */
 934:.\Generated_Source\PSoC4/Bootloader.c ****                                 clearedMetaData = 1u;
 935:.\Generated_Source\PSoC4/Bootloader.c ****                             }
 936:.\Generated_Source\PSoC4/Bootloader.c **** 
 937:.\Generated_Source\PSoC4/Bootloader.c ****                         #else
 938:.\Generated_Source\PSoC4/Bootloader.c **** 
 939:.\Generated_Source\PSoC4/Bootloader.c ****                             if(Bootloader_activeApp < Bootloader_MD_BTLDB_ACTIVE_NONE)
 940:.\Generated_Source\PSoC4/Bootloader.c ****                             {
 941:.\Generated_Source\PSoC4/Bootloader.c ****                                 /* First active bootloadable application row */
 942:.\Generated_Source\PSoC4/Bootloader.c ****                                 uint16 firstRow = (uint16) 1u +
 943:.\Generated_Source\PSoC4/Bootloader.c ****                                     (uint16) Bootloader_GetMetadata(Bootloader_GET_METADATA_BTLDR_L
 944:.\Generated_Source\PSoC4/Bootloader.c ****                                                                           Bootloader_activeApp);
 945:.\Generated_Source\PSoC4/Bootloader.c **** 
 946:.\Generated_Source\PSoC4/Bootloader.c ****                                 #if(CY_PSOC4)
 947:.\Generated_Source\PSoC4/Bootloader.c ****                                     uint16 row = dataOffset;
 948:.\Generated_Source\PSoC4/Bootloader.c ****                                 #else
 949:.\Generated_Source\PSoC4/Bootloader.c ****                                     uint16 row = (uint16)(btldrData * (CYDEV_FLS_SECTOR_SIZE / CYDE
 950:.\Generated_Source\PSoC4/Bootloader.c ****                                                   dataOffset;
 951:.\Generated_Source\PSoC4/Bootloader.c ****                                 #endif  /* (CY_PSOC4) */
 952:.\Generated_Source\PSoC4/Bootloader.c **** 
 953:.\Generated_Source\PSoC4/Bootloader.c **** 
 954:.\Generated_Source\PSoC4/Bootloader.c ****                                 /******************************************************************
 955:.\Generated_Source\PSoC4/Bootloader.c ****                                 * Last row is equal to the first row plus the number of rows availa
 956:.\Generated_Source\PSoC4/Bootloader.c ****                                 * app. To compute this, we first subtract the number of appliaction
 957:.\Generated_Source\PSoC4/Bootloader.c ****                                 * the total flash rows: (CY_FLASH_NUMBER_ROWS - 2u).
 958:.\Generated_Source\PSoC4/Bootloader.c ****                                 *
 959:.\Generated_Source\PSoC4/Bootloader.c ****                                 * Then subtract off the first row:
 960:.\Generated_Source\PSoC4/Bootloader.c ****                                 * App Rows = (CY_FLASH_NUMBER_ROWS - 2u - firstRow)
 961:.\Generated_Source\PSoC4/Bootloader.c ****                                 * Then divide that number by the number of application that must fi
 962:.\Generated_Source\PSoC4/Bootloader.c ****                                 * space, if we are app1 then that number is 2, if app2 then 1.  Our
 963:.\Generated_Source\PSoC4/Bootloader.c ****                                 * then: (2u - Bootloader_activeApp).
 964:.\Generated_Source\PSoC4/Bootloader.c ****                                 *
 965:.\Generated_Source\PSoC4/Bootloader.c ****                                 * Adding this number to firstRow gives the address right beyond our
 966:.\Generated_Source\PSoC4/Bootloader.c ****                                 * so we subtract 1.
 967:.\Generated_Source\PSoC4/Bootloader.c ****                                 *******************************************************************
 968:.\Generated_Source\PSoC4/Bootloader.c ****                                 uint16 lastRow = (firstRow - 1u) +
 969:.\Generated_Source\PSoC4/Bootloader.c ****                                                   ((uint16)((CYDEV_FLASH_SIZE / CYDEV_FLS_ROW_SIZE)
 970:.\Generated_Source\PSoC4/Bootloader.c ****                                                   ((uint16)2u - (uint16)Bootloader_activeApp));
 971:.\Generated_Source\PSoC4/Bootloader.c **** 
 972:.\Generated_Source\PSoC4/Bootloader.c **** 
 973:.\Generated_Source\PSoC4/Bootloader.c ****                                 /******************************************************************
 974:.\Generated_Source\PSoC4/Bootloader.c ****                                 * Check to see if the row to program is within the range of the act
 975:.\Generated_Source\PSoC4/Bootloader.c ****                                 * application, or if it maches the active application's metadata ro
 976:.\Generated_Source\PSoC4/Bootloader.c ****                                 * refuse to program as it would corrupt the active app.
 977:.\Generated_Source\PSoC4/Bootloader.c ****                                 *******************************************************************
 978:.\Generated_Source\PSoC4/Bootloader.c ****                                 if(((row >= firstRow) && (row <= lastRow)) ||
 979:.\Generated_Source\PSoC4/Bootloader.c ****                                    ((btldrData == Bootloader_MD_FLASH_ARRAY_NUM) &&
 980:.\Generated_Source\PSoC4/Bootloader.c ****                                    (dataOffset == Bootloader_MD_ROW_NUM(Bootloader_activeApp))))
 981:.\Generated_Source\PSoC4/Bootloader.c ****                                 {
 982:.\Generated_Source\PSoC4/Bootloader.c ****                                     ackCode = Bootloader_ERR_ACTIVE;
ARM GAS  C:\Users\vrnk\AppData\Local\Temp\ccnz7Ubz.s 			page 19


 983:.\Generated_Source\PSoC4/Bootloader.c ****                                     dataOffset = 0u;
 984:.\Generated_Source\PSoC4/Bootloader.c ****                                     break;
 985:.\Generated_Source\PSoC4/Bootloader.c ****                                 }
 986:.\Generated_Source\PSoC4/Bootloader.c ****                             }
 987:.\Generated_Source\PSoC4/Bootloader.c **** 
 988:.\Generated_Source\PSoC4/Bootloader.c ****                         #endif  /* (0u == Bootloader_DUAL_APP_BOOTLOADER) */
 989:.\Generated_Source\PSoC4/Bootloader.c **** 
 990:.\Generated_Source\PSoC4/Bootloader.c ****                         #if(!CY_PSOC4)
 991:.\Generated_Source\PSoC4/Bootloader.c ****                             }
 992:.\Generated_Source\PSoC4/Bootloader.c ****                         #endif  /* (!CY_PSOC4) */
 993:.\Generated_Source\PSoC4/Bootloader.c **** 
 994:.\Generated_Source\PSoC4/Bootloader.c ****                         #if(CY_PSOC4)
 995:.\Generated_Source\PSoC4/Bootloader.c **** 
 996:.\Generated_Source\PSoC4/Bootloader.c ****                             ackCode = (CYRET_SUCCESS != CySysFlashWriteRow((uint32) dataOffset, dat
 997:.\Generated_Source\PSoC4/Bootloader.c ****                                 ? Bootloader_ERR_ROW \
 998:.\Generated_Source\PSoC4/Bootloader.c ****                                 : CYRET_SUCCESS;
 999:.\Generated_Source\PSoC4/Bootloader.c **** 
1000:.\Generated_Source\PSoC4/Bootloader.c ****                         #else
1001:.\Generated_Source\PSoC4/Bootloader.c **** 
1002:.\Generated_Source\PSoC4/Bootloader.c ****                             ackCode = (CYRET_SUCCESS != CyWriteRowFull(btldrData, dataOffset, dataB
1003:.\Generated_Source\PSoC4/Bootloader.c ****                                 ? Bootloader_ERR_ROW \
1004:.\Generated_Source\PSoC4/Bootloader.c ****                                 : CYRET_SUCCESS;
1005:.\Generated_Source\PSoC4/Bootloader.c **** 
1006:.\Generated_Source\PSoC4/Bootloader.c ****                         #endif  /* (CY_PSOC4) */
1007:.\Generated_Source\PSoC4/Bootloader.c **** 
1008:.\Generated_Source\PSoC4/Bootloader.c ****                     }
1009:.\Generated_Source\PSoC4/Bootloader.c ****                     else
1010:.\Generated_Source\PSoC4/Bootloader.c ****                     {
1011:.\Generated_Source\PSoC4/Bootloader.c ****                         ackCode = Bootloader_ERR_LENGTH;
1012:.\Generated_Source\PSoC4/Bootloader.c ****                     }
1013:.\Generated_Source\PSoC4/Bootloader.c **** 
1014:.\Generated_Source\PSoC4/Bootloader.c ****                     dataOffset = 0u;
1015:.\Generated_Source\PSoC4/Bootloader.c ****                 }
1016:.\Generated_Source\PSoC4/Bootloader.c ****                 break;
1017:.\Generated_Source\PSoC4/Bootloader.c **** 
1018:.\Generated_Source\PSoC4/Bootloader.c **** 
1019:.\Generated_Source\PSoC4/Bootloader.c ****             /***************************************************************************
1020:.\Generated_Source\PSoC4/Bootloader.c ****             *   Sync bootloader
1021:.\Generated_Source\PSoC4/Bootloader.c ****             ***************************************************************************/
1022:.\Generated_Source\PSoC4/Bootloader.c ****             #if(0u != Bootloader_CMD_SYNC_BOOTLOADER_AVAIL)
1023:.\Generated_Source\PSoC4/Bootloader.c **** 
1024:.\Generated_Source\PSoC4/Bootloader.c ****             case Bootloader_COMMAND_SYNC:
1025:.\Generated_Source\PSoC4/Bootloader.c **** 
1026:.\Generated_Source\PSoC4/Bootloader.c ****                 if(Bootloader_COMMUNICATION_STATE_ACTIVE == communicationState)
1027:.\Generated_Source\PSoC4/Bootloader.c ****                 {
1028:.\Generated_Source\PSoC4/Bootloader.c ****                     /* If something failed the host would send this command to reset the bootloader
1029:.\Generated_Source\PSoC4/Bootloader.c ****                     dataOffset = 0u;
1030:.\Generated_Source\PSoC4/Bootloader.c **** 
1031:.\Generated_Source\PSoC4/Bootloader.c ****                     /* Don't ack the packet, just get ready to accept the next one */
1032:.\Generated_Source\PSoC4/Bootloader.c ****                     continue;
1033:.\Generated_Source\PSoC4/Bootloader.c ****                 }
1034:.\Generated_Source\PSoC4/Bootloader.c ****                 break;
1035:.\Generated_Source\PSoC4/Bootloader.c **** 
1036:.\Generated_Source\PSoC4/Bootloader.c ****             #endif  /* (0u != Bootloader_CMD_SYNC_BOOTLOADER_AVAIL) */
1037:.\Generated_Source\PSoC4/Bootloader.c **** 
1038:.\Generated_Source\PSoC4/Bootloader.c **** 
1039:.\Generated_Source\PSoC4/Bootloader.c ****             /***************************************************************************
ARM GAS  C:\Users\vrnk\AppData\Local\Temp\ccnz7Ubz.s 			page 20


1040:.\Generated_Source\PSoC4/Bootloader.c ****             *   Set active application
1041:.\Generated_Source\PSoC4/Bootloader.c ****             ***************************************************************************/
1042:.\Generated_Source\PSoC4/Bootloader.c ****             #if(0u != Bootloader_DUAL_APP_BOOTLOADER)
1043:.\Generated_Source\PSoC4/Bootloader.c **** 
1044:.\Generated_Source\PSoC4/Bootloader.c ****                 case Bootloader_COMMAND_APP_ACTIVE:
1045:.\Generated_Source\PSoC4/Bootloader.c **** 
1046:.\Generated_Source\PSoC4/Bootloader.c ****                     if((Bootloader_COMMUNICATION_STATE_ACTIVE == communicationState) && (pktSize ==
1047:.\Generated_Source\PSoC4/Bootloader.c ****                     {
1048:.\Generated_Source\PSoC4/Bootloader.c ****                         if(CYRET_SUCCESS == Bootloader_ValidateBootloadable(btldrData))
1049:.\Generated_Source\PSoC4/Bootloader.c ****                         {
1050:.\Generated_Source\PSoC4/Bootloader.c ****                             uint8 CYDATA idx;
1051:.\Generated_Source\PSoC4/Bootloader.c **** 
1052:.\Generated_Source\PSoC4/Bootloader.c ****                             for(idx = 0u; idx < Bootloader_MAX_NUM_OF_BTLDB; idx++)
1053:.\Generated_Source\PSoC4/Bootloader.c ****                             {
1054:.\Generated_Source\PSoC4/Bootloader.c ****                                 Bootloader_SetFlashByte((uint32) Bootloader_MD_BTLDB_ACTIVE_OFFSET(
1055:.\Generated_Source\PSoC4/Bootloader.c ****                                                               (uint8 )(idx == btldrData));
1056:.\Generated_Source\PSoC4/Bootloader.c ****                             }
1057:.\Generated_Source\PSoC4/Bootloader.c ****                             Bootloader_activeApp = btldrData;
1058:.\Generated_Source\PSoC4/Bootloader.c ****                             ackCode = CYRET_SUCCESS;
1059:.\Generated_Source\PSoC4/Bootloader.c ****                         }
1060:.\Generated_Source\PSoC4/Bootloader.c ****                         else
1061:.\Generated_Source\PSoC4/Bootloader.c ****                         {
1062:.\Generated_Source\PSoC4/Bootloader.c ****                             ackCode = Bootloader_ERR_APP;
1063:.\Generated_Source\PSoC4/Bootloader.c ****                         }
1064:.\Generated_Source\PSoC4/Bootloader.c ****                     }
1065:.\Generated_Source\PSoC4/Bootloader.c ****                     break;
1066:.\Generated_Source\PSoC4/Bootloader.c **** 
1067:.\Generated_Source\PSoC4/Bootloader.c ****             #endif  /* (0u != Bootloader_DUAL_APP_BOOTLOADER) */
1068:.\Generated_Source\PSoC4/Bootloader.c **** 
1069:.\Generated_Source\PSoC4/Bootloader.c **** 
1070:.\Generated_Source\PSoC4/Bootloader.c ****             /***************************************************************************
1071:.\Generated_Source\PSoC4/Bootloader.c ****             *   Send data
1072:.\Generated_Source\PSoC4/Bootloader.c ****             ***************************************************************************/
1073:.\Generated_Source\PSoC4/Bootloader.c ****             #if (0u != Bootloader_CMD_SEND_DATA_AVAIL)
1074:.\Generated_Source\PSoC4/Bootloader.c **** 
1075:.\Generated_Source\PSoC4/Bootloader.c ****                 case Bootloader_COMMAND_DATA:
1076:.\Generated_Source\PSoC4/Bootloader.c **** 
1077:.\Generated_Source\PSoC4/Bootloader.c ****                     if(Bootloader_COMMUNICATION_STATE_ACTIVE == communicationState)
1078:.\Generated_Source\PSoC4/Bootloader.c ****                     {
1079:.\Generated_Source\PSoC4/Bootloader.c ****                         /*  Make sure that dataOffset is valid before copying the data */
1080:.\Generated_Source\PSoC4/Bootloader.c ****                         if((dataOffset + pktSize) <= Bootloader_SIZEOF_COMMAND_BUFFER)
1081:.\Generated_Source\PSoC4/Bootloader.c ****                         {
1082:.\Generated_Source\PSoC4/Bootloader.c ****                             ackCode = CYRET_SUCCESS;
1083:.\Generated_Source\PSoC4/Bootloader.c **** 
1084:.\Generated_Source\PSoC4/Bootloader.c ****                             #if(CY_PSOC3)
1085:.\Generated_Source\PSoC4/Bootloader.c ****                                 (void) memcpy(&dataBuffer[dataOffset],
1086:.\Generated_Source\PSoC4/Bootloader.c ****                                               &packetBuffer[Bootloader_DATA_ADDR],
1087:.\Generated_Source\PSoC4/Bootloader.c ****                                               ( int16 )pktSize);
1088:.\Generated_Source\PSoC4/Bootloader.c ****                             #else
1089:.\Generated_Source\PSoC4/Bootloader.c ****                                 (void) memcpy(&dataBuffer[dataOffset],
1090:.\Generated_Source\PSoC4/Bootloader.c ****                                               &packetBuffer[Bootloader_DATA_ADDR],
1091:.\Generated_Source\PSoC4/Bootloader.c ****                                               pktSize);
1092:.\Generated_Source\PSoC4/Bootloader.c ****                             #endif  /* (CY_PSOC3) */
1093:.\Generated_Source\PSoC4/Bootloader.c **** 
1094:.\Generated_Source\PSoC4/Bootloader.c ****                             dataOffset += pktSize;
1095:.\Generated_Source\PSoC4/Bootloader.c ****                         }
1096:.\Generated_Source\PSoC4/Bootloader.c ****                         else
ARM GAS  C:\Users\vrnk\AppData\Local\Temp\ccnz7Ubz.s 			page 21


1097:.\Generated_Source\PSoC4/Bootloader.c ****                         {
1098:.\Generated_Source\PSoC4/Bootloader.c ****                             ackCode = Bootloader_ERR_LENGTH;
1099:.\Generated_Source\PSoC4/Bootloader.c ****                         }
1100:.\Generated_Source\PSoC4/Bootloader.c ****                     }
1101:.\Generated_Source\PSoC4/Bootloader.c **** 
1102:.\Generated_Source\PSoC4/Bootloader.c ****                     break;
1103:.\Generated_Source\PSoC4/Bootloader.c **** 
1104:.\Generated_Source\PSoC4/Bootloader.c ****             #endif  /* (0u != Bootloader_CMD_SEND_DATA_AVAIL) */
1105:.\Generated_Source\PSoC4/Bootloader.c **** 
1106:.\Generated_Source\PSoC4/Bootloader.c **** 
1107:.\Generated_Source\PSoC4/Bootloader.c ****             /***************************************************************************
1108:.\Generated_Source\PSoC4/Bootloader.c ****             *   Enter bootloader
1109:.\Generated_Source\PSoC4/Bootloader.c ****             ***************************************************************************/
1110:.\Generated_Source\PSoC4/Bootloader.c ****             case Bootloader_COMMAND_ENTER:
1111:.\Generated_Source\PSoC4/Bootloader.c **** 
1112:.\Generated_Source\PSoC4/Bootloader.c ****                 if(pktSize == 0u)
1113:.\Generated_Source\PSoC4/Bootloader.c ****                 {
1114:.\Generated_Source\PSoC4/Bootloader.c ****                     #if(CY_PSOC3)
1115:.\Generated_Source\PSoC4/Bootloader.c **** 
1116:.\Generated_Source\PSoC4/Bootloader.c ****                         Bootloader_ENTER CYDATA BtldrVersion =
1117:.\Generated_Source\PSoC4/Bootloader.c ****                             {CYSWAP_ENDIAN32(CYDEV_CHIP_JTAG_ID), CYDEV_CHIP_REV_EXPECT, Bootloader
1118:.\Generated_Source\PSoC4/Bootloader.c **** 
1119:.\Generated_Source\PSoC4/Bootloader.c ****                     #else
1120:.\Generated_Source\PSoC4/Bootloader.c **** 
1121:.\Generated_Source\PSoC4/Bootloader.c ****                         Bootloader_ENTER CYDATA BtldrVersion =
1122:.\Generated_Source\PSoC4/Bootloader.c ****                             {CYDEV_CHIP_JTAG_ID, CYDEV_CHIP_REV_EXPECT, Bootloader_VERSION};
1123:.\Generated_Source\PSoC4/Bootloader.c **** 
1124:.\Generated_Source\PSoC4/Bootloader.c ****                     #endif  /* (CY_PSOC3) */
1125:.\Generated_Source\PSoC4/Bootloader.c **** 
1126:.\Generated_Source\PSoC4/Bootloader.c ****                     communicationState = Bootloader_COMMUNICATION_STATE_ACTIVE;
1127:.\Generated_Source\PSoC4/Bootloader.c **** 
1128:.\Generated_Source\PSoC4/Bootloader.c ****                     rspSize = sizeof(Bootloader_ENTER);
1129:.\Generated_Source\PSoC4/Bootloader.c **** 
1130:.\Generated_Source\PSoC4/Bootloader.c ****                     #if(CY_PSOC3)
1131:.\Generated_Source\PSoC4/Bootloader.c ****                         (void) memcpy(&packetBuffer[Bootloader_DATA_ADDR],
1132:.\Generated_Source\PSoC4/Bootloader.c ****                                       &BtldrVersion,
1133:.\Generated_Source\PSoC4/Bootloader.c ****                                       ( int16 )rspSize);
1134:.\Generated_Source\PSoC4/Bootloader.c ****                     #else
1135:.\Generated_Source\PSoC4/Bootloader.c ****                         (void) memcpy(&packetBuffer[Bootloader_DATA_ADDR],
1136:.\Generated_Source\PSoC4/Bootloader.c ****                                       &BtldrVersion,
1137:.\Generated_Source\PSoC4/Bootloader.c ****                                       rspSize);
1138:.\Generated_Source\PSoC4/Bootloader.c ****                     #endif  /* (CY_PSOC3) */
1139:.\Generated_Source\PSoC4/Bootloader.c **** 
1140:.\Generated_Source\PSoC4/Bootloader.c ****                     ackCode = CYRET_SUCCESS;
1141:.\Generated_Source\PSoC4/Bootloader.c ****                 }
1142:.\Generated_Source\PSoC4/Bootloader.c ****                 break;
1143:.\Generated_Source\PSoC4/Bootloader.c **** 
1144:.\Generated_Source\PSoC4/Bootloader.c **** 
1145:.\Generated_Source\PSoC4/Bootloader.c ****             /***************************************************************************
1146:.\Generated_Source\PSoC4/Bootloader.c ****             *   Verify row
1147:.\Generated_Source\PSoC4/Bootloader.c ****             ***************************************************************************/
1148:.\Generated_Source\PSoC4/Bootloader.c ****             case Bootloader_COMMAND_VERIFY:
1149:.\Generated_Source\PSoC4/Bootloader.c **** 
1150:.\Generated_Source\PSoC4/Bootloader.c ****                 if((Bootloader_COMMUNICATION_STATE_ACTIVE == communicationState) && (pktSize == 3u)
1151:.\Generated_Source\PSoC4/Bootloader.c ****                 {
1152:.\Generated_Source\PSoC4/Bootloader.c ****                     /* Get FLASH/EEPROM row number */
1153:.\Generated_Source\PSoC4/Bootloader.c ****                     uint16 CYDATA rowNum = ((uint16)((uint16)packetBuffer[Bootloader_DATA_ADDR + 2u
ARM GAS  C:\Users\vrnk\AppData\Local\Temp\ccnz7Ubz.s 			page 22


1154:.\Generated_Source\PSoC4/Bootloader.c ****                                                     packetBuffer[Bootloader_DATA_ADDR + 1u];
1155:.\Generated_Source\PSoC4/Bootloader.c **** 
1156:.\Generated_Source\PSoC4/Bootloader.c ****                     #if(!CY_PSOC4)
1157:.\Generated_Source\PSoC4/Bootloader.c **** 
1158:.\Generated_Source\PSoC4/Bootloader.c ****                         uint32 CYDATA rowAddr;
1159:.\Generated_Source\PSoC4/Bootloader.c ****                         uint8 CYDATA checksum;
1160:.\Generated_Source\PSoC4/Bootloader.c **** 
1161:.\Generated_Source\PSoC4/Bootloader.c ****                         if((btldrData >= Bootloader_FIRST_EE_ARRAYID) &&
1162:.\Generated_Source\PSoC4/Bootloader.c ****                            (btldrData <= Bootloader_LAST_EE_ARRAYID))
1163:.\Generated_Source\PSoC4/Bootloader.c ****                         {
1164:.\Generated_Source\PSoC4/Bootloader.c ****                             /* EEPROM */
1165:.\Generated_Source\PSoC4/Bootloader.c ****                             /* Both PSoC 3 and PSoC 5LP architectures have one EEPROM array. */
1166:.\Generated_Source\PSoC4/Bootloader.c ****                             rowAddr = (uint32)rowNum * CYDEV_EEPROM_ROW_SIZE;
1167:.\Generated_Source\PSoC4/Bootloader.c **** 
1168:.\Generated_Source\PSoC4/Bootloader.c ****                             checksum = Bootloader_Calc8BitEepromSum(rowAddr, CYDEV_EEPROM_ROW_SIZE)
1169:.\Generated_Source\PSoC4/Bootloader.c ****                         }
1170:.\Generated_Source\PSoC4/Bootloader.c ****                         else
1171:.\Generated_Source\PSoC4/Bootloader.c ****                         {
1172:.\Generated_Source\PSoC4/Bootloader.c ****                             /* FLASH */
1173:.\Generated_Source\PSoC4/Bootloader.c ****                             rowAddr = ((uint32)btldrData * CYDEV_FLS_SECTOR_SIZE)
1174:.\Generated_Source\PSoC4/Bootloader.c ****                                        + ((uint32)rowNum * CYDEV_FLS_ROW_SIZE);
1175:.\Generated_Source\PSoC4/Bootloader.c **** 
1176:.\Generated_Source\PSoC4/Bootloader.c ****                             checksum = Bootloader_Calc8BitFlashSum(rowAddr, CYDEV_FLS_ROW_SIZE);
1177:.\Generated_Source\PSoC4/Bootloader.c ****                         }
1178:.\Generated_Source\PSoC4/Bootloader.c **** 
1179:.\Generated_Source\PSoC4/Bootloader.c ****                     #else
1180:.\Generated_Source\PSoC4/Bootloader.c **** 
1181:.\Generated_Source\PSoC4/Bootloader.c ****                         uint32 CYDATA rowAddr = ((uint32)btldrData * CYDEV_FLS_SECTOR_SIZE)
1182:.\Generated_Source\PSoC4/Bootloader.c ****                                             + ((uint32)rowNum * CYDEV_FLS_ROW_SIZE);
1183:.\Generated_Source\PSoC4/Bootloader.c **** 
1184:.\Generated_Source\PSoC4/Bootloader.c ****                         uint8 CYDATA checksum = Bootloader_Calc8BitFlashSum(rowAddr, CYDEV_FLS_ROW_
1185:.\Generated_Source\PSoC4/Bootloader.c **** 
1186:.\Generated_Source\PSoC4/Bootloader.c ****                     #endif  /* (!CY_PSOC4) */
1187:.\Generated_Source\PSoC4/Bootloader.c **** 
1188:.\Generated_Source\PSoC4/Bootloader.c **** 
1189:.\Generated_Source\PSoC4/Bootloader.c ****                     /* Calculate checksum on data from ECC */
1190:.\Generated_Source\PSoC4/Bootloader.c ****                     #if(!CY_PSOC4) && (CYDEV_ECC_ENABLE == 0u)
1191:.\Generated_Source\PSoC4/Bootloader.c **** 
1192:.\Generated_Source\PSoC4/Bootloader.c ****                         if(btldrData <= Bootloader_LAST_FLASH_ARRAYID)
1193:.\Generated_Source\PSoC4/Bootloader.c ****                         {
1194:.\Generated_Source\PSoC4/Bootloader.c ****                             uint16 CYDATA tmpIndex;
1195:.\Generated_Source\PSoC4/Bootloader.c **** 
1196:.\Generated_Source\PSoC4/Bootloader.c ****                             rowAddr = CYDEV_ECC_BASE + ((uint32)btldrData * (CYDEV_FLS_SECTOR_SIZE 
1197:.\Generated_Source\PSoC4/Bootloader.c ****                                         + ((uint32)rowNum * CYDEV_ECC_ROW_SIZE);
1198:.\Generated_Source\PSoC4/Bootloader.c **** 
1199:.\Generated_Source\PSoC4/Bootloader.c ****                             for(tmpIndex = 0u; tmpIndex < CYDEV_ECC_ROW_SIZE; tmpIndex++)
1200:.\Generated_Source\PSoC4/Bootloader.c ****                             {
1201:.\Generated_Source\PSoC4/Bootloader.c ****                                 checksum += CY_GET_XTND_REG8((uint8 CYFAR *)(rowAddr + tmpIndex));
1202:.\Generated_Source\PSoC4/Bootloader.c ****                             }
1203:.\Generated_Source\PSoC4/Bootloader.c ****                         }
1204:.\Generated_Source\PSoC4/Bootloader.c **** 
1205:.\Generated_Source\PSoC4/Bootloader.c ****                     #endif  /* (!CY_PSOC4) && (CYDEV_ECC_ENABLE == 0u) */
1206:.\Generated_Source\PSoC4/Bootloader.c **** 
1207:.\Generated_Source\PSoC4/Bootloader.c **** 
1208:.\Generated_Source\PSoC4/Bootloader.c ****                     /******************************************************************************
1209:.\Generated_Source\PSoC4/Bootloader.c ****                     * App Verified & App Active are information that is updated in flash at runtime
1210:.\Generated_Source\PSoC4/Bootloader.c ****                     * remove these items from the checksum to allow the host to verify everything i
ARM GAS  C:\Users\vrnk\AppData\Local\Temp\ccnz7Ubz.s 			page 23


1211:.\Generated_Source\PSoC4/Bootloader.c ****                     * correct.
1212:.\Generated_Source\PSoC4/Bootloader.c ****                      ******************************************************************************
1213:.\Generated_Source\PSoC4/Bootloader.c ****                     if((Bootloader_MD_FLASH_ARRAY_NUM == btldrData) &&
1214:.\Generated_Source\PSoC4/Bootloader.c ****                        (Bootloader_CONTAIN_METADATA(rowNum)))
1215:.\Generated_Source\PSoC4/Bootloader.c ****                     {
1216:.\Generated_Source\PSoC4/Bootloader.c ****                         checksum -= Bootloader_MD_BTLDB_ACTIVE_VALUE  (Bootloader_GET_APP_ID(rowNum
1217:.\Generated_Source\PSoC4/Bootloader.c ****                         checksum -= Bootloader_MD_BTLDB_VERIFIED_VALUE(Bootloader_GET_APP_ID(rowNum
1218:.\Generated_Source\PSoC4/Bootloader.c ****                     }
1219:.\Generated_Source\PSoC4/Bootloader.c **** 
1220:.\Generated_Source\PSoC4/Bootloader.c ****                     packetBuffer[Bootloader_DATA_ADDR] = (uint8)1u + (uint8)(~checksum);
1221:.\Generated_Source\PSoC4/Bootloader.c ****                     ackCode = CYRET_SUCCESS;
1222:.\Generated_Source\PSoC4/Bootloader.c ****                     rspSize = 1u;
1223:.\Generated_Source\PSoC4/Bootloader.c ****                 }
1224:.\Generated_Source\PSoC4/Bootloader.c ****                 break;
1225:.\Generated_Source\PSoC4/Bootloader.c **** 
1226:.\Generated_Source\PSoC4/Bootloader.c **** 
1227:.\Generated_Source\PSoC4/Bootloader.c ****             /***************************************************************************
1228:.\Generated_Source\PSoC4/Bootloader.c ****             *   Exit bootloader
1229:.\Generated_Source\PSoC4/Bootloader.c ****             ***************************************************************************/
1230:.\Generated_Source\PSoC4/Bootloader.c ****             case Bootloader_COMMAND_EXIT:
1231:.\Generated_Source\PSoC4/Bootloader.c **** 
1232:.\Generated_Source\PSoC4/Bootloader.c ****                 if(CYRET_SUCCESS == Bootloader_ValidateBootloadable(Bootloader_activeApp))
1233:.\Generated_Source\PSoC4/Bootloader.c ****                 {
1234:.\Generated_Source\PSoC4/Bootloader.c ****                     Bootloader_SET_RUN_TYPE(Bootloader_START_APP);
1235:.\Generated_Source\PSoC4/Bootloader.c ****                 }
1236:.\Generated_Source\PSoC4/Bootloader.c **** 
1237:.\Generated_Source\PSoC4/Bootloader.c ****                 CySoftwareReset();
1238:.\Generated_Source\PSoC4/Bootloader.c **** 
1239:.\Generated_Source\PSoC4/Bootloader.c ****                 /* Will never get here */
1240:.\Generated_Source\PSoC4/Bootloader.c ****                 break;
1241:.\Generated_Source\PSoC4/Bootloader.c **** 
1242:.\Generated_Source\PSoC4/Bootloader.c **** 
1243:.\Generated_Source\PSoC4/Bootloader.c ****             /***************************************************************************
1244:.\Generated_Source\PSoC4/Bootloader.c ****             *   Unsupported command
1245:.\Generated_Source\PSoC4/Bootloader.c ****             ***************************************************************************/
1246:.\Generated_Source\PSoC4/Bootloader.c ****             default:
1247:.\Generated_Source\PSoC4/Bootloader.c ****                 ackCode = Bootloader_ERR_CMD;
1248:.\Generated_Source\PSoC4/Bootloader.c ****                 break;
1249:.\Generated_Source\PSoC4/Bootloader.c ****             }
1250:.\Generated_Source\PSoC4/Bootloader.c ****         }
1251:.\Generated_Source\PSoC4/Bootloader.c **** 
1252:.\Generated_Source\PSoC4/Bootloader.c ****         /* ?CK the packet and function. */
1253:.\Generated_Source\PSoC4/Bootloader.c ****         (void) Bootloader_WritePacket(ackCode, packetBuffer, rspSize);
1254:.\Generated_Source\PSoC4/Bootloader.c **** 
1255:.\Generated_Source\PSoC4/Bootloader.c ****     } while ((0u == timeOut) || (Bootloader_COMMUNICATION_STATE_ACTIVE == communicationState));
1256:.\Generated_Source\PSoC4/Bootloader.c **** }
1257:.\Generated_Source\PSoC4/Bootloader.c **** 
1258:.\Generated_Source\PSoC4/Bootloader.c **** 
1259:.\Generated_Source\PSoC4/Bootloader.c **** /*******************************************************************************
1260:.\Generated_Source\PSoC4/Bootloader.c **** * Function Name: Bootloader_WritePacket
1261:.\Generated_Source\PSoC4/Bootloader.c **** ********************************************************************************
1262:.\Generated_Source\PSoC4/Bootloader.c **** *
1263:.\Generated_Source\PSoC4/Bootloader.c **** * Summary:
1264:.\Generated_Source\PSoC4/Bootloader.c **** *  Creates a bootloader responce packet and transmits it back to the bootloader
1265:.\Generated_Source\PSoC4/Bootloader.c **** *  host application over the already established communications protocol.
1266:.\Generated_Source\PSoC4/Bootloader.c **** *
1267:.\Generated_Source\PSoC4/Bootloader.c **** * Parameters:
ARM GAS  C:\Users\vrnk\AppData\Local\Temp\ccnz7Ubz.s 			page 24


1268:.\Generated_Source\PSoC4/Bootloader.c **** *  status:
1269:.\Generated_Source\PSoC4/Bootloader.c **** *      The status code to pass back as the second byte of the packet
1270:.\Generated_Source\PSoC4/Bootloader.c **** *  buffer:
1271:.\Generated_Source\PSoC4/Bootloader.c **** *      The buffer containing the data portion of the packet
1272:.\Generated_Source\PSoC4/Bootloader.c **** *  size:
1273:.\Generated_Source\PSoC4/Bootloader.c **** *      The number of bytes contained within the buffer to pass back
1274:.\Generated_Source\PSoC4/Bootloader.c **** *
1275:.\Generated_Source\PSoC4/Bootloader.c **** * Return:
1276:.\Generated_Source\PSoC4/Bootloader.c **** *   CYRET_SUCCESS if successful.
1277:.\Generated_Source\PSoC4/Bootloader.c **** *   CYRET_UNKNOWN if there was an error tranmitting the packet.
1278:.\Generated_Source\PSoC4/Bootloader.c **** *
1279:.\Generated_Source\PSoC4/Bootloader.c **** *******************************************************************************/
1280:.\Generated_Source\PSoC4/Bootloader.c **** static cystatus Bootloader_WritePacket(uint8 status, uint8 buffer[], uint16 size) CYSMALL \
1281:.\Generated_Source\PSoC4/Bootloader.c ****                                             
1282:.\Generated_Source\PSoC4/Bootloader.c **** {
1283:.\Generated_Source\PSoC4/Bootloader.c ****     uint16 CYDATA checksum;
1284:.\Generated_Source\PSoC4/Bootloader.c **** 
1285:.\Generated_Source\PSoC4/Bootloader.c ****     /* Start of the packet. */
1286:.\Generated_Source\PSoC4/Bootloader.c ****     buffer[Bootloader_SOP_ADDR]      = Bootloader_SOP;
1287:.\Generated_Source\PSoC4/Bootloader.c ****     buffer[Bootloader_CMD_ADDR]      = status;
1288:.\Generated_Source\PSoC4/Bootloader.c ****     buffer[Bootloader_SIZE_ADDR]     = LO8(size);
1289:.\Generated_Source\PSoC4/Bootloader.c ****     buffer[Bootloader_SIZE_ADDR + 1u] = HI8(size);
1290:.\Generated_Source\PSoC4/Bootloader.c **** 
1291:.\Generated_Source\PSoC4/Bootloader.c ****     /* Compute the checksum. */
1292:.\Generated_Source\PSoC4/Bootloader.c ****     checksum = Bootloader_CalcPacketChecksum(buffer, size + Bootloader_DATA_ADDR);
1293:.\Generated_Source\PSoC4/Bootloader.c **** 
1294:.\Generated_Source\PSoC4/Bootloader.c ****     buffer[Bootloader_CHK_ADDR(size)]     = LO8(checksum);
1295:.\Generated_Source\PSoC4/Bootloader.c ****     buffer[Bootloader_CHK_ADDR(1u + size)] = HI8(checksum);
1296:.\Generated_Source\PSoC4/Bootloader.c ****     buffer[Bootloader_EOP_ADDR(size)]     = Bootloader_EOP;
1297:.\Generated_Source\PSoC4/Bootloader.c **** 
1298:.\Generated_Source\PSoC4/Bootloader.c ****     /* Start the packet transmit. */
1299:.\Generated_Source\PSoC4/Bootloader.c ****     return(CyBtldrCommWrite(buffer, size + Bootloader_MIN_PKT_SIZE, &size, 150u));
1300:.\Generated_Source\PSoC4/Bootloader.c **** }
1301:.\Generated_Source\PSoC4/Bootloader.c **** 
1302:.\Generated_Source\PSoC4/Bootloader.c **** 
1303:.\Generated_Source\PSoC4/Bootloader.c **** /*******************************************************************************
1304:.\Generated_Source\PSoC4/Bootloader.c **** * Function Name: Bootloader_SetFlashByte
1305:.\Generated_Source\PSoC4/Bootloader.c **** ********************************************************************************
1306:.\Generated_Source\PSoC4/Bootloader.c **** *
1307:.\Generated_Source\PSoC4/Bootloader.c **** * Summary:
1308:.\Generated_Source\PSoC4/Bootloader.c **** *  Writes byte a flash memory location
1309:.\Generated_Source\PSoC4/Bootloader.c **** *
1310:.\Generated_Source\PSoC4/Bootloader.c **** * Parameters:
1311:.\Generated_Source\PSoC4/Bootloader.c **** *  address:
1312:.\Generated_Source\PSoC4/Bootloader.c **** *      Address in Flash memory where data will be written
1313:.\Generated_Source\PSoC4/Bootloader.c **** *
1314:.\Generated_Source\PSoC4/Bootloader.c **** *  runType:
1315:.\Generated_Source\PSoC4/Bootloader.c **** *      Byte to be written
1316:.\Generated_Source\PSoC4/Bootloader.c **** *
1317:.\Generated_Source\PSoC4/Bootloader.c **** * Return:
1318:.\Generated_Source\PSoC4/Bootloader.c **** *  None
1319:.\Generated_Source\PSoC4/Bootloader.c **** *
1320:.\Generated_Source\PSoC4/Bootloader.c **** *******************************************************************************/
1321:.\Generated_Source\PSoC4/Bootloader.c **** void Bootloader_SetFlashByte(uint32 address, uint8 runType) 
1322:.\Generated_Source\PSoC4/Bootloader.c **** {
1323:.\Generated_Source\PSoC4/Bootloader.c ****     uint32 flsAddr = address - CYDEV_FLASH_BASE;
1324:.\Generated_Source\PSoC4/Bootloader.c ****     uint8  rowData[CYDEV_FLS_ROW_SIZE];
ARM GAS  C:\Users\vrnk\AppData\Local\Temp\ccnz7Ubz.s 			page 25


1325:.\Generated_Source\PSoC4/Bootloader.c **** 
1326:.\Generated_Source\PSoC4/Bootloader.c ****     #if !(CY_PSOC4)
1327:.\Generated_Source\PSoC4/Bootloader.c ****         uint8 arrayId = ( uint8 )(flsAddr / CYDEV_FLS_SECTOR_SIZE);
1328:.\Generated_Source\PSoC4/Bootloader.c ****     #endif  /* !(CY_PSOC4) */
1329:.\Generated_Source\PSoC4/Bootloader.c **** 
1330:.\Generated_Source\PSoC4/Bootloader.c ****     uint16 rowNum = ( uint16 )((flsAddr % CYDEV_FLS_SECTOR_SIZE) / CYDEV_FLS_ROW_SIZE);
1331:.\Generated_Source\PSoC4/Bootloader.c ****     uint32 baseAddr = address - (address % CYDEV_FLS_ROW_SIZE);
1332:.\Generated_Source\PSoC4/Bootloader.c ****     uint16 idx;
1333:.\Generated_Source\PSoC4/Bootloader.c **** 
1334:.\Generated_Source\PSoC4/Bootloader.c ****     for(idx = 0u; idx < CYDEV_FLS_ROW_SIZE; idx++)
1335:.\Generated_Source\PSoC4/Bootloader.c ****     {
1336:.\Generated_Source\PSoC4/Bootloader.c ****         rowData[idx] = Bootloader_GET_CODE_BYTE(baseAddr + idx);
1337:.\Generated_Source\PSoC4/Bootloader.c ****     }
1338:.\Generated_Source\PSoC4/Bootloader.c **** 
1339:.\Generated_Source\PSoC4/Bootloader.c ****     rowData[address % CYDEV_FLS_ROW_SIZE] = runType;
1340:.\Generated_Source\PSoC4/Bootloader.c **** 
1341:.\Generated_Source\PSoC4/Bootloader.c ****     #if(CY_PSOC4)
1342:.\Generated_Source\PSoC4/Bootloader.c ****         (void) CySysFlashWriteRow((uint32) rowNum, rowData);
1343:.\Generated_Source\PSoC4/Bootloader.c ****     #else
1344:.\Generated_Source\PSoC4/Bootloader.c ****         (void) CyWriteRowData(arrayId, rowNum, rowData);
1345:.\Generated_Source\PSoC4/Bootloader.c ****     #endif  /* (CY_PSOC4) */
1346:.\Generated_Source\PSoC4/Bootloader.c **** }
1347:.\Generated_Source\PSoC4/Bootloader.c **** 
1348:.\Generated_Source\PSoC4/Bootloader.c **** 
1349:.\Generated_Source\PSoC4/Bootloader.c **** /*******************************************************************************
1350:.\Generated_Source\PSoC4/Bootloader.c **** * Function Name: Bootloader_GetMetadata
1351:.\Generated_Source\PSoC4/Bootloader.c **** ********************************************************************************
1352:.\Generated_Source\PSoC4/Bootloader.c **** *
1353:.\Generated_Source\PSoC4/Bootloader.c **** * Summary:
1354:.\Generated_Source\PSoC4/Bootloader.c **** *  Returns value of the multi-byte field.
1355:.\Generated_Source\PSoC4/Bootloader.c **** *
1356:.\Generated_Source\PSoC4/Bootloader.c **** * Parameters:
1357:.\Generated_Source\PSoC4/Bootloader.c **** *  fieldName:
1358:.\Generated_Source\PSoC4/Bootloader.c **** *   The field to get data from:
1359:.\Generated_Source\PSoC4/Bootloader.c **** *     Bootloader_GET_METADATA_BTLDB_ADDR
1360:.\Generated_Source\PSoC4/Bootloader.c **** *     Bootloader_GET_METADATA_BTLDR_LAST_ROW
1361:.\Generated_Source\PSoC4/Bootloader.c **** *     Bootloader_GET_METADATA_BTLDB_LENGTH
1362:.\Generated_Source\PSoC4/Bootloader.c **** *     Bootloader_GET_METADATA_BTLDR_APP_VERSION
1363:.\Generated_Source\PSoC4/Bootloader.c **** *     Bootloader_GET_METADATA_BTLDB_APP_VERSION
1364:.\Generated_Source\PSoC4/Bootloader.c **** *     Bootloader_GET_METADATA_BTLDB_APP_ID
1365:.\Generated_Source\PSoC4/Bootloader.c **** *     Bootloader_GET_METADATA_BTLDB_APP_CUST_ID
1366:.\Generated_Source\PSoC4/Bootloader.c **** *
1367:.\Generated_Source\PSoC4/Bootloader.c **** *  appId:
1368:.\Generated_Source\PSoC4/Bootloader.c **** *   Number of the bootlodable application.
1369:.\Generated_Source\PSoC4/Bootloader.c **** *
1370:.\Generated_Source\PSoC4/Bootloader.c **** * Return:
1371:.\Generated_Source\PSoC4/Bootloader.c **** *  None
1372:.\Generated_Source\PSoC4/Bootloader.c **** *
1373:.\Generated_Source\PSoC4/Bootloader.c **** *******************************************************************************/
1374:.\Generated_Source\PSoC4/Bootloader.c **** static uint32 Bootloader_GetMetadata(uint8 fieldName, uint8 appId)
  45              		.loc 1 1374 0
  46              		.cfi_startproc
  47              	.LVL1:
  48 0000 38B5     		push	{r3, r4, r5, lr}
  49              	.LCFI0:
  50              		.cfi_def_cfa_offset 16
  51              		.cfi_offset 3, -16
ARM GAS  C:\Users\vrnk\AppData\Local\Temp\ccnz7Ubz.s 			page 26


  52              		.cfi_offset 4, -12
  53              		.cfi_offset 5, -8
  54              		.cfi_offset 14, -4
  55              		.loc 1 1374 0
  56 0002 041C     		mov	r4, r0
1375:.\Generated_Source\PSoC4/Bootloader.c **** {
1376:.\Generated_Source\PSoC4/Bootloader.c ****     uint32 fieldPtr;
1377:.\Generated_Source\PSoC4/Bootloader.c ****     uint8  fieldSize = 2u;
1378:.\Generated_Source\PSoC4/Bootloader.c ****     uint32 result;
1379:.\Generated_Source\PSoC4/Bootloader.c **** 
1380:.\Generated_Source\PSoC4/Bootloader.c ****     switch (fieldName)
  57              		.loc 1 1380 0
  58 0004 0138     		sub	r0, r0, #1
  59              	.LVL2:
  60 0006 0628     		cmp	r0, #6
  61 0008 0BD8     		bhi	.L3
  62 000a FFF7FEFF 		bl	__gnu_thumb1_case_uqi
  63              	.L11:
  64 000e 24       		.byte	(.L4-.L11)/2
  65 000f 06       		.byte	(.L5-.L11)/2
  66 0010 26       		.byte	(.L16-.L11)/2
  67 0011 0F       		.byte	(.L7-.L11)/2
  68 0012 11       		.byte	(.L17-.L11)/2
  69 0013 08       		.byte	(.L9-.L11)/2
  70 0014 04       		.byte	(.L10-.L11)/2
  71 0015 00       		.align	1
  72              	.L10:
1381:.\Generated_Source\PSoC4/Bootloader.c ****     {
1382:.\Generated_Source\PSoC4/Bootloader.c ****     case Bootloader_GET_METADATA_BTLDB_APP_CUST_ID:
1383:.\Generated_Source\PSoC4/Bootloader.c ****         fieldPtr  = Bootloader_MD_BTLDB_APP_CUST_ID_OFFSET(appId);
  73              		.loc 1 1383 0
  74 0016 1748     		ldr	r0, .L26
  75 0018 20E0     		b	.L6
  76              	.L5:
1384:.\Generated_Source\PSoC4/Bootloader.c ****         fieldSize = 4u;
1385:.\Generated_Source\PSoC4/Bootloader.c ****         break;
1386:.\Generated_Source\PSoC4/Bootloader.c **** 
1387:.\Generated_Source\PSoC4/Bootloader.c ****     case Bootloader_GET_METADATA_BTLDR_APP_VERSION:
1388:.\Generated_Source\PSoC4/Bootloader.c ****         fieldPtr  = Bootloader_MD_BTLDR_APP_VERSION_OFFSET(appId);
1389:.\Generated_Source\PSoC4/Bootloader.c ****         break;
1390:.\Generated_Source\PSoC4/Bootloader.c **** 
1391:.\Generated_Source\PSoC4/Bootloader.c ****     case Bootloader_GET_METADATA_BTLDB_ADDR:
1392:.\Generated_Source\PSoC4/Bootloader.c ****         fieldPtr  = Bootloader_MD_BTLDB_ADDR_OFFSET(appId);
1393:.\Generated_Source\PSoC4/Bootloader.c ****     #if(!CY_PSOC3)
1394:.\Generated_Source\PSoC4/Bootloader.c ****         fieldSize = 4u;
1395:.\Generated_Source\PSoC4/Bootloader.c ****     #endif  /* (!CY_PSOC3) */
1396:.\Generated_Source\PSoC4/Bootloader.c ****         break;
1397:.\Generated_Source\PSoC4/Bootloader.c **** 
1398:.\Generated_Source\PSoC4/Bootloader.c ****     case Bootloader_GET_METADATA_BTLDR_LAST_ROW:
1399:.\Generated_Source\PSoC4/Bootloader.c ****         fieldPtr  = Bootloader_MD_BTLDR_LAST_ROW_OFFSET(appId);
  77              		.loc 1 1399 0
  78 001a 174B     		ldr	r3, .L26+4
  79 001c 09E0     		b	.L8
  80              	.L9:
  81              	.LVL3:
1400:.\Generated_Source\PSoC4/Bootloader.c ****         break;
1401:.\Generated_Source\PSoC4/Bootloader.c **** 
ARM GAS  C:\Users\vrnk\AppData\Local\Temp\ccnz7Ubz.s 			page 27


1402:.\Generated_Source\PSoC4/Bootloader.c ****     case Bootloader_GET_METADATA_BTLDB_LENGTH:
1403:.\Generated_Source\PSoC4/Bootloader.c ****         fieldPtr  = Bootloader_MD_BTLDB_LENGTH_OFFSET(appId);
1404:.\Generated_Source\PSoC4/Bootloader.c ****     #if(!CY_PSOC3)
1405:.\Generated_Source\PSoC4/Bootloader.c ****         fieldSize = 4u;
1406:.\Generated_Source\PSoC4/Bootloader.c ****     #endif  /* (!CY_PSOC3) */
1407:.\Generated_Source\PSoC4/Bootloader.c ****         break;
1408:.\Generated_Source\PSoC4/Bootloader.c **** 
1409:.\Generated_Source\PSoC4/Bootloader.c ****     case Bootloader_GET_METADATA_BTLDB_APP_VERSION:
1410:.\Generated_Source\PSoC4/Bootloader.c ****         fieldPtr  = Bootloader_MD_BTLDB_APP_VERSION_OFFSET(appId);
1411:.\Generated_Source\PSoC4/Bootloader.c ****         break;
1412:.\Generated_Source\PSoC4/Bootloader.c **** 
1413:.\Generated_Source\PSoC4/Bootloader.c ****     case Bootloader_GET_METADATA_BTLDB_APP_ID:
1414:.\Generated_Source\PSoC4/Bootloader.c ****         fieldPtr  = Bootloader_MD_BTLDB_APP_ID_OFFSET(appId);
  82              		.loc 1 1414 0
  83 001e 174B     		ldr	r3, .L26+8
  84 0020 07E0     		b	.L8
  85              	.LVL4:
  86              	.L3:
1415:.\Generated_Source\PSoC4/Bootloader.c ****         break;
1416:.\Generated_Source\PSoC4/Bootloader.c **** 
1417:.\Generated_Source\PSoC4/Bootloader.c ****     default:
1418:.\Generated_Source\PSoC4/Bootloader.c ****         /* Should never be here */
1419:.\Generated_Source\PSoC4/Bootloader.c ****         CYASSERT(0u != 0u);
  87              		.loc 1 1419 0
  88 0022 0020     		mov	r0, #0
  89 0024 FFF7FEFF 		bl	CyHalt
  90              	.LVL5:
1420:.\Generated_Source\PSoC4/Bootloader.c ****         fieldPtr  = 0u;
  91              		.loc 1 1420 0
  92 0028 0023     		mov	r3, #0
  93 002a 02E0     		b	.L8
  94              	.LVL6:
  95              	.L7:
1388:.\Generated_Source\PSoC4/Bootloader.c ****         fieldPtr  = Bootloader_MD_BTLDR_APP_VERSION_OFFSET(appId);
  96              		.loc 1 1388 0
  97 002c 144B     		ldr	r3, .L26+12
  98 002e 00E0     		b	.L8
  99              	.L17:
1410:.\Generated_Source\PSoC4/Bootloader.c ****         fieldPtr  = Bootloader_MD_BTLDB_APP_VERSION_OFFSET(appId);
 100              		.loc 1 1410 0
 101 0030 144B     		ldr	r3, .L26+16
 102              	.L8:
 103              	.LVL7:
1421:.\Generated_Source\PSoC4/Bootloader.c ****         break;
1422:.\Generated_Source\PSoC4/Bootloader.c ****     }
1423:.\Generated_Source\PSoC4/Bootloader.c **** 
1424:.\Generated_Source\PSoC4/Bootloader.c **** 
1425:.\Generated_Source\PSoC4/Bootloader.c ****     /* Read all fields as big-endian */
1426:.\Generated_Source\PSoC4/Bootloader.c ****     if (2u == fieldSize)
1427:.\Generated_Source\PSoC4/Bootloader.c ****     {
1428:.\Generated_Source\PSoC4/Bootloader.c ****         result =  (uint32) CY_GET_XTND_REG8((volatile uint8 *)(fieldPtr + 1u));
 104              		.loc 1 1428 0
 105 0032 5A78     		ldrb	r2, [r3, #1]
 106              	.LVL8:
1429:.\Generated_Source\PSoC4/Bootloader.c ****         result |= (uint32) CY_GET_XTND_REG8((volatile uint8 *) fieldPtr      ) <<  8u;
 107              		.loc 1 1429 0
 108 0034 1878     		ldrb	r0, [r3]
ARM GAS  C:\Users\vrnk\AppData\Local\Temp\ccnz7Ubz.s 			page 28


 109 0036 0002     		lsl	r0, r0, #8
 110 0038 1043     		orr	r0, r2
 111              	.LVL9:
 112              	.L15:
1430:.\Generated_Source\PSoC4/Bootloader.c ****     }
1431:.\Generated_Source\PSoC4/Bootloader.c ****     else
1432:.\Generated_Source\PSoC4/Bootloader.c ****     {
1433:.\Generated_Source\PSoC4/Bootloader.c ****         result =  (uint32) CY_GET_XTND_REG8((volatile uint8 *)(fieldPtr + 3u));
1434:.\Generated_Source\PSoC4/Bootloader.c ****         result |= (uint32) CY_GET_XTND_REG8((volatile uint8 *)(fieldPtr + 2u)) <<  8u;
1435:.\Generated_Source\PSoC4/Bootloader.c ****         result |= (uint32) CY_GET_XTND_REG8((volatile uint8 *)(fieldPtr + 1u)) << 16u;
1436:.\Generated_Source\PSoC4/Bootloader.c ****         result |= (uint32) CY_GET_XTND_REG8((volatile uint8 *)(fieldPtr     )) << 24u;
1437:.\Generated_Source\PSoC4/Bootloader.c ****     }
1438:.\Generated_Source\PSoC4/Bootloader.c **** 
1439:.\Generated_Source\PSoC4/Bootloader.c ****     /* Following fields should be little-endian */
1440:.\Generated_Source\PSoC4/Bootloader.c **** #if(!CY_PSOC3)
1441:.\Generated_Source\PSoC4/Bootloader.c ****     switch (fieldName)
 113              		.loc 1 1441 0
 114 003a 022C     		cmp	r4, #2
 115 003c 04D0     		beq	.L14
 116 003e 032C     		cmp	r4, #3
 117 0040 07D0     		beq	.L13
 118 0042 012C     		cmp	r4, #1
 119 0044 15D1     		bne	.L24
 120 0046 04E0     		b	.L13
 121              	.L14:
1442:.\Generated_Source\PSoC4/Bootloader.c ****     {
1443:.\Generated_Source\PSoC4/Bootloader.c ****     case Bootloader_GET_METADATA_BTLDR_LAST_ROW:
1444:.\Generated_Source\PSoC4/Bootloader.c ****         result = CYSWAP_ENDIAN16(result);
 122              		.loc 1 1444 0
 123 0048 040A     		lsr	r4, r0, #8
 124 004a 0302     		lsl	r3, r0, #8
 125 004c 2343     		orr	r3, r4
 126 004e 98B2     		uxth	r0, r3
 127              	.LVL10:
 128 0050 0FE0     		b	.L24
 129              	.L13:
 130 0052 00BA     		rev	r0, r0
 131              	.LVL11:
 132 0054 0DE0     		b	.L24
 133              	.LVL12:
 134              	.L4:
1392:.\Generated_Source\PSoC4/Bootloader.c ****         fieldPtr  = Bootloader_MD_BTLDB_ADDR_OFFSET(appId);
 135              		.loc 1 1392 0
 136 0056 0C48     		ldr	r0, .L26+20
 137 0058 00E0     		b	.L6
 138              	.L16:
1403:.\Generated_Source\PSoC4/Bootloader.c ****         fieldPtr  = Bootloader_MD_BTLDB_LENGTH_OFFSET(appId);
 139              		.loc 1 1403 0
 140 005a 0C48     		ldr	r0, .L26+24
 141              	.L6:
 142              	.LVL13:
1433:.\Generated_Source\PSoC4/Bootloader.c ****         result =  (uint32) CY_GET_XTND_REG8((volatile uint8 *)(fieldPtr + 3u));
 143              		.loc 1 1433 0
 144 005c C578     		ldrb	r5, [r0, #3]
 145              	.LVL14:
1434:.\Generated_Source\PSoC4/Bootloader.c ****         result |= (uint32) CY_GET_XTND_REG8((volatile uint8 *)(fieldPtr + 2u)) <<  8u;
 146              		.loc 1 1434 0
ARM GAS  C:\Users\vrnk\AppData\Local\Temp\ccnz7Ubz.s 			page 29


 147 005e 8178     		ldrb	r1, [r0, #2]
 148              	.LVL15:
1435:.\Generated_Source\PSoC4/Bootloader.c ****         result |= (uint32) CY_GET_XTND_REG8((volatile uint8 *)(fieldPtr + 1u)) << 16u;
 149              		.loc 1 1435 0
 150 0060 4278     		ldrb	r2, [r0, #1]
 151              	.LVL16:
1436:.\Generated_Source\PSoC4/Bootloader.c ****         result |= (uint32) CY_GET_XTND_REG8((volatile uint8 *)(fieldPtr     )) << 24u;
 152              		.loc 1 1436 0
 153 0062 0378     		ldrb	r3, [r0]
 154 0064 1806     		lsl	r0, r3, #24
 155              	.LVL17:
1434:.\Generated_Source\PSoC4/Bootloader.c ****         result |= (uint32) CY_GET_XTND_REG8((volatile uint8 *)(fieldPtr + 2u)) <<  8u;
 156              		.loc 1 1434 0
 157 0066 2843     		orr	r0, r5
 158 0068 0D02     		lsl	r5, r1, #8
 159              	.LVL18:
1435:.\Generated_Source\PSoC4/Bootloader.c ****         result |= (uint32) CY_GET_XTND_REG8((volatile uint8 *)(fieldPtr + 1u)) << 16u;
 160              		.loc 1 1435 0
 161 006a 2843     		orr	r0, r5
 162 006c 1104     		lsl	r1, r2, #16
1436:.\Generated_Source\PSoC4/Bootloader.c ****         result |= (uint32) CY_GET_XTND_REG8((volatile uint8 *)(fieldPtr     )) << 24u;
 163              		.loc 1 1436 0
 164 006e 0843     		orr	r0, r1
 165              	.LVL19:
 166 0070 E3E7     		b	.L15
 167              	.LVL20:
 168              	.L24:
1445:.\Generated_Source\PSoC4/Bootloader.c ****         break;
1446:.\Generated_Source\PSoC4/Bootloader.c **** 
1447:.\Generated_Source\PSoC4/Bootloader.c ****     case Bootloader_GET_METADATA_BTLDB_ADDR:
1448:.\Generated_Source\PSoC4/Bootloader.c ****     case Bootloader_GET_METADATA_BTLDB_LENGTH:
1449:.\Generated_Source\PSoC4/Bootloader.c ****         result = CYSWAP_ENDIAN32(result);
1450:.\Generated_Source\PSoC4/Bootloader.c ****         break;
1451:.\Generated_Source\PSoC4/Bootloader.c **** 
1452:.\Generated_Source\PSoC4/Bootloader.c ****     default:
1453:.\Generated_Source\PSoC4/Bootloader.c ****         break;
1454:.\Generated_Source\PSoC4/Bootloader.c ****     }
1455:.\Generated_Source\PSoC4/Bootloader.c **** 
1456:.\Generated_Source\PSoC4/Bootloader.c **** #endif  /* (!CY_PSOC3) */
1457:.\Generated_Source\PSoC4/Bootloader.c **** 
1458:.\Generated_Source\PSoC4/Bootloader.c ****     return (result);
1459:.\Generated_Source\PSoC4/Bootloader.c **** }
 169              		.loc 1 1459 0
 170              		@ sp needed for prologue
 171 0072 38BD     		pop	{r3, r4, r5, pc}
 172              	.L27:
 173              		.align	2
 174              	.L26:
 175 0074 D87F0000 		.word	32728
 176 0078 C57F0000 		.word	32709
 177 007c D47F0000 		.word	32724
 178 0080 D27F0000 		.word	32722
 179 0084 D67F0000 		.word	32726
 180 0088 C17F0000 		.word	32705
 181 008c C97F0000 		.word	32713
 182              		.cfi_endproc
 183              	.LFE44:
ARM GAS  C:\Users\vrnk\AppData\Local\Temp\ccnz7Ubz.s 			page 30


 184              		.size	Bootloader_GetMetadata.constprop.2, .-Bootloader_GetMetadata.constprop.2
 185              		.section	.text.Bootloader_ValidateBootloadable.constprop.1,"ax",%progbits
 186              		.align	1
 187              		.code	16
 188              		.thumb_func
 189              		.type	Bootloader_ValidateBootloadable.constprop.1, %function
 190              	Bootloader_ValidateBootloadable.constprop.1:
 191              	.LFB45:
 501:.\Generated_Source\PSoC4/Bootloader.c **** static cystatus Bootloader_ValidateBootloadable(uint8 appId) CYSMALL \
 192              		.loc 1 501 0
 193              		.cfi_startproc
 194              	.LVL21:
 195 0000 38B5     		push	{r3, r4, r5, lr}
 196              	.LCFI1:
 197              		.cfi_def_cfa_offset 16
 198              		.cfi_offset 3, -16
 199              		.cfi_offset 4, -12
 200              		.cfi_offset 5, -8
 201              		.cfi_offset 14, -4
 506:.\Generated_Source\PSoC4/Bootloader.c ****         uint32 CYDATA end   = Bootloader_FIRST_APP_BYTE(appId) +
 202              		.loc 1 506 0
 203 0002 0220     		mov	r0, #2
 204 0004 FFF7FEFF 		bl	Bootloader_GetMetadata.constprop.2
 205              	.LVL22:
 206 0008 051C     		mov	r5, r0
 507:.\Generated_Source\PSoC4/Bootloader.c ****                                 Bootloader_GetMetadata(Bootloader_GET_METADATA_BTLDB_LENGTH,
 207              		.loc 1 507 0
 208 000a 0320     		mov	r0, #3
 209 000c FFF7FEFF 		bl	Bootloader_GetMetadata.constprop.2
 210              	.LVL23:
 506:.\Generated_Source\PSoC4/Bootloader.c ****         uint32 CYDATA end   = Bootloader_FIRST_APP_BYTE(appId) +
 211              		.loc 1 506 0
 212 0010 6C1C     		add	r4, r5, #1
 213 0012 E101     		lsl	r1, r4, #7
 214 0014 0C18     		add	r4, r1, r0
 215              	.LVL24:
 535:.\Generated_Source\PSoC4/Bootloader.c ****         for(idx = Bootloader_FIRST_APP_BYTE(appId); idx < end; ++idx)
 216              		.loc 1 535 0
 217 0016 0220     		mov	r0, #2
 218 0018 FFF7FEFF 		bl	Bootloader_GetMetadata.constprop.2
 219              	.LVL25:
 511:.\Generated_Source\PSoC4/Bootloader.c ****         uint8  CYDATA calcedChecksum = 0u;
 220              		.loc 1 511 0
 221 001c 0023     		mov	r3, #0
 535:.\Generated_Source\PSoC4/Bootloader.c ****         for(idx = Bootloader_FIRST_APP_BYTE(appId); idx < end; ++idx)
 222              		.loc 1 535 0
 223 001e 421C     		add	r2, r0, #1
 224 0020 D201     		lsl	r2, r2, #7
 225              	.LVL26:
 510:.\Generated_Source\PSoC4/Bootloader.c ****         CYBIT         valid = 0u; /* Assume bad flash image */
 226              		.loc 1 510 0
 227 0022 191C     		mov	r1, r3
 228              	.LVL27:
 229              	.L29:
 535:.\Generated_Source\PSoC4/Bootloader.c ****         for(idx = Bootloader_FIRST_APP_BYTE(appId); idx < end; ++idx)
 230              		.loc 1 535 0
 231 0024 A242     		cmp	r2, r4
ARM GAS  C:\Users\vrnk\AppData\Local\Temp\ccnz7Ubz.s 			page 31


 232 0026 09D2     		bcs	.L39
 233              	.L31:
 234              	.LBB8:
 537:.\Generated_Source\PSoC4/Bootloader.c ****             uint8 CYDATA curByte = Bootloader_GET_CODE_BYTE(idx);
 235              		.loc 1 537 0
 236 0028 1078     		ldrb	r0, [r2]
 237              	.LVL28:
 539:.\Generated_Source\PSoC4/Bootloader.c ****             if((curByte != 0u) && (curByte != 0xFFu))
 238              		.loc 1 539 0
 239 002a 451E     		sub	r5, r0, #1
 240 002c EDB2     		uxtb	r5, r5
 241 002e FD2D     		cmp	r5, #253
 242 0030 00D8     		bhi	.L30
 541:.\Generated_Source\PSoC4/Bootloader.c ****                 valid = 1u;
 243              		.loc 1 541 0
 244 0032 0121     		mov	r1, #1
 245              	.L30:
 544:.\Generated_Source\PSoC4/Bootloader.c ****             calcedChecksum += curByte;
 246              		.loc 1 544 0
 247 0034 C318     		add	r3, r0, r3
 248              	.LVL29:
 249 0036 DBB2     		uxtb	r3, r3
 250              	.LVL30:
 251              	.LBE8:
 535:.\Generated_Source\PSoC4/Bootloader.c ****         for(idx = Bootloader_FIRST_APP_BYTE(appId); idx < end; ++idx)
 252              		.loc 1 535 0
 253 0038 0132     		add	r2, r2, #1
 254              	.LVL31:
 255 003a F3E7     		b	.L29
 256              	.LVL32:
 257              	.L39:
 575:.\Generated_Source\PSoC4/Bootloader.c ****         if((calcedChecksum != Bootloader_MD_BTLDB_CHECKSUM_VALUE(appId)) ||
 258              		.loc 1 575 0
 259 003c 0548     		ldr	r0, .L40
 573:.\Generated_Source\PSoC4/Bootloader.c ****         calcedChecksum = ( uint8 )1u + ( uint8 )(~calcedChecksum);
 260              		.loc 1 573 0
 261 003e 5B42     		neg	r3, r3
 262              	.LVL33:
 575:.\Generated_Source\PSoC4/Bootloader.c ****         if((calcedChecksum != Bootloader_MD_BTLDB_CHECKSUM_VALUE(appId)) ||
 263              		.loc 1 575 0
 264 0040 0578     		ldrb	r5, [r0]
 265 0042 DCB2     		uxtb	r4, r3
 266              	.LVL34:
 267 0044 AC42     		cmp	r4, r5
 268 0046 01D0     		beq	.L32
 269              	.L34:
 578:.\Generated_Source\PSoC4/Bootloader.c ****             return(CYRET_BAD_DATA);
 270              		.loc 1 578 0
 271 0048 0620     		mov	r0, #6
 272 004a 02E0     		b	.L33
 273              	.L32:
 575:.\Generated_Source\PSoC4/Bootloader.c ****         if((calcedChecksum != Bootloader_MD_BTLDB_CHECKSUM_VALUE(appId)) ||
 274              		.loc 1 575 0
 275 004c 0029     		cmp	r1, #0
 276 004e FBD0     		beq	.L34
 588:.\Generated_Source\PSoC4/Bootloader.c ****         return(CYRET_SUCCESS);
 277              		.loc 1 588 0
ARM GAS  C:\Users\vrnk\AppData\Local\Temp\ccnz7Ubz.s 			page 32


 278 0050 0020     		mov	r0, #0
 279              	.L33:
 589:.\Generated_Source\PSoC4/Bootloader.c **** }
 280              		.loc 1 589 0
 281              		@ sp needed for prologue
 282 0052 38BD     		pop	{r3, r4, r5, pc}
 283              	.L41:
 284              		.align	2
 285              	.L40:
 286 0054 C07F0000 		.word	32704
 287              		.cfi_endproc
 288              	.LFE45:
 289              		.size	Bootloader_ValidateBootloadable.constprop.1, .-Bootloader_ValidateBootloadable.constprop.1
 290              		.section	.text.Bootloader_HostLink.constprop.0,"ax",%progbits
 291              		.align	1
 292              		.code	16
 293              		.thumb_func
 294              		.type	Bootloader_HostLink.constprop.0, %function
 295              	Bootloader_HostLink.constprop.0:
 296              	.LFB46:
 610:.\Generated_Source\PSoC4/Bootloader.c **** static void Bootloader_HostLink(uint8 timeOut) 
 297              		.loc 1 610 0
 298              		.cfi_startproc
 299              	.LVL35:
 300 0000 F0B5     		push	{r4, r5, r6, r7, lr}
 301              	.LCFI2:
 302              		.cfi_def_cfa_offset 20
 303              		.cfi_offset 4, -20
 304              		.cfi_offset 5, -16
 305              		.cfi_offset 6, -12
 306              		.cfi_offset 7, -8
 307              		.cfi_offset 14, -4
 308 0002 A34C     		ldr	r4, .L103
 309 0004 A544     		add	sp, sp, r4
 310              	.LCFI3:
 311              		.cfi_def_cfa_offset 768
 632:.\Generated_Source\PSoC4/Bootloader.c ****     CyBtldrCommStart();
 312              		.loc 1 632 0
 313 0006 FFF7FEFF 		bl	CyBtldrCommStart
 314              	.LVL36:
 635:.\Generated_Source\PSoC4/Bootloader.c ****     CyGlobalIntEnable;
 315              		.loc 1 635 0
 316              	@ 635 ".\Generated_Source\PSoC4\Bootloader.c" 1
 317 000a 62B6     		CPSIE   i
 318              	@ 0 "" 2
 625:.\Generated_Source\PSoC4/Bootloader.c ****     CYBIT     communicationState = Bootloader_COMMUNICATION_STATE_IDLE;
 319              		.loc 1 625 0
 320              		.code	16
 321 000c 0025     		mov	r5, #0
 622:.\Generated_Source\PSoC4/Bootloader.c ****         uint8 CYDATA clearedMetaData = 0u;
 322              		.loc 1 622 0
 323 000e 0095     		str	r5, [sp]
 324              	.LVL37:
 325              	.L83:
 326              	.LBB22:
1029:.\Generated_Source\PSoC4/Bootloader.c ****                     dataOffset = 0u;
 327              		.loc 1 1029 0
ARM GAS  C:\Users\vrnk\AppData\Local\Temp\ccnz7Ubz.s 			page 33


 328 0010 0026     		mov	r6, #0
 329              	.L94:
 330              	.LBE22:
 643:.\Generated_Source\PSoC4/Bootloader.c ****             readStat = CyBtldrCommRead(packetBuffer,
 331              		.loc 1 643 0
 332 0012 03AF     		add	r7, sp, #12
 333 0014 9621     		mov	r1, #150
 334 0016 24A8     		add	r0, sp, #144
 335 0018 4900     		lsl	r1, r1, #1
 336 001a 3A1C     		mov	r2, r7
 337 001c FF23     		mov	r3, #255
 338 001e FFF7FEFF 		bl	CyBtldrCommRead
 339              	.LVL38:
 652:.\Generated_Source\PSoC4/Bootloader.c ****         } while ( (0u != timeOutCnt) && (readStat != CYRET_SUCCESS) );
 340              		.loc 1 652 0
 341 0022 0028     		cmp	r0, #0
 342 0024 F5D1     		bne	.L94
 660:.\Generated_Source\PSoC4/Bootloader.c ****         if((numberRead < Bootloader_MIN_PKT_SIZE) ||
 343              		.loc 1 660 0
 344 0026 3988     		ldrh	r1, [r7]
 663:.\Generated_Source\PSoC4/Bootloader.c ****             ackCode = Bootloader_ERR_DATA;
 345              		.loc 1 663 0
 346 0028 0423     		mov	r3, #4
 660:.\Generated_Source\PSoC4/Bootloader.c ****         if((numberRead < Bootloader_MIN_PKT_SIZE) ||
 347              		.loc 1 660 0
 348 002a 0629     		cmp	r1, #6
 349 002c 67D9     		bls	.L97
 350 002e 24AA     		add	r2, sp, #144
 351 0030 1478     		ldrb	r4, [r2]
 352 0032 012C     		cmp	r4, #1
 353 0034 63D1     		bne	.L97
 667:.\Generated_Source\PSoC4/Bootloader.c ****             pktSize = ((uint16)((uint16)packetBuffer[Bootloader_SIZE_ADDR + 1u] << 8u)) |
 354              		.loc 1 667 0
 355 0036 9323     		mov	r3, #147
 356 0038 6B44     		add	r3, r3, sp
 357 003a 9222     		mov	r2, #146
 358 003c 1F78     		ldrb	r7, [r3]
 359 003e 6A44     		add	r2, r2, sp
 360 0040 1378     		ldrb	r3, [r2]
 361 0042 3C02     		lsl	r4, r7, #8
 362 0044 1C43     		orr	r4, r3
 363              	.LVL39:
 670:.\Generated_Source\PSoC4/Bootloader.c ****             pktChecksum = ((uint16)((uint16)packetBuffer[Bootloader_CHK_ADDR(pktSize) + 1u] << 8u))
 364              		.loc 1 670 0
 365 0046 24AF     		add	r7, sp, #144
 366 0048 3A19     		add	r2, r7, r4
 671:.\Generated_Source\PSoC4/Bootloader.c ****                                    packetBuffer[Bootloader_CHK_ADDR(pktSize)];
 367              		.loc 1 671 0
 368 004a 1779     		ldrb	r7, [r2, #4]
 670:.\Generated_Source\PSoC4/Bootloader.c ****             pktChecksum = ((uint16)((uint16)packetBuffer[Bootloader_CHK_ADDR(pktSize) + 1u] << 8u))
 369              		.loc 1 670 0
 370 004c 5379     		ldrb	r3, [r2, #5]
 671:.\Generated_Source\PSoC4/Bootloader.c ****                                    packetBuffer[Bootloader_CHK_ADDR(pktSize)];
 371              		.loc 1 671 0
 372 004e 0197     		str	r7, [sp, #4]
 673:.\Generated_Source\PSoC4/Bootloader.c ****             if((pktSize + Bootloader_MIN_PKT_SIZE) > numberRead)
 373              		.loc 1 673 0
ARM GAS  C:\Users\vrnk\AppData\Local\Temp\ccnz7Ubz.s 			page 34


 374 0050 E71D     		add	r7, r4, #7
 670:.\Generated_Source\PSoC4/Bootloader.c ****             pktChecksum = ((uint16)((uint16)packetBuffer[Bootloader_CHK_ADDR(pktSize) + 1u] << 8u))
 375              		.loc 1 670 0
 376 0052 9C46     		mov	ip, r3
 377              	.LVL40:
 675:.\Generated_Source\PSoC4/Bootloader.c ****                 ackCode = Bootloader_ERR_LENGTH;
 378              		.loc 1 675 0
 379 0054 0323     		mov	r3, #3
 380              	.LVL41:
 673:.\Generated_Source\PSoC4/Bootloader.c ****             if((pktSize + Bootloader_MIN_PKT_SIZE) > numberRead)
 381              		.loc 1 673 0
 382 0056 8F42     		cmp	r7, r1
 383 0058 51D8     		bhi	.L97
 677:.\Generated_Source\PSoC4/Bootloader.c ****             else if(packetBuffer[Bootloader_EOP_ADDR(pktSize)] != Bootloader_EOP)
 384              		.loc 1 677 0
 385 005a 9179     		ldrb	r1, [r2, #6]
 663:.\Generated_Source\PSoC4/Bootloader.c ****             ackCode = Bootloader_ERR_DATA;
 386              		.loc 1 663 0
 387 005c 0423     		mov	r3, #4
 677:.\Generated_Source\PSoC4/Bootloader.c ****             else if(packetBuffer[Bootloader_EOP_ADDR(pktSize)] != Bootloader_EOP)
 388              		.loc 1 677 0
 389 005e 1729     		cmp	r1, #23
 390 0060 4DD1     		bne	.L97
 681:.\Generated_Source\PSoC4/Bootloader.c ****             else if(pktChecksum != Bootloader_CalcPacketChecksum(packetBuffer,
 391              		.loc 1 681 0
 392 0062 E318     		add	r3, r4, r3
 393              	.LVL42:
 394              	.L96:
 395              	.LBB29:
 396              	.LBB30:
 162:.\Generated_Source\PSoC4/Bootloader.c ****             size--;
 397              		.loc 1 162 0
 398 0064 9BB2     		uxth	r3, r3
 399              	.LVL43:
 159:.\Generated_Source\PSoC4/Bootloader.c ****         while (size > 0u)
 400              		.loc 1 159 0
 401 0066 002B     		cmp	r3, #0
 402 0068 08D0     		beq	.L100
 403              	.L47:
 161:.\Generated_Source\PSoC4/Bootloader.c ****             sum += buffer[size - 1u];
 404              		.loc 1 161 0
 405 006a BAAA     		add	r2, sp, #744
 406 006c 8949     		ldr	r1, .L103+4
 407 006e D718     		add	r7, r2, r3
 408 0070 7A18     		add	r2, r7, r1
 409 0072 1778     		ldrb	r7, [r2]
 162:.\Generated_Source\PSoC4/Bootloader.c ****             size--;
 410              		.loc 1 162 0
 411 0074 013B     		sub	r3, r3, #1
 412              	.LVL44:
 161:.\Generated_Source\PSoC4/Bootloader.c ****             sum += buffer[size - 1u];
 413              		.loc 1 161 0
 414 0076 C019     		add	r0, r0, r7
 415              	.LVL45:
 416 0078 80B2     		uxth	r0, r0
 417              	.LVL46:
 418 007a F3E7     		b	.L96
ARM GAS  C:\Users\vrnk\AppData\Local\Temp\ccnz7Ubz.s 			page 35


 419              	.LVL47:
 420              	.L100:
 421              	.LBE30:
 422              	.LBE29:
 670:.\Generated_Source\PSoC4/Bootloader.c ****             pktChecksum = ((uint16)((uint16)packetBuffer[Bootloader_CHK_ADDR(pktSize) + 1u] << 8u))
 423              		.loc 1 670 0
 424 007c 6246     		mov	r2, ip
 425              	.LBB32:
 426              	.LBB31:
 165:.\Generated_Source\PSoC4/Bootloader.c ****         return(( uint16 )1u + ( uint16 )(~sum));
 427              		.loc 1 165 0
 428 007e 4042     		neg	r0, r0
 429              	.LVL48:
 430              	.LBE31:
 431              	.LBE32:
 681:.\Generated_Source\PSoC4/Bootloader.c ****             else if(pktChecksum != Bootloader_CalcPacketChecksum(packetBuffer,
 432              		.loc 1 681 0
 433 0080 019F     		ldr	r7, [sp, #4]
 670:.\Generated_Source\PSoC4/Bootloader.c ****             pktChecksum = ((uint16)((uint16)packetBuffer[Bootloader_CHK_ADDR(pktSize) + 1u] << 8u))
 434              		.loc 1 670 0
 435 0082 1102     		lsl	r1, r2, #8
 681:.\Generated_Source\PSoC4/Bootloader.c ****             else if(pktChecksum != Bootloader_CalcPacketChecksum(packetBuffer,
 436              		.loc 1 681 0
 437 0084 82B2     		uxth	r2, r0
 438 0086 3943     		orr	r1, r7
 684:.\Generated_Source\PSoC4/Bootloader.c ****                 ackCode = Bootloader_ERR_CHECKSUM;
 439              		.loc 1 684 0
 440 0088 0823     		mov	r3, #8
 441              	.LVL49:
 681:.\Generated_Source\PSoC4/Bootloader.c ****             else if(pktChecksum != Bootloader_CalcPacketChecksum(packetBuffer,
 442              		.loc 1 681 0
 443 008a 9142     		cmp	r1, r2
 444 008c 37D1     		bne	.L97
 445 008e 68E0     		b	.L101
 446              	.LVL50:
 447              	.L52:
 448              	.LBB33:
 825:.\Generated_Source\PSoC4/Bootloader.c ****                 if (Bootloader_COMMAND_ERASE == packetBuffer[Bootloader_CMD_ADDR])
 449              		.loc 1 825 0
 450 0090 3429     		cmp	r1, #52
 451 0092 00D0     		beq	.LCB435
 452 0094 9AE0     		b	.L53	@long jump
 453              	.LCB435:
 827:.\Generated_Source\PSoC4/Bootloader.c ****                     if ((Bootloader_COMMUNICATION_STATE_ACTIVE == communicationState) && (pktSize =
 454              		.loc 1 827 0
 455 0096 012D     		cmp	r5, #1
 456 0098 00D0     		beq	.LCB437
 457 009a F6E0     		b	.L88	@long jump
 458              	.LCB437:
 459 009c 032C     		cmp	r4, #3
 460 009e 00D0     		beq	.LCB439
 461 00a0 F3E0     		b	.L88	@long jump
 462              	.LCB439:
 463              	.LVL51:
 849:.\Generated_Source\PSoC4/Bootloader.c ****                             (void) memset(dataBuffer, 0, dataOffset);
 464              		.loc 1 849 0
 465 00a2 6FA8     		add	r0, sp, #444
ARM GAS  C:\Users\vrnk\AppData\Local\Temp\ccnz7Ubz.s 			page 36


 466 00a4 0021     		mov	r1, #0
 467 00a6 8022     		mov	r2, #128
 468 00a8 FFF7FEFF 		bl	memset
 469              	.LVL52:
 843:.\Generated_Source\PSoC4/Bootloader.c ****                             dataOffset = Bootloader_FROW_SIZE;
 470              		.loc 1 843 0
 471 00ac 8026     		mov	r6, #128
 472              	.LVL53:
 473              	.L54:
 870:.\Generated_Source\PSoC4/Bootloader.c ****                         (void) memcpy(&dataBuffer[dataOffset],
 474              		.loc 1 870 0
 475 00ae 6FA9     		add	r1, sp, #444
 476 00b0 8819     		add	r0, r1, r6
 875:.\Generated_Source\PSoC4/Bootloader.c ****                     dataOffset += (pktSize - 3u);
 477              		.loc 1 875 0
 478 00b2 3519     		add	r5, r6, r4
 870:.\Generated_Source\PSoC4/Bootloader.c ****                         (void) memcpy(&dataBuffer[dataOffset],
 479              		.loc 1 870 0
 480 00b4 2639     		sub	r1, r1, #38
 481 00b6 E21E     		sub	r2, r4, #3
 482 00b8 FF39     		sub	r1, r1, #255
 899:.\Generated_Source\PSoC4/Bootloader.c ****                     if(dataOffset == pktSize)
 483              		.loc 1 899 0
 484 00ba AEB2     		uxth	r6, r5
 870:.\Generated_Source\PSoC4/Bootloader.c ****                         (void) memcpy(&dataBuffer[dataOffset],
 485              		.loc 1 870 0
 486 00bc FFF7FEFF 		bl	memcpy
 487              	.LVL54:
 899:.\Generated_Source\PSoC4/Bootloader.c ****                     if(dataOffset == pktSize)
 488              		.loc 1 899 0
 489 00c0 832E     		cmp	r6, #131
 490 00c2 00D0     		beq	.LCB465
 491 00c4 DAE0     		b	.L81	@long jump
 492              	.LCB465:
 902:.\Generated_Source\PSoC4/Bootloader.c ****                         dataOffset = ((uint16)((uint16)packetBuffer[Bootloader_DATA_ADDR + 2u] << 8
 493              		.loc 1 902 0
 494 00c6 BC79     		ldrb	r4, [r7, #6]
 495 00c8 7979     		ldrb	r1, [r7, #5]
 912:.\Generated_Source\PSoC4/Bootloader.c ****                             if(0u == clearedMetaData)
 496              		.loc 1 912 0
 497 00ca 009F     		ldr	r7, [sp]
 902:.\Generated_Source\PSoC4/Bootloader.c ****                         dataOffset = ((uint16)((uint16)packetBuffer[Bootloader_DATA_ADDR + 2u] << 8
 498              		.loc 1 902 0
 499 00cc 2602     		lsl	r6, r4, #8
 500 00ce 0E43     		orr	r6, r1
 501              	.LVL55:
 912:.\Generated_Source\PSoC4/Bootloader.c ****                             if(0u == clearedMetaData)
 502              		.loc 1 912 0
 503 00d0 002F     		cmp	r7, #0
 504 00d2 0AD1     		bne	.L55
 505              	.LBB23:
 921:.\Generated_Source\PSoC4/Bootloader.c ****                                     (void) memset(erase, 0, Bootloader_FROW_SIZE);
 506              		.loc 1 921 0
 507 00d4 391C     		mov	r1, r7
 508 00d6 8022     		mov	r2, #128
 509 00d8 04A8     		add	r0, sp, #16
 510 00da FFF7FEFF 		bl	memset
ARM GAS  C:\Users\vrnk\AppData\Local\Temp\ccnz7Ubz.s 			page 37


 511              	.LVL56:
 925:.\Generated_Source\PSoC4/Bootloader.c ****                                     (void) CySysFlashWriteRow(Bootloader_MD_ROW, erase);
 512              		.loc 1 925 0
 513 00de FF20     		mov	r0, #255
 514 00e0 04A9     		add	r1, sp, #16
 515 00e2 FFF7FEFF 		bl	CySysFlashWriteRow
 516              	.LVL57:
 934:.\Generated_Source\PSoC4/Bootloader.c ****                                 clearedMetaData = 1u;
 517              		.loc 1 934 0
 518 00e6 0120     		mov	r0, #1
 519 00e8 0090     		str	r0, [sp]
 520              	.LVL58:
 521              	.L55:
 522              	.LBE23:
 996:.\Generated_Source\PSoC4/Bootloader.c ****                             ackCode = (CYRET_SUCCESS != CySysFlashWriteRow((uint32) dataOffset, dat
 523              		.loc 1 996 0
 524 00ea 301C     		mov	r0, r6
 525 00ec 6FA9     		add	r1, sp, #444
 526 00ee FFF7FEFF 		bl	CySysFlashWriteRow
 527              	.LVL59:
 528 00f2 0125     		mov	r5, #1
 529 00f4 0028     		cmp	r0, #0
 530 00f6 00D1     		bne	.LCB500
 531 00f8 C3E0     		b	.L82	@long jump
 532              	.LCB500:
1014:.\Generated_Source\PSoC4/Bootloader.c ****                     dataOffset = 0u;
 533              		.loc 1 1014 0
 534 00fa 0026     		mov	r6, #0
 535              	.LVL60:
 996:.\Generated_Source\PSoC4/Bootloader.c ****                             ackCode = (CYRET_SUCCESS != CySysFlashWriteRow((uint32) dataOffset, dat
 536              		.loc 1 996 0
 537 00fc 0A23     		mov	r3, #10
 538              	.LVL61:
 539              	.L97:
 692:.\Generated_Source\PSoC4/Bootloader.c ****         rspSize = 0u;
 540              		.loc 1 692 0
 541 00fe 0021     		mov	r1, #0
 542              	.L50:
 543              	.LVL62:
 544              	.LBE33:
 545              	.LBB34:
 546              	.LBB35:
1287:.\Generated_Source\PSoC4/Bootloader.c ****     buffer[Bootloader_CMD_ADDR]      = status;
 547              		.loc 1 1287 0
 548 0100 6846     		mov	r0, sp
 549              	.LVL63:
 550 0102 9130     		add	r0, r0, #145
 551              	.LVL64:
1286:.\Generated_Source\PSoC4/Bootloader.c ****     buffer[Bootloader_SOP_ADDR]      = Bootloader_SOP;
 552              		.loc 1 1286 0
 553 0104 0127     		mov	r7, #1
1287:.\Generated_Source\PSoC4/Bootloader.c ****     buffer[Bootloader_CMD_ADDR]      = status;
 554              		.loc 1 1287 0
 555 0106 0370     		strb	r3, [r0]
 556 0108 6A46     		mov	r2, sp
 557              	.LVL65:
1286:.\Generated_Source\PSoC4/Bootloader.c ****     buffer[Bootloader_SOP_ADDR]      = Bootloader_SOP;
ARM GAS  C:\Users\vrnk\AppData\Local\Temp\ccnz7Ubz.s 			page 38


 558              		.loc 1 1286 0
 559 010a 24AC     		add	r4, sp, #144
 560              	.LVL66:
1288:.\Generated_Source\PSoC4/Bootloader.c ****     buffer[Bootloader_SIZE_ADDR]     = LO8(size);
 561              		.loc 1 1288 0
 562 010c 6B46     		mov	r3, sp
 563              	.LVL67:
 564 010e 9233     		add	r3, r3, #146
 565 0110 0E32     		add	r2, r2, #14
 566              	.LVL68:
1286:.\Generated_Source\PSoC4/Bootloader.c ****     buffer[Bootloader_SOP_ADDR]      = Bootloader_SOP;
 567              		.loc 1 1286 0
 568 0112 2770     		strb	r7, [r4]
1289:.\Generated_Source\PSoC4/Bootloader.c ****     buffer[Bootloader_SIZE_ADDR + 1u] = HI8(size);
 569              		.loc 1 1289 0
 570 0114 0020     		mov	r0, #0
1292:.\Generated_Source\PSoC4/Bootloader.c ****     checksum = Bootloader_CalcPacketChecksum(buffer, size + Bootloader_DATA_ADDR);
 571              		.loc 1 1292 0
 572 0116 0F1D     		add	r7, r1, #4
1288:.\Generated_Source\PSoC4/Bootloader.c ****     buffer[Bootloader_SIZE_ADDR]     = LO8(size);
 573              		.loc 1 1288 0
 574 0118 1970     		strb	r1, [r3]
1289:.\Generated_Source\PSoC4/Bootloader.c ****     buffer[Bootloader_SIZE_ADDR + 1u] = HI8(size);
 575              		.loc 1 1289 0
 576 011a 5870     		strb	r0, [r3, #1]
 577 011c 1180     		strh	r1, [r2]
1292:.\Generated_Source\PSoC4/Bootloader.c ****     checksum = Bootloader_CalcPacketChecksum(buffer, size + Bootloader_DATA_ADDR);
 578              		.loc 1 1292 0
 579 011e BBB2     		uxth	r3, r7
 580              	.LVL69:
 581              	.L65:
 582              	.LBB36:
 583              	.LBB37:
 161:.\Generated_Source\PSoC4/Bootloader.c ****             sum += buffer[size - 1u];
 584              		.loc 1 161 0
 585 0120 5C4F     		ldr	r7, .L103+4
 586 0122 BAAC     		add	r4, sp, #744
 587 0124 E418     		add	r4, r4, r3
 588 0126 E419     		add	r4, r4, r7
 589 0128 2778     		ldrb	r7, [r4]
 162:.\Generated_Source\PSoC4/Bootloader.c ****             size--;
 590              		.loc 1 162 0
 591 012a 013B     		sub	r3, r3, #1
 161:.\Generated_Source\PSoC4/Bootloader.c ****             sum += buffer[size - 1u];
 592              		.loc 1 161 0
 593 012c C019     		add	r0, r0, r7
 162:.\Generated_Source\PSoC4/Bootloader.c ****             size--;
 594              		.loc 1 162 0
 595 012e 9BB2     		uxth	r3, r3
 161:.\Generated_Source\PSoC4/Bootloader.c ****             sum += buffer[size - 1u];
 596              		.loc 1 161 0
 597 0130 80B2     		uxth	r0, r0
 598              	.LVL70:
 159:.\Generated_Source\PSoC4/Bootloader.c ****         while (size > 0u)
 599              		.loc 1 159 0
 600 0132 002B     		cmp	r3, #0
 601 0134 F4D1     		bne	.L65
ARM GAS  C:\Users\vrnk\AppData\Local\Temp\ccnz7Ubz.s 			page 39


 165:.\Generated_Source\PSoC4/Bootloader.c ****         return(( uint16 )1u + ( uint16 )(~sum));
 602              		.loc 1 165 0
 603 0136 4442     		neg	r4, r0
 604 0138 A0B2     		uxth	r0, r4
 605              	.LVL71:
 606              	.LBE37:
 607              	.LBE36:
1294:.\Generated_Source\PSoC4/Bootloader.c ****     buffer[Bootloader_CHK_ADDR(size)]     = LO8(checksum);
 608              		.loc 1 1294 0
 609 013a BAAF     		add	r7, sp, #744
 610 013c 564C     		ldr	r4, .L103+8
 611              	.LVL72:
 612 013e 7B18     		add	r3, r7, r1
 613              	.LVL73:
 614 0140 1F19     		add	r7, r3, r4
1295:.\Generated_Source\PSoC4/Bootloader.c ****     buffer[Bootloader_CHK_ADDR(1u + size)] = HI8(checksum);
 615              		.loc 1 1295 0
 616 0142 564C     		ldr	r4, .L103+12
1294:.\Generated_Source\PSoC4/Bootloader.c ****     buffer[Bootloader_CHK_ADDR(size)]     = LO8(checksum);
 617              		.loc 1 1294 0
 618 0144 3870     		strb	r0, [r7]
1295:.\Generated_Source\PSoC4/Bootloader.c ****     buffer[Bootloader_CHK_ADDR(1u + size)] = HI8(checksum);
 619              		.loc 1 1295 0
 620 0146 1F19     		add	r7, r3, r4
1296:.\Generated_Source\PSoC4/Bootloader.c ****     buffer[Bootloader_EOP_ADDR(size)]     = Bootloader_EOP;
 621              		.loc 1 1296 0
 622 0148 554C     		ldr	r4, .L103+16
1295:.\Generated_Source\PSoC4/Bootloader.c ****     buffer[Bootloader_CHK_ADDR(1u + size)] = HI8(checksum);
 623              		.loc 1 1295 0
 624 014a 000A     		lsr	r0, r0, #8
 625 014c 3870     		strb	r0, [r7]
1296:.\Generated_Source\PSoC4/Bootloader.c ****     buffer[Bootloader_EOP_ADDR(size)]     = Bootloader_EOP;
 626              		.loc 1 1296 0
 627 014e 1B19     		add	r3, r3, r4
 628 0150 1727     		mov	r7, #23
1299:.\Generated_Source\PSoC4/Bootloader.c ****     return(CyBtldrCommWrite(buffer, size + Bootloader_MIN_PKT_SIZE, &size, 150u));
 629              		.loc 1 1299 0
 630 0152 0731     		add	r1, r1, #7
 631              	.LVL74:
1296:.\Generated_Source\PSoC4/Bootloader.c ****     buffer[Bootloader_EOP_ADDR(size)]     = Bootloader_EOP;
 632              		.loc 1 1296 0
 633 0154 1F70     		strb	r7, [r3]
1299:.\Generated_Source\PSoC4/Bootloader.c ****     return(CyBtldrCommWrite(buffer, size + Bootloader_MIN_PKT_SIZE, &size, 150u));
 634              		.loc 1 1299 0
 635 0156 89B2     		uxth	r1, r1
 636              	.LVL75:
 637 0158 24A8     		add	r0, sp, #144
 638              	.LVL76:
 639 015a 9623     		mov	r3, #150
 640 015c FFF7FEFF 		bl	CyBtldrCommWrite
 641              	.LVL77:
 642 0160 57E7     		b	.L94
 643              	.LVL78:
 644              	.L101:
 645              	.LBE35:
 646              	.LBE34:
 647              	.LBB38:
ARM GAS  C:\Users\vrnk\AppData\Local\Temp\ccnz7Ubz.s 			page 40


 695:.\Generated_Source\PSoC4/Bootloader.c ****             uint8 CYDATA btldrData = packetBuffer[Bootloader_DATA_ADDR];
 648              		.loc 1 695 0
 649 0162 24AF     		add	r7, sp, #144
 698:.\Generated_Source\PSoC4/Bootloader.c ****             switch(packetBuffer[Bootloader_CMD_ADDR])
 650              		.loc 1 698 0
 651 0164 7978     		ldrb	r1, [r7, #1]
 695:.\Generated_Source\PSoC4/Bootloader.c ****             uint8 CYDATA btldrData = packetBuffer[Bootloader_DATA_ADDR];
 652              		.loc 1 695 0
 653 0166 3B79     		ldrb	r3, [r7, #4]
 654              	.LVL79:
 698:.\Generated_Source\PSoC4/Bootloader.c ****             switch(packetBuffer[Bootloader_CMD_ADDR])
 655              		.loc 1 698 0
 656 0168 081C     		mov	r0, r1
 657              	.LVL80:
 658 016a 3138     		sub	r0, r0, #49
 659 016c 0A28     		cmp	r0, #10
 660 016e 01D9     		bls	.L102
 661              	.LVL81:
 662              	.L89:
1247:.\Generated_Source\PSoC4/Bootloader.c ****                 ackCode = Bootloader_ERR_CMD;
 663              		.loc 1 1247 0
 664 0170 0523     		mov	r3, #5
 665 0172 C4E7     		b	.L97
 666              	.LVL82:
 667              	.L102:
 698:.\Generated_Source\PSoC4/Bootloader.c ****             switch(packetBuffer[Bootloader_CMD_ADDR])
 668              		.loc 1 698 0
 669 0174 FFF7FEFF 		bl	__gnu_thumb1_case_sqi
 670              	.LVL83:
 671              	.L66:
 672 0178 06       		.byte	(.L49-.L66)/2
 673 0179 11       		.byte	(.L51-.L66)/2
 674 017a FC       		.byte	(.L89-.L66)/2
 675 017b 8C       		.byte	(.L52-.L66)/2
 676 017c 2F       		.byte	(.L56-.L66)/2
 677 017d FC       		.byte	(.L89-.L66)/2
 678 017e 32       		.byte	(.L58-.L66)/2
 679 017f 42       		.byte	(.L59-.L66)/2
 680 0180 8C       		.byte	(.L52-.L66)/2
 681 0181 50       		.byte	(.L60-.L66)/2
 682 0182 78       		.byte	(.L63-.L66)/2
 683 0183 00       		.align	1
 684              	.L49:
 743:.\Generated_Source\PSoC4/Bootloader.c ****                 if((Bootloader_COMMUNICATION_STATE_ACTIVE == communicationState) && (pktSize == 0u)
 685              		.loc 1 743 0
 686 0184 012D     		cmp	r5, #1
 687 0186 00D0     		beq	.LCB664
 688 0188 7FE0     		b	.L88	@long jump
 689              	.LCB664:
 690 018a 002C     		cmp	r4, #0
 691 018c 7DD1     		bne	.L88
 746:.\Generated_Source\PSoC4/Bootloader.c ****                             (uint8)(Bootloader_ValidateBootloadable(Bootloader_activeApp) == CYRET_
 692              		.loc 1 746 0
 693 018e FFF7FEFF 		bl	Bootloader_ValidateBootloadable.constprop.1
 694              	.LVL84:
 695 0192 4342     		neg	r3, r0
 696 0194 4341     		adc	r3, r3, r0
ARM GAS  C:\Users\vrnk\AppData\Local\Temp\ccnz7Ubz.s 			page 41


 745:.\Generated_Source\PSoC4/Bootloader.c ****                     packetBuffer[Bootloader_DATA_ADDR] =
 697              		.loc 1 745 0
 698 0196 3B71     		strb	r3, [r7, #4]
 699              	.LVL85:
 700 0198 63E0     		b	.L98
 701              	.LVL86:
 702              	.L51:
 761:.\Generated_Source\PSoC4/Bootloader.c ****                     if((Bootloader_COMMUNICATION_STATE_ACTIVE == communicationState) && (pktSize ==
 703              		.loc 1 761 0
 704 019a 012D     		cmp	r5, #1
 705 019c 75D1     		bne	.L88
 706 019e 012C     		cmp	r4, #1
 707 01a0 73D1     		bne	.L88
 764:.\Generated_Source\PSoC4/Bootloader.c ****                         if(btldrData < Bootloader_NUM_OF_FLASH_ARRAYS)
 708              		.loc 1 764 0
 709 01a2 002B     		cmp	r3, #0
 710 01a4 71D1     		bne	.L88
 711              	.LBB24:
 767:.\Generated_Source\PSoC4/Bootloader.c ****                                 uint16 CYDATA startRow = (uint16)*Bootloader_SizeBytesAccess / CYDE
 712              		.loc 1 767 0
 713 01a6 3F4A     		ldr	r2, .L103+20
 772:.\Generated_Source\PSoC4/Bootloader.c ****                             packetBuffer[Bootloader_DATA_ADDR]      = LO8(startRow);
 714              		.loc 1 772 0
 715 01a8 25A8     		add	r0, sp, #148
 767:.\Generated_Source\PSoC4/Bootloader.c ****                                 uint16 CYDATA startRow = (uint16)*Bootloader_SizeBytesAccess / CYDE
 716              		.loc 1 767 0
 717 01aa 1468     		ldr	r4, [r2]
 718              	.LVL87:
 719 01ac 2188     		ldrh	r1, [r4]
 773:.\Generated_Source\PSoC4/Bootloader.c ****                             packetBuffer[Bootloader_DATA_ADDR + 1u] = HI8(startRow);
 720              		.loc 1 773 0
 721 01ae 9524     		mov	r4, #149
 767:.\Generated_Source\PSoC4/Bootloader.c ****                                 uint16 CYDATA startRow = (uint16)*Bootloader_SizeBytesAccess / CYDE
 722              		.loc 1 767 0
 723 01b0 CF09     		lsr	r7, r1, #7
 724              	.LVL88:
 772:.\Generated_Source\PSoC4/Bootloader.c ****                             packetBuffer[Bootloader_DATA_ADDR]      = LO8(startRow);
 725              		.loc 1 772 0
 726 01b2 0770     		strb	r7, [r0]
 773:.\Generated_Source\PSoC4/Bootloader.c ****                             packetBuffer[Bootloader_DATA_ADDR + 1u] = HI8(startRow);
 727              		.loc 1 773 0
 728 01b4 3A0A     		lsr	r2, r7, #8
 775:.\Generated_Source\PSoC4/Bootloader.c ****                             packetBuffer[Bootloader_DATA_ADDR + 3u] = HI8(CY_FLASH_NUMBER_ROWS - 1u
 729              		.loc 1 775 0
 730 01b6 9720     		mov	r0, #151
 774:.\Generated_Source\PSoC4/Bootloader.c ****                             packetBuffer[Bootloader_DATA_ADDR + 2u] = LO8(CY_FLASH_NUMBER_ROWS - 1u
 731              		.loc 1 774 0
 732 01b8 9627     		mov	r7, #150
 733              	.LVL89:
 734 01ba FF21     		mov	r1, #255
 735              	.LVL90:
 773:.\Generated_Source\PSoC4/Bootloader.c ****                             packetBuffer[Bootloader_DATA_ADDR + 1u] = HI8(startRow);
 736              		.loc 1 773 0
 737 01bc 6C44     		add	r4, r4, sp
 774:.\Generated_Source\PSoC4/Bootloader.c ****                             packetBuffer[Bootloader_DATA_ADDR + 2u] = LO8(CY_FLASH_NUMBER_ROWS - 1u
 738              		.loc 1 774 0
 739 01be 6F44     		add	r7, r7, sp
ARM GAS  C:\Users\vrnk\AppData\Local\Temp\ccnz7Ubz.s 			page 42


 775:.\Generated_Source\PSoC4/Bootloader.c ****                             packetBuffer[Bootloader_DATA_ADDR + 3u] = HI8(CY_FLASH_NUMBER_ROWS - 1u
 740              		.loc 1 775 0
 741 01c0 6844     		add	r0, r0, sp
 774:.\Generated_Source\PSoC4/Bootloader.c ****                             packetBuffer[Bootloader_DATA_ADDR + 2u] = LO8(CY_FLASH_NUMBER_ROWS - 1u
 742              		.loc 1 774 0
 743 01c2 3970     		strb	r1, [r7]
 773:.\Generated_Source\PSoC4/Bootloader.c ****                             packetBuffer[Bootloader_DATA_ADDR + 1u] = HI8(startRow);
 744              		.loc 1 773 0
 745 01c4 2270     		strb	r2, [r4]
 775:.\Generated_Source\PSoC4/Bootloader.c ****                             packetBuffer[Bootloader_DATA_ADDR + 3u] = HI8(CY_FLASH_NUMBER_ROWS - 1u
 746              		.loc 1 775 0
 747 01c6 0370     		strb	r3, [r0]
 748              	.LVL91:
 777:.\Generated_Source\PSoC4/Bootloader.c ****                             rspSize = 4u;
 749              		.loc 1 777 0
 750 01c8 0421     		mov	r1, #4
 751 01ca 99E7     		b	.L50
 752              	.LVL92:
 753              	.L53:
 754              	.LBE24:
 861:.\Generated_Source\PSoC4/Bootloader.c ****                 if((Bootloader_COMMUNICATION_STATE_ACTIVE == communicationState) && (pktSize >= 3u)
 755              		.loc 1 861 0
 756 01cc 012D     		cmp	r5, #1
 757 01ce 5CD1     		bne	.L88
 758 01d0 022C     		cmp	r4, #2
 759 01d2 5AD9     		bls	.L88
 760 01d4 6BE7     		b	.L54
 761              	.LVL93:
 762              	.L56:
1026:.\Generated_Source\PSoC4/Bootloader.c ****                 if(Bootloader_COMMUNICATION_STATE_ACTIVE == communicationState)
 763              		.loc 1 1026 0
 764 01d6 012D     		cmp	r5, #1
 765 01d8 57D1     		bne	.L88
 766 01da 19E7     		b	.L83
 767              	.L58:
1077:.\Generated_Source\PSoC4/Bootloader.c ****                     if(Bootloader_COMMUNICATION_STATE_ACTIVE == communicationState)
 768              		.loc 1 1077 0
 769 01dc 012D     		cmp	r5, #1
 770 01de 54D1     		bne	.L88
1080:.\Generated_Source\PSoC4/Bootloader.c ****                         if((dataOffset + pktSize) <= Bootloader_SIZEOF_COMMAND_BUFFER)
 771              		.loc 1 1080 0
 772 01e0 9620     		mov	r0, #150
 773 01e2 3719     		add	r7, r6, r4
 774              	.LVL94:
 775 01e4 4300     		lsl	r3, r0, #1
 776 01e6 9F42     		cmp	r7, r3
 777 01e8 4DD8     		bhi	.L85
 778              	.LVL95:
1089:.\Generated_Source\PSoC4/Bootloader.c ****                                 (void) memcpy(&dataBuffer[dataOffset],
 779              		.loc 1 1089 0
 780 01ea 6FAA     		add	r2, sp, #444
 781 01ec 9019     		add	r0, r2, r6
 782 01ee 25A9     		add	r1, sp, #148
 783 01f0 221C     		mov	r2, r4
 784 01f2 FFF7FEFF 		bl	memcpy
 785              	.LVL96:
1094:.\Generated_Source\PSoC4/Bootloader.c ****                             dataOffset += pktSize;
ARM GAS  C:\Users\vrnk\AppData\Local\Temp\ccnz7Ubz.s 			page 43


 786              		.loc 1 1094 0
 787 01f6 BEB2     		uxth	r6, r7
 788              	.LVL97:
 789              	.L99:
1082:.\Generated_Source\PSoC4/Bootloader.c ****                             ackCode = CYRET_SUCCESS;
 790              		.loc 1 1082 0
 791 01f8 0023     		mov	r3, #0
 792 01fa 80E7     		b	.L97
 793              	.LVL98:
 794              	.L59:
1112:.\Generated_Source\PSoC4/Bootloader.c ****                 if(pktSize == 0u)
 795              		.loc 1 1112 0
 796 01fc 002C     		cmp	r4, #0
 797 01fe 44D1     		bne	.L88
 798              	.LBB25:
1121:.\Generated_Source\PSoC4/Bootloader.c ****                         Bootloader_ENTER CYDATA BtldrVersion =
 799              		.loc 1 1121 0
 800 0200 04AB     		add	r3, sp, #16
 801 0202 294A     		ldr	r2, .L103+24
 802 0204 191C     		mov	r1, r3
 803 0206 A0CA     		ldmia	r2!, {r5, r7}
 804 0208 A0C1     		stmia	r1!, {r5, r7}
 805              	.LVL99:
1135:.\Generated_Source\PSoC4/Bootloader.c ****                         (void) memcpy(&packetBuffer[Bootloader_DATA_ADDR],
 806              		.loc 1 1135 0
 807 020a 25AF     		add	r7, sp, #148
 808 020c 21CB     		ldmia	r3!, {r0, r5}
 809 020e 21C7     		stmia	r7!, {r0, r5}
 810              	.LVL100:
1128:.\Generated_Source\PSoC4/Bootloader.c ****                     rspSize = sizeof(Bootloader_ENTER);
 811              		.loc 1 1128 0
 812 0210 0821     		mov	r1, #8
1126:.\Generated_Source\PSoC4/Bootloader.c ****                     communicationState = Bootloader_COMMUNICATION_STATE_ACTIVE;
 813              		.loc 1 1126 0
 814 0212 0125     		mov	r5, #1
1140:.\Generated_Source\PSoC4/Bootloader.c ****                     ackCode = CYRET_SUCCESS;
 815              		.loc 1 1140 0
 816 0214 231C     		mov	r3, r4
 817 0216 73E7     		b	.L50
 818              	.LVL101:
 819              	.L60:
 820              	.LBE25:
1150:.\Generated_Source\PSoC4/Bootloader.c ****                 if((Bootloader_COMMUNICATION_STATE_ACTIVE == communicationState) && (pktSize == 3u)
 821              		.loc 1 1150 0
 822 0218 012D     		cmp	r5, #1
 823 021a 36D1     		bne	.L88
 824 021c 032C     		cmp	r4, #3
 825 021e 34D1     		bne	.L88
 826              	.LBB26:
1153:.\Generated_Source\PSoC4/Bootloader.c ****                     uint16 CYDATA rowNum = ((uint16)((uint16)packetBuffer[Bootloader_DATA_ADDR + 2u
 827              		.loc 1 1153 0
 828 0220 9622     		mov	r2, #150
 829 0222 6A44     		add	r2, r2, sp
 830 0224 9521     		mov	r1, #149
 831 0226 1778     		ldrb	r7, [r2]
 832              	.LVL102:
 833 0228 6944     		add	r1, r1, sp
ARM GAS  C:\Users\vrnk\AppData\Local\Temp\ccnz7Ubz.s 			page 44


 834 022a 0C78     		ldrb	r4, [r1]
 835              	.LVL103:
 836 022c 3802     		lsl	r0, r7, #8
1182:.\Generated_Source\PSoC4/Bootloader.c ****                                             + ((uint32)rowNum * CYDEV_FLS_ROW_SIZE);
 837              		.loc 1 1182 0
 838 022e 1A02     		lsl	r2, r3, #8
1153:.\Generated_Source\PSoC4/Bootloader.c ****                     uint16 CYDATA rowNum = ((uint16)((uint16)packetBuffer[Bootloader_DATA_ADDR + 2u
 839              		.loc 1 1153 0
 840 0230 2043     		orr	r0, r4
 841              	.LVL104:
1182:.\Generated_Source\PSoC4/Bootloader.c ****                                             + ((uint32)rowNum * CYDEV_FLS_ROW_SIZE);
 842              		.loc 1 1182 0
 843 0232 8718     		add	r7, r0, r2
1181:.\Generated_Source\PSoC4/Bootloader.c ****                         uint32 CYDATA rowAddr = ((uint32)btldrData * CYDEV_FLS_SECTOR_SIZE)
 844              		.loc 1 1181 0
 845 0234 FF01     		lsl	r7, r7, #7
 846              	.LVL105:
 192:.\Generated_Source\PSoC4/Bootloader.c ****     uint8 CYDATA sum = 0u;
 847              		.loc 1 192 0
 848 0236 0022     		mov	r2, #0
1181:.\Generated_Source\PSoC4/Bootloader.c ****                         uint32 CYDATA rowAddr = ((uint32)btldrData * CYDEV_FLS_SECTOR_SIZE)
 849              		.loc 1 1181 0
 850 0238 8021     		mov	r1, #128
 851              	.LVL106:
 852              	.L61:
 853              	.LBB27:
 854              	.LBB28:
 196:.\Generated_Source\PSoC4/Bootloader.c ****         size--;
 855              		.loc 1 196 0
 856 023a 0139     		sub	r1, r1, #1
 857              	.LVL107:
 197:.\Generated_Source\PSoC4/Bootloader.c ****         sum += Bootloader_GET_CODE_BYTE(start + size);
 858              		.loc 1 197 0
 859 023c CC5D     		ldrb	r4, [r1, r7]
 860 023e 1219     		add	r2, r2, r4
 861 0240 D2B2     		uxtb	r2, r2
 862              	.LVL108:
 194:.\Generated_Source\PSoC4/Bootloader.c ****     while (size > 0u)
 863              		.loc 1 194 0
 864 0242 0029     		cmp	r1, #0
 865 0244 F9D1     		bne	.L61
 866              	.LBE28:
 867              	.LBE27:
1213:.\Generated_Source\PSoC4/Bootloader.c ****                     if((Bootloader_MD_FLASH_ARRAY_NUM == btldrData) &&
 868              		.loc 1 1213 0
 869 0246 002B     		cmp	r3, #0
 870 0248 08D1     		bne	.L62
 871 024a FF28     		cmp	r0, #255
 872 024c 06D1     		bne	.L62
1216:.\Generated_Source\PSoC4/Bootloader.c ****                         checksum -= Bootloader_MD_BTLDB_ACTIVE_VALUE  (Bootloader_GET_APP_ID(rowNum
 873              		.loc 1 1216 0
 874 024e 174B     		ldr	r3, .L103+28
1217:.\Generated_Source\PSoC4/Bootloader.c ****                         checksum -= Bootloader_MD_BTLDB_VERIFIED_VALUE(Bootloader_GET_APP_ID(rowNum
 875              		.loc 1 1217 0
 876 0250 1749     		ldr	r1, .L103+32
 877              	.LVL109:
1216:.\Generated_Source\PSoC4/Bootloader.c ****                         checksum -= Bootloader_MD_BTLDB_ACTIVE_VALUE  (Bootloader_GET_APP_ID(rowNum
ARM GAS  C:\Users\vrnk\AppData\Local\Temp\ccnz7Ubz.s 			page 45


 878              		.loc 1 1216 0
 879 0252 1878     		ldrb	r0, [r3]
 880              	.LVL110:
1217:.\Generated_Source\PSoC4/Bootloader.c ****                         checksum -= Bootloader_MD_BTLDB_VERIFIED_VALUE(Bootloader_GET_APP_ID(rowNum
 881              		.loc 1 1217 0
 882 0254 0C78     		ldrb	r4, [r1]
1216:.\Generated_Source\PSoC4/Bootloader.c ****                         checksum -= Bootloader_MD_BTLDB_ACTIVE_VALUE  (Bootloader_GET_APP_ID(rowNum
 883              		.loc 1 1216 0
 884 0256 171A     		sub	r7, r2, r0
 885              	.LVL111:
1217:.\Generated_Source\PSoC4/Bootloader.c ****                         checksum -= Bootloader_MD_BTLDB_VERIFIED_VALUE(Bootloader_GET_APP_ID(rowNum
 886              		.loc 1 1217 0
 887 0258 3A1B     		sub	r2, r7, r4
 888              	.LVL112:
 889 025a D2B2     		uxtb	r2, r2
 890              	.LVL113:
 891              	.L62:
1220:.\Generated_Source\PSoC4/Bootloader.c ****                     packetBuffer[Bootloader_DATA_ADDR] = (uint8)1u + (uint8)(~checksum);
 892              		.loc 1 1220 0
 893 025c 5042     		neg	r0, r2
 894 025e 24AB     		add	r3, sp, #144
 895              	.LVL114:
 896 0260 1871     		strb	r0, [r3, #4]
 897              	.LVL115:
 898              	.L98:
1221:.\Generated_Source\PSoC4/Bootloader.c ****                     ackCode = CYRET_SUCCESS;
 899              		.loc 1 1221 0
 900 0262 0023     		mov	r3, #0
1222:.\Generated_Source\PSoC4/Bootloader.c ****                     rspSize = 1u;
 901              		.loc 1 1222 0
 902 0264 0121     		mov	r1, #1
 903 0266 4BE7     		b	.L50
 904              	.LVL116:
 905              	.L63:
 906              	.LBE26:
1232:.\Generated_Source\PSoC4/Bootloader.c ****                 if(CYRET_SUCCESS == Bootloader_ValidateBootloadable(Bootloader_activeApp))
 907              		.loc 1 1232 0
 908 0268 FFF7FEFF 		bl	Bootloader_ValidateBootloadable.constprop.1
 909              	.LVL117:
 910 026c 0028     		cmp	r0, #0
 911 026e 02D1     		bne	.L64
1234:.\Generated_Source\PSoC4/Bootloader.c ****                     Bootloader_SET_RUN_TYPE(Bootloader_START_APP);
 912              		.loc 1 1234 0
 913 0270 1048     		ldr	r0, .L103+36
 914 0272 8024     		mov	r4, #128
 915              	.LVL118:
 916 0274 0460     		str	r4, [r0]
 917              	.L64:
1237:.\Generated_Source\PSoC4/Bootloader.c ****                 CySoftwareReset();
 918              		.loc 1 1237 0
 919 0276 FFF7FEFF 		bl	CySoftwareReset
 920              	.LVL119:
 921 027a 06E0     		b	.L88
 922              	.LVL120:
 923              	.L81:
 899:.\Generated_Source\PSoC4/Bootloader.c ****                     if(dataOffset == pktSize)
 924              		.loc 1 899 0
ARM GAS  C:\Users\vrnk\AppData\Local\Temp\ccnz7Ubz.s 			page 46


 925 027c 0125     		mov	r5, #1
1014:.\Generated_Source\PSoC4/Bootloader.c ****                     dataOffset = 0u;
 926              		.loc 1 1014 0
 927 027e 0026     		mov	r6, #0
 928 0280 01E0     		b	.L85
 929              	.LVL121:
 930              	.L82:
 931 0282 061C     		mov	r6, r0
 932              	.LVL122:
 933 0284 B8E7     		b	.L99
 934              	.LVL123:
 935              	.L85:
1098:.\Generated_Source\PSoC4/Bootloader.c ****                             ackCode = Bootloader_ERR_LENGTH;
 936              		.loc 1 1098 0
 937 0286 0323     		mov	r3, #3
 938 0288 39E7     		b	.L97
 939              	.L88:
 697:.\Generated_Source\PSoC4/Bootloader.c ****             ackCode = Bootloader_ERR_DATA;
 940              		.loc 1 697 0
 941 028a 0423     		mov	r3, #4
 942 028c 37E7     		b	.L97
 943              	.L104:
 944 028e C046     		.align	2
 945              	.L103:
 946 0290 14FDFFFF 		.word	-748
 947 0294 A7FDFFFF 		.word	-601
 948 0298 ACFDFFFF 		.word	-596
 949 029c ADFDFFFF 		.word	-595
 950 02a0 AEFDFFFF 		.word	-594
 951 02a4 00000000 		.word	.LANCHOR0
 952 02a8 00000000 		.word	.LANCHOR1
 953 02ac D07F0000 		.word	32720
 954 02b0 D17F0000 		.word	32721
 955 02b4 00000000 		.word	cyBtldrRunType
 956              	.LBE38:
 957              		.cfi_endproc
 958              	.LFE46:
 959              		.size	Bootloader_HostLink.constprop.0, .-Bootloader_HostLink.constprop.0
 960              		.section	.text.Bootloader_Start,"ax",%progbits
 961              		.align	1
 962              		.global	Bootloader_Start
 963              		.code	16
 964              		.thumb_func
 965              		.type	Bootloader_Start, %function
 966              	Bootloader_Start:
 967              	.LFB35:
 273:.\Generated_Source\PSoC4/Bootloader.c **** {
 968              		.loc 1 273 0
 969              		.cfi_startproc
 330:.\Generated_Source\PSoC4/Bootloader.c ****                 *Bootloader_SizeBytesAccess - Bootloader_MD_BTLDR_ADDR_PTR);
 970              		.loc 1 330 0
 971 0000 1448     		ldr	r0, .L116
 273:.\Generated_Source\PSoC4/Bootloader.c **** {
 972              		.loc 1 273 0
 973 0002 10B5     		push	{r4, lr}
 974              	.LCFI4:
 975              		.cfi_def_cfa_offset 8
ARM GAS  C:\Users\vrnk\AppData\Local\Temp\ccnz7Ubz.s 			page 47


 976              		.cfi_offset 4, -8
 977              		.cfi_offset 14, -4
 330:.\Generated_Source\PSoC4/Bootloader.c ****                 *Bootloader_SizeBytesAccess - Bootloader_MD_BTLDR_ADDR_PTR);
 978              		.loc 1 330 0
 979 0004 0368     		ldr	r3, [r0]
 192:.\Generated_Source\PSoC4/Bootloader.c ****     uint8 CYDATA sum = 0u;
 980              		.loc 1 192 0
 981 0006 0022     		mov	r2, #0
 330:.\Generated_Source\PSoC4/Bootloader.c ****                 *Bootloader_SizeBytesAccess - Bootloader_MD_BTLDR_ADDR_PTR);
 982              		.loc 1 330 0
 983 0008 1968     		ldr	r1, [r3]
 984              	.LVL124:
 985 000a 0B1C     		mov	r3, r1
 986              	.LVL125:
 987              	.L106:
 988 000c 013B     		sub	r3, r3, #1
 989              	.LBB43:
 990              	.LBB44:
 194:.\Generated_Source\PSoC4/Bootloader.c ****     while (size > 0u)
 991              		.loc 1 194 0
 992 000e BF2B     		cmp	r3, #191
 993 0010 03D0     		beq	.L115
 994              	.L107:
 197:.\Generated_Source\PSoC4/Bootloader.c ****         sum += Bootloader_GET_CODE_BYTE(start + size);
 995              		.loc 1 197 0
 996 0012 1C78     		ldrb	r4, [r3]
 997 0014 1219     		add	r2, r2, r4
 998              	.LVL126:
 999 0016 D2B2     		uxtb	r2, r2
 1000              	.LVL127:
 1001 0018 F8E7     		b	.L106
 1002              	.L115:
 1003              	.LBE44:
 1004              	.LBE43:
 333:.\Generated_Source\PSoC4/Bootloader.c ****         calcedChecksum -= *Bootloader_ChecksumAccess;
 1005              		.loc 1 333 0
 1006 001a 4068     		ldr	r0, [r0, #4]
 1007 001c 0478     		ldrb	r4, [r0]
 1008              	.LVL128:
 334:.\Generated_Source\PSoC4/Bootloader.c ****         calcedChecksum = ( uint8 )1u + ( uint8 )(~calcedChecksum);
 1009              		.loc 1 334 0
 1010 001e A21A     		sub	r2, r4, r2
 1011              	.LVL129:
 337:.\Generated_Source\PSoC4/Bootloader.c ****         if((calcedChecksum != *Bootloader_ChecksumAccess) ||
 1012              		.loc 1 337 0
 1013 0020 D3B2     		uxtb	r3, r2
 1014 0022 A342     		cmp	r3, r4
 1015 0024 01D1     		bne	.L108
 337:.\Generated_Source\PSoC4/Bootloader.c ****         if((calcedChecksum != *Bootloader_ChecksumAccess) ||
 1016              		.loc 1 337 0 is_stmt 0 discriminator 1
 1017 0026 0029     		cmp	r1, #0
 1018 0028 02D1     		bne	.L109
 1019              	.L108:
 340:.\Generated_Source\PSoC4/Bootloader.c ****             CyHalt(0x00u);
 1020              		.loc 1 340 0 is_stmt 1
 1021 002a 0020     		mov	r0, #0
 1022 002c FFF7FEFF 		bl	CyHalt
ARM GAS  C:\Users\vrnk\AppData\Local\Temp\ccnz7Ubz.s 			page 48


 1023              	.LVL130:
 1024              	.L109:
 354:.\Generated_Source\PSoC4/Bootloader.c ****     tmpStatus = Bootloader_ValidateBootloadable(Bootloader_activeApp);
 1025              		.loc 1 354 0
 1026 0030 FFF7FEFF 		bl	Bootloader_ValidateBootloadable.constprop.1
 1027              	.LVL131:
 356:.\Generated_Source\PSoC4/Bootloader.c ****     if ((Bootloader_GET_RUN_TYPE == Bootloader_START_BTLDR) ||
 1028              		.loc 1 356 0
 1029 0034 084C     		ldr	r4, .L116+4
 1030 0036 2168     		ldr	r1, [r4]
 1031 0038 221C     		mov	r2, r4
 1032 003a 4029     		cmp	r1, #64
 1033 003c 01D0     		beq	.L110
 356:.\Generated_Source\PSoC4/Bootloader.c ****     if ((Bootloader_GET_RUN_TYPE == Bootloader_START_BTLDR) ||
 1034              		.loc 1 356 0 is_stmt 0 discriminator 1
 1035 003e 0028     		cmp	r0, #0
 1036 0040 03D0     		beq	.L111
 1037              	.L110:
 359:.\Generated_Source\PSoC4/Bootloader.c ****         Bootloader_SET_RUN_TYPE(0u);
 1038              		.loc 1 359 0 is_stmt 1
 1039 0042 0023     		mov	r3, #0
 1040 0044 1360     		str	r3, [r2]
 361:.\Generated_Source\PSoC4/Bootloader.c ****         Bootloader_HostLink(Bootloader_WAIT_FOR_COMMAND_FOREVER);
 1041              		.loc 1 361 0
 1042 0046 FFF7FEFF 		bl	Bootloader_HostLink.constprop.0
 1043              	.LVL132:
 1044              	.L111:
 1045              	.LBB45:
 1046              	.LBB46:
 396:.\Generated_Source\PSoC4/Bootloader.c ****     Bootloader_SET_RUN_TYPE(Bootloader_START_APP);
 1047              		.loc 1 396 0
 1048 004a 8020     		mov	r0, #128
 1049              	.LVL133:
 1050 004c 2060     		str	r0, [r4]
 1051              	.LBE46:
 1052              	.LBE45:
 376:.\Generated_Source\PSoC4/Bootloader.c **** }
 1053              		.loc 1 376 0
 1054              		@ sp needed for prologue
 1055              	.LBB48:
 1056              	.LBB47:
 398:.\Generated_Source\PSoC4/Bootloader.c ****     CySoftwareReset();
 1057              		.loc 1 398 0
 1058 004e FFF7FEFF 		bl	CySoftwareReset
 1059              	.LVL134:
 1060              	.LBE47:
 1061              	.LBE48:
 376:.\Generated_Source\PSoC4/Bootloader.c **** }
 1062              		.loc 1 376 0
 1063 0052 10BD     		pop	{r4, pc}
 1064              	.L117:
 1065              		.align	2
 1066              	.L116:
 1067 0054 00000000 		.word	.LANCHOR0
 1068 0058 00000000 		.word	cyBtldrRunType
 1069              		.cfi_endproc
 1070              	.LFE35:
ARM GAS  C:\Users\vrnk\AppData\Local\Temp\ccnz7Ubz.s 			page 49


 1071              		.size	Bootloader_Start, .-Bootloader_Start
 1072              		.section	.text.CyBtldr_CheckLaunch,"ax",%progbits
 1073              		.align	1
 1074              		.global	CyBtldr_CheckLaunch
 1075              		.code	16
 1076              		.thumb_func
 1077              		.type	CyBtldr_CheckLaunch, %function
 1078              	CyBtldr_CheckLaunch:
 1079              	.LFB37:
 420:.\Generated_Source\PSoC4/Bootloader.c **** {
 1080              		.loc 1 420 0
 1081              		.cfi_startproc
 1082 0000 08B5     		push	{r3, lr}
 1083              	.LCFI5:
 1084              		.cfi_def_cfa_offset 8
 1085              		.cfi_offset 3, -8
 1086              		.cfi_offset 14, -4
 429:.\Generated_Source\PSoC4/Bootloader.c ****     if (0u == (Bootloader_RES_CAUSE_REG & Bootloader_RES_CAUSE_RESET_SOFT))
 1087              		.loc 1 429 0
 1088 0002 0B4B     		ldr	r3, .L126
 1089 0004 1020     		mov	r0, #16
 1090 0006 1A68     		ldr	r2, [r3]
 1091 0008 0A49     		ldr	r1, .L126+4
 1092 000a 0240     		and	r2, r0
 1093 000c 00D1     		bne	.L119
 431:.\Generated_Source\PSoC4/Bootloader.c ****         cyBtldrRunType = 0u;
 1094              		.loc 1 431 0
 1095 000e 0A60     		str	r2, [r1]
 1096              	.L119:
 437:.\Generated_Source\PSoC4/Bootloader.c ****     if (Bootloader_GET_RUN_TYPE == Bootloader_START_APP)
 1097              		.loc 1 437 0
 1098 0010 0B68     		ldr	r3, [r1]
 1099 0012 802B     		cmp	r3, #128
 1100 0014 0BD1     		bne	.L118
 439:.\Generated_Source\PSoC4/Bootloader.c ****         Bootloader_SET_RUN_TYPE(0u);
 1101              		.loc 1 439 0
 1102 0016 0022     		mov	r2, #0
 447:.\Generated_Source\PSoC4/Bootloader.c ****         if(0u != Bootloader_GetMetadata(Bootloader_GET_METADATA_BTLDB_ADDR, Bootloader_activeApp))
 1103              		.loc 1 447 0
 1104 0018 0120     		mov	r0, #1
 439:.\Generated_Source\PSoC4/Bootloader.c ****         Bootloader_SET_RUN_TYPE(0u);
 1105              		.loc 1 439 0
 1106 001a 0A60     		str	r2, [r1]
 447:.\Generated_Source\PSoC4/Bootloader.c ****         if(0u != Bootloader_GetMetadata(Bootloader_GET_METADATA_BTLDB_ADDR, Bootloader_activeApp))
 1107              		.loc 1 447 0
 1108 001c FFF7FEFF 		bl	Bootloader_GetMetadata.constprop.2
 1109              	.LVL135:
 1110 0020 0028     		cmp	r0, #0
 1111 0022 04D0     		beq	.L118
 450:.\Generated_Source\PSoC4/Bootloader.c ****             Bootloader_LaunchBootloadable(Bootloader_GetMetadata(Bootloader_GET_METADATA_BTLDB_ADDR
 1112              		.loc 1 450 0
 1113 0024 0120     		mov	r0, #1
 1114 0026 FFF7FEFF 		bl	Bootloader_GetMetadata.constprop.2
 1115              	.LVL136:
 1116 002a FFF7FEFF 		bl	Bootloader_LaunchBootloadable
 1117              	.LVL137:
 1118              	.L118:
ARM GAS  C:\Users\vrnk\AppData\Local\Temp\ccnz7Ubz.s 			page 50


 454:.\Generated_Source\PSoC4/Bootloader.c **** }
 1119              		.loc 1 454 0
 1120              		@ sp needed for prologue
 1121 002e 08BD     		pop	{r3, pc}
 1122              	.L127:
 1123              		.align	2
 1124              	.L126:
 1125 0030 00030B40 		.word	1074463488
 1126 0034 00000000 		.word	cyBtldrRunType
 1127              		.cfi_endproc
 1128              	.LFE37:
 1129              		.size	CyBtldr_CheckLaunch, .-CyBtldr_CheckLaunch
 1130              		.section	.text.Bootloader_SetFlashByte,"ax",%progbits
 1131              		.align	1
 1132              		.global	Bootloader_SetFlashByte
 1133              		.code	16
 1134              		.thumb_func
 1135              		.type	Bootloader_SetFlashByte, %function
 1136              	Bootloader_SetFlashByte:
 1137              	.LFB42:
1322:.\Generated_Source\PSoC4/Bootloader.c **** {
 1138              		.loc 1 1322 0
 1139              		.cfi_startproc
 1140              	.LVL138:
 1141 0000 70B5     		push	{r4, r5, r6, lr}
 1142              	.LCFI6:
 1143              		.cfi_def_cfa_offset 16
 1144              		.cfi_offset 4, -16
 1145              		.cfi_offset 5, -12
 1146              		.cfi_offset 6, -8
 1147              		.cfi_offset 14, -4
 1148 0002 021C     		mov	r2, r0
1331:.\Generated_Source\PSoC4/Bootloader.c ****     uint32 baseAddr = address - (address % CYDEV_FLS_ROW_SIZE);
 1149              		.loc 1 1331 0
 1150 0004 7F23     		mov	r3, #127
1330:.\Generated_Source\PSoC4/Bootloader.c ****     uint16 rowNum = ( uint16 )((flsAddr % CYDEV_FLS_SECTOR_SIZE) / CYDEV_FLS_ROW_SIZE);
 1151              		.loc 1 1330 0
 1152 0006 4004     		lsl	r0, r0, #17
 1153              	.LVL139:
1331:.\Generated_Source\PSoC4/Bootloader.c ****     uint32 baseAddr = address - (address % CYDEV_FLS_ROW_SIZE);
 1154              		.loc 1 1331 0
 1155 0008 151C     		mov	r5, r2
 1156 000a 9D43     		bic	r5, r3
1322:.\Generated_Source\PSoC4/Bootloader.c **** {
 1157              		.loc 1 1322 0
 1158 000c A0B0     		sub	sp, sp, #128
 1159              	.LCFI7:
 1160              		.cfi_def_cfa_offset 144
1330:.\Generated_Source\PSoC4/Bootloader.c ****     uint16 rowNum = ( uint16 )((flsAddr % CYDEV_FLS_SECTOR_SIZE) / CYDEV_FLS_ROW_SIZE);
 1161              		.loc 1 1330 0
 1162 000e 000E     		lsr	r0, r0, #24
 1163              	.LVL140:
1331:.\Generated_Source\PSoC4/Bootloader.c ****     uint32 baseAddr = address - (address % CYDEV_FLS_ROW_SIZE);
 1164              		.loc 1 1331 0
 1165 0010 0023     		mov	r3, #0
 1166              	.LVL141:
 1167              	.L129:
ARM GAS  C:\Users\vrnk\AppData\Local\Temp\ccnz7Ubz.s 			page 51


1336:.\Generated_Source\PSoC4/Bootloader.c ****         rowData[idx] = Bootloader_GET_CODE_BYTE(baseAddr + idx);
 1168              		.loc 1 1336 0 discriminator 2
 1169 0012 5C5D     		ldrb	r4, [r3, r5]
 1170 0014 6E46     		mov	r6, sp
 1171 0016 9C55     		strb	r4, [r3, r6]
 1172 0018 0133     		add	r3, r3, #1
1334:.\Generated_Source\PSoC4/Bootloader.c ****     for(idx = 0u; idx < CYDEV_FLS_ROW_SIZE; idx++)
 1173              		.loc 1 1334 0 discriminator 2
 1174 001a 802B     		cmp	r3, #128
 1175 001c F9D1     		bne	.L129
1339:.\Generated_Source\PSoC4/Bootloader.c ****     rowData[address % CYDEV_FLS_ROW_SIZE] = runType;
 1176              		.loc 1 1339 0
 1177 001e 7F25     		mov	r5, #127
 1178              	.LVL142:
 1179 0020 2A40     		and	r2, r5
 1180              	.LVL143:
 1181 0022 B154     		strb	r1, [r6, r2]
1342:.\Generated_Source\PSoC4/Bootloader.c ****         (void) CySysFlashWriteRow((uint32) rowNum, rowData);
 1182              		.loc 1 1342 0
 1183 0024 6946     		mov	r1, sp
 1184              	.LVL144:
 1185 0026 FFF7FEFF 		bl	CySysFlashWriteRow
 1186              	.LVL145:
1346:.\Generated_Source\PSoC4/Bootloader.c **** }
 1187              		.loc 1 1346 0
 1188 002a 20B0     		add	sp, sp, #128
 1189              		@ sp needed for prologue
 1190              	.LVL146:
 1191 002c 70BD     		pop	{r4, r5, r6, pc}
 1192              		.cfi_endproc
 1193              	.LFE42:
 1194              		.size	Bootloader_SetFlashByte, .-Bootloader_SetFlashByte
 1195              		.global	Bootloader_SizeBytesAccess
 1196              		.global	Bootloader_SizeBytes
 1197              		.global	Bootloader_ChecksumAccess
 1198              		.global	Bootloader_Checksum
 1199              		.section	.rodata
 1200              		.align	2
 1201              		.set	.LANCHOR1,. + 0
 1202              	.LC0:
 1203 0000 9311C804 		.word	80220563
 1204 0004 11       		.byte	17
 1205 0005 14       		.byte	20
 1206 0006 01       		.byte	1
 1207 0007 01       		.byte	1
 1208              		.section	.bootloader,"a",%progbits
 1209              		.align	2
 1210              		.type	Bootloader_SizeBytes, %object
 1211              		.size	Bootloader_SizeBytes, 4
 1212              	Bootloader_SizeBytes:
 1213 0000 FFFFFFFF 		.word	-1
 1214              		.type	Bootloader_Checksum, %object
 1215              		.size	Bootloader_Checksum, 1
 1216              	Bootloader_Checksum:
 1217 0004 00       		.space	1
 1218 0005 000000   		.data
 1219              		.align	2
ARM GAS  C:\Users\vrnk\AppData\Local\Temp\ccnz7Ubz.s 			page 52


 1220              		.set	.LANCHOR0,. + 0
 1221              		.type	Bootloader_SizeBytesAccess, %object
 1222              		.size	Bootloader_SizeBytesAccess, 4
 1223              	Bootloader_SizeBytesAccess:
 1224 0000 00000000 		.word	Bootloader_SizeBytes
 1225              		.type	Bootloader_ChecksumAccess, %object
 1226              		.size	Bootloader_ChecksumAccess, 4
 1227              	Bootloader_ChecksumAccess:
 1228 0004 00000000 		.word	Bootloader_Checksum
 1229              		.text
 1230              	.Letext0:
 1231              		.file 2 ".\\Generated_Source\\PSoC4\\cytypes.h"
 1232              		.file 3 ".\\Generated_Source\\PSoC4\\Bootloader_PVT.h"
 1233              		.file 4 ".\\Generated_Source\\PSoC4\\Bootloader.h"
 1234              		.file 5 "./Generated_Source/PSoC4/CyFlash.h"
 1235              		.file 6 "./Generated_Source/PSoC4/CyLib.h"
 1236              		.section	.debug_info,"",%progbits
 1237              	.Ldebug_info0:
 1238 0000 A80A0000 		.4byte	0xaa8
 1239 0004 0200     		.2byte	0x2
 1240 0006 00000000 		.4byte	.Ldebug_abbrev0
 1241 000a 04       		.byte	0x4
 1242 000b 01       		.uleb128 0x1
 1243 000c 1E030000 		.4byte	.LASF83
 1244 0010 01       		.byte	0x1
 1245 0011 CA040000 		.4byte	.LASF84
 1246 0015 45020000 		.4byte	.LASF85
 1247 0019 68000000 		.4byte	.Ldebug_ranges0+0x68
 1248 001d 00000000 		.4byte	0
 1249 0021 00000000 		.4byte	0
 1250 0025 00000000 		.4byte	.Ldebug_line0
 1251 0029 02       		.uleb128 0x2
 1252 002a 01       		.byte	0x1
 1253 002b 06       		.byte	0x6
 1254 002c F3000000 		.4byte	.LASF0
 1255 0030 02       		.uleb128 0x2
 1256 0031 01       		.byte	0x1
 1257 0032 08       		.byte	0x8
 1258 0033 72030000 		.4byte	.LASF1
 1259 0037 02       		.uleb128 0x2
 1260 0038 02       		.byte	0x2
 1261 0039 05       		.byte	0x5
 1262 003a A0030000 		.4byte	.LASF2
 1263 003e 02       		.uleb128 0x2
 1264 003f 02       		.byte	0x2
 1265 0040 07       		.byte	0x7
 1266 0041 32020000 		.4byte	.LASF3
 1267 0045 02       		.uleb128 0x2
 1268 0046 04       		.byte	0x4
 1269 0047 05       		.byte	0x5
 1270 0048 24010000 		.4byte	.LASF4
 1271 004c 02       		.uleb128 0x2
 1272 004d 04       		.byte	0x4
 1273 004e 07       		.byte	0x7
 1274 004f E4010000 		.4byte	.LASF5
 1275 0053 02       		.uleb128 0x2
 1276 0054 08       		.byte	0x8
ARM GAS  C:\Users\vrnk\AppData\Local\Temp\ccnz7Ubz.s 			page 53


 1277 0055 05       		.byte	0x5
 1278 0056 E5000000 		.4byte	.LASF6
 1279 005a 02       		.uleb128 0x2
 1280 005b 08       		.byte	0x8
 1281 005c 07       		.byte	0x7
 1282 005d 65000000 		.4byte	.LASF7
 1283 0061 03       		.uleb128 0x3
 1284 0062 04       		.byte	0x4
 1285 0063 05       		.byte	0x5
 1286 0064 696E7400 		.ascii	"int\000"
 1287 0068 02       		.uleb128 0x2
 1288 0069 04       		.byte	0x4
 1289 006a 07       		.byte	0x7
 1290 006b B7010000 		.4byte	.LASF8
 1291 006f 04       		.uleb128 0x4
 1292 0070 45010000 		.4byte	.LASF9
 1293 0074 02       		.byte	0x2
 1294 0075 5B       		.byte	0x5b
 1295 0076 30000000 		.4byte	0x30
 1296 007a 04       		.uleb128 0x4
 1297 007b 13000000 		.4byte	.LASF10
 1298 007f 02       		.byte	0x2
 1299 0080 5C       		.byte	0x5c
 1300 0081 3E000000 		.4byte	0x3e
 1301 0085 04       		.uleb128 0x4
 1302 0086 5B010000 		.4byte	.LASF11
 1303 008a 02       		.byte	0x2
 1304 008b 5D       		.byte	0x5d
 1305 008c 4C000000 		.4byte	0x4c
 1306 0090 02       		.uleb128 0x2
 1307 0091 04       		.byte	0x4
 1308 0092 04       		.byte	0x4
 1309 0093 03030000 		.4byte	.LASF12
 1310 0097 02       		.uleb128 0x2
 1311 0098 08       		.byte	0x8
 1312 0099 04       		.byte	0x4
 1313 009a 4B010000 		.4byte	.LASF13
 1314 009e 02       		.uleb128 0x2
 1315 009f 01       		.byte	0x1
 1316 00a0 08       		.byte	0x8
 1317 00a1 FC030000 		.4byte	.LASF14
 1318 00a5 04       		.uleb128 0x4
 1319 00a6 9B040000 		.4byte	.LASF15
 1320 00aa 02       		.byte	0x2
 1321 00ab E8       		.byte	0xe8
 1322 00ac 4C000000 		.4byte	0x4c
 1323 00b0 04       		.uleb128 0x4
 1324 00b1 67030000 		.4byte	.LASF16
 1325 00b5 02       		.byte	0x2
 1326 00b6 F0       		.byte	0xf0
 1327 00b7 BB000000 		.4byte	0xbb
 1328 00bb 05       		.uleb128 0x5
 1329 00bc 6F000000 		.4byte	0x6f
 1330 00c0 04       		.uleb128 0x4
 1331 00c1 C8020000 		.4byte	.LASF17
 1332 00c5 02       		.byte	0x2
 1333 00c6 F2       		.byte	0xf2
ARM GAS  C:\Users\vrnk\AppData\Local\Temp\ccnz7Ubz.s 			page 54


 1334 00c7 CB000000 		.4byte	0xcb
 1335 00cb 05       		.uleb128 0x5
 1336 00cc 85000000 		.4byte	0x85
 1337 00d0 06       		.uleb128 0x6
 1338 00d1 08       		.byte	0x8
 1339 00d2 03       		.byte	0x3
 1340 00d3 15       		.byte	0x15
 1341 00d4 03010000 		.4byte	0x103
 1342 00d8 07       		.uleb128 0x7
 1343 00d9 41040000 		.4byte	.LASF18
 1344 00dd 03       		.byte	0x3
 1345 00de 17       		.byte	0x17
 1346 00df 85000000 		.4byte	0x85
 1347 00e3 02       		.byte	0x2
 1348 00e4 23       		.byte	0x23
 1349 00e5 00       		.uleb128 0
 1350 00e6 07       		.uleb128 0x7
 1351 00e7 1E040000 		.4byte	.LASF19
 1352 00eb 03       		.byte	0x3
 1353 00ec 18       		.byte	0x18
 1354 00ed 6F000000 		.4byte	0x6f
 1355 00f1 02       		.byte	0x2
 1356 00f2 23       		.byte	0x23
 1357 00f3 04       		.uleb128 0x4
 1358 00f4 07       		.uleb128 0x7
 1359 00f5 6E040000 		.4byte	.LASF20
 1360 00f9 03       		.byte	0x3
 1361 00fa 19       		.byte	0x19
 1362 00fb 03010000 		.4byte	0x103
 1363 00ff 02       		.byte	0x2
 1364 0100 23       		.byte	0x23
 1365 0101 05       		.uleb128 0x5
 1366 0102 00       		.byte	0
 1367 0103 08       		.uleb128 0x8
 1368 0104 6F000000 		.4byte	0x6f
 1369 0108 13010000 		.4byte	0x113
 1370 010c 09       		.uleb128 0x9
 1371 010d 13010000 		.4byte	0x113
 1372 0111 02       		.byte	0x2
 1373 0112 00       		.byte	0
 1374 0113 02       		.uleb128 0x2
 1375 0114 04       		.byte	0x4
 1376 0115 07       		.byte	0x7
 1377 0116 CE020000 		.4byte	.LASF21
 1378 011a 04       		.uleb128 0x4
 1379 011b E9020000 		.4byte	.LASF22
 1380 011f 03       		.byte	0x3
 1381 0120 1B       		.byte	0x1b
 1382 0121 D0000000 		.4byte	0xd0
 1383 0125 0A       		.uleb128 0xa
 1384 0126 04       		.byte	0x4
 1385 0127 0B       		.uleb128 0xb
 1386 0128 04       		.byte	0x4
 1387 0129 6F000000 		.4byte	0x6f
 1388 012d 0C       		.uleb128 0xc
 1389 012e 62010000 		.4byte	.LASF28
 1390 0132 01       		.byte	0x1
ARM GAS  C:\Users\vrnk\AppData\Local\Temp\ccnz7Ubz.s 			page 55


 1391 0133 5E05     		.2byte	0x55e
 1392 0135 01       		.byte	0x1
 1393 0136 85000000 		.4byte	0x85
 1394 013a 01       		.byte	0x1
 1395 013b 7C010000 		.4byte	0x17c
 1396 013f 0D       		.uleb128 0xd
 1397 0140 14040000 		.4byte	.LASF23
 1398 0144 01       		.byte	0x1
 1399 0145 5E05     		.2byte	0x55e
 1400 0147 6F000000 		.4byte	0x6f
 1401 014b 0D       		.uleb128 0xd
 1402 014c 6C030000 		.4byte	.LASF24
 1403 0150 01       		.byte	0x1
 1404 0151 5E05     		.2byte	0x55e
 1405 0153 6F000000 		.4byte	0x6f
 1406 0157 0E       		.uleb128 0xe
 1407 0158 FA020000 		.4byte	.LASF25
 1408 015c 01       		.byte	0x1
 1409 015d 6005     		.2byte	0x560
 1410 015f 85000000 		.4byte	0x85
 1411 0163 0E       		.uleb128 0xe
 1412 0164 D7020000 		.4byte	.LASF26
 1413 0168 01       		.byte	0x1
 1414 0169 6105     		.2byte	0x561
 1415 016b 6F000000 		.4byte	0x6f
 1416 016f 0E       		.uleb128 0xe
 1417 0170 F7040000 		.4byte	.LASF27
 1418 0174 01       		.byte	0x1
 1419 0175 6205     		.2byte	0x562
 1420 0177 85000000 		.4byte	0x85
 1421 017b 00       		.byte	0
 1422 017c 0C       		.uleb128 0xc
 1423 017d C1030000 		.4byte	.LASF29
 1424 0181 01       		.byte	0x1
 1425 0182 F501     		.2byte	0x1f5
 1426 0184 01       		.byte	0x1
 1427 0185 A5000000 		.4byte	0xa5
 1428 0189 01       		.byte	0x1
 1429 018a D9010000 		.4byte	0x1d9
 1430 018e 0D       		.uleb128 0xd
 1431 018f 6C030000 		.4byte	.LASF24
 1432 0193 01       		.byte	0x1
 1433 0194 F501     		.2byte	0x1f5
 1434 0196 6F000000 		.4byte	0x6f
 1435 019a 0F       		.uleb128 0xf
 1436 019b 69647800 		.ascii	"idx\000"
 1437 019f 01       		.byte	0x1
 1438 01a0 F801     		.2byte	0x1f8
 1439 01a2 85000000 		.4byte	0x85
 1440 01a6 0F       		.uleb128 0xf
 1441 01a7 656E6400 		.ascii	"end\000"
 1442 01ab 01       		.byte	0x1
 1443 01ac FA01     		.2byte	0x1fa
 1444 01ae 85000000 		.4byte	0x85
 1445 01b2 0E       		.uleb128 0xe
 1446 01b3 BB030000 		.4byte	.LASF30
 1447 01b7 01       		.byte	0x1
ARM GAS  C:\Users\vrnk\AppData\Local\Temp\ccnz7Ubz.s 			page 56


 1448 01b8 FE01     		.2byte	0x1fe
 1449 01ba 6F000000 		.4byte	0x6f
 1450 01be 0E       		.uleb128 0xe
 1451 01bf 7C000000 		.4byte	.LASF31
 1452 01c3 01       		.byte	0x1
 1453 01c4 FF01     		.2byte	0x1ff
 1454 01c6 6F000000 		.4byte	0x6f
 1455 01ca 10       		.uleb128 0x10
 1456 01cb 0E       		.uleb128 0xe
 1457 01cc 0B000000 		.4byte	.LASF32
 1458 01d0 01       		.byte	0x1
 1459 01d1 1902     		.2byte	0x219
 1460 01d3 6F000000 		.4byte	0x6f
 1461 01d7 00       		.byte	0
 1462 01d8 00       		.byte	0
 1463 01d9 11       		.uleb128 0x11
 1464 01da 79010000 		.4byte	.LASF86
 1465 01de 01       		.byte	0x1
 1466 01df 6202     		.2byte	0x262
 1467 01e1 01       		.byte	0x1
 1468 01e2 01       		.byte	0x1
 1469 01e3 EE020000 		.4byte	0x2ee
 1470 01e7 0D       		.uleb128 0xd
 1471 01e8 96020000 		.4byte	.LASF33
 1472 01ec 01       		.byte	0x1
 1473 01ed 6202     		.2byte	0x262
 1474 01ef 6F000000 		.4byte	0x6f
 1475 01f3 0E       		.uleb128 0xe
 1476 01f4 19010000 		.4byte	.LASF34
 1477 01f8 01       		.byte	0x1
 1478 01f9 6402     		.2byte	0x264
 1479 01fb 7A000000 		.4byte	0x7a
 1480 01ff 0E       		.uleb128 0xe
 1481 0200 2D000000 		.4byte	.LASF35
 1482 0204 01       		.byte	0x1
 1483 0205 6502     		.2byte	0x265
 1484 0207 7A000000 		.4byte	0x7a
 1485 020b 0E       		.uleb128 0xe
 1486 020c 06010000 		.4byte	.LASF36
 1487 0210 01       		.byte	0x1
 1488 0211 6602     		.2byte	0x266
 1489 0213 6F000000 		.4byte	0x6f
 1490 0217 0E       		.uleb128 0xe
 1491 0218 01040000 		.4byte	.LASF37
 1492 021c 01       		.byte	0x1
 1493 021d 6702     		.2byte	0x267
 1494 021f 7A000000 		.4byte	0x7a
 1495 0223 0E       		.uleb128 0xe
 1496 0224 52010000 		.4byte	.LASF38
 1497 0228 01       		.byte	0x1
 1498 0229 6802     		.2byte	0x268
 1499 022b A5000000 		.4byte	0xa5
 1500 022f 0E       		.uleb128 0xe
 1501 0230 A4040000 		.4byte	.LASF39
 1502 0234 01       		.byte	0x1
 1503 0235 6902     		.2byte	0x269
 1504 0237 7A000000 		.4byte	0x7a
ARM GAS  C:\Users\vrnk\AppData\Local\Temp\ccnz7Ubz.s 			page 57


 1505 023b 0E       		.uleb128 0xe
 1506 023c AC010000 		.4byte	.LASF40
 1507 0240 01       		.byte	0x1
 1508 0241 6A02     		.2byte	0x26a
 1509 0243 7A000000 		.4byte	0x7a
 1510 0247 0E       		.uleb128 0xe
 1511 0248 00000000 		.4byte	.LASF41
 1512 024c 01       		.byte	0x1
 1513 024d 6B02     		.2byte	0x26b
 1514 024f 6F000000 		.4byte	0x6f
 1515 0253 0E       		.uleb128 0xe
 1516 0254 B4040000 		.4byte	.LASF42
 1517 0258 01       		.byte	0x1
 1518 0259 6E02     		.2byte	0x26e
 1519 025b 6F000000 		.4byte	0x6f
 1520 025f 0E       		.uleb128 0xe
 1521 0260 3E000000 		.4byte	.LASF43
 1522 0264 01       		.byte	0x1
 1523 0265 7102     		.2byte	0x271
 1524 0267 6F000000 		.4byte	0x6f
 1525 026b 0E       		.uleb128 0xe
 1526 026c 51000000 		.4byte	.LASF44
 1527 0270 01       		.byte	0x1
 1528 0271 7302     		.2byte	0x273
 1529 0273 EE020000 		.4byte	0x2ee
 1530 0277 0E       		.uleb128 0xe
 1531 0278 A1010000 		.4byte	.LASF45
 1532 027c 01       		.byte	0x1
 1533 027d 7402     		.2byte	0x274
 1534 027f EE020000 		.4byte	0x2ee
 1535 0283 10       		.uleb128 0x10
 1536 0284 0E       		.uleb128 0xe
 1537 0285 23000000 		.4byte	.LASF46
 1538 0289 01       		.byte	0x1
 1539 028a B702     		.2byte	0x2b7
 1540 028c 6F000000 		.4byte	0x6f
 1541 0290 12       		.uleb128 0x12
 1542 0291 A2020000 		.4byte	0x2a2
 1543 0295 0E       		.uleb128 0xe
 1544 0296 DC000000 		.4byte	.LASF47
 1545 029a 01       		.byte	0x1
 1546 029b FF02     		.2byte	0x2ff
 1547 029d 7A000000 		.4byte	0x7a
 1548 02a1 00       		.byte	0
 1549 02a2 12       		.uleb128 0x12
 1550 02a3 B4020000 		.4byte	0x2b4
 1551 02a7 0E       		.uleb128 0xe
 1552 02a8 13010000 		.4byte	.LASF48
 1553 02ac 01       		.byte	0x1
 1554 02ad 9403     		.2byte	0x394
 1555 02af FF020000 		.4byte	0x2ff
 1556 02b3 00       		.byte	0
 1557 02b4 12       		.uleb128 0x12
 1558 02b5 C6020000 		.4byte	0x2c6
 1559 02b9 0E       		.uleb128 0xe
 1560 02ba 9E020000 		.4byte	.LASF49
 1561 02be 01       		.byte	0x1
ARM GAS  C:\Users\vrnk\AppData\Local\Temp\ccnz7Ubz.s 			page 58


 1562 02bf 6104     		.2byte	0x461
 1563 02c1 1A010000 		.4byte	0x11a
 1564 02c5 00       		.byte	0
 1565 02c6 10       		.uleb128 0x10
 1566 02c7 0E       		.uleb128 0xe
 1567 02c8 5E000000 		.4byte	.LASF50
 1568 02cc 01       		.byte	0x1
 1569 02cd 8104     		.2byte	0x481
 1570 02cf 7A000000 		.4byte	0x7a
 1571 02d3 0E       		.uleb128 0xe
 1572 02d4 98030000 		.4byte	.LASF51
 1573 02d8 01       		.byte	0x1
 1574 02d9 9D04     		.2byte	0x49d
 1575 02db 85000000 		.4byte	0x85
 1576 02df 0E       		.uleb128 0xe
 1577 02e0 35000000 		.4byte	.LASF52
 1578 02e4 01       		.byte	0x1
 1579 02e5 A004     		.2byte	0x4a0
 1580 02e7 6F000000 		.4byte	0x6f
 1581 02eb 00       		.byte	0
 1582 02ec 00       		.byte	0
 1583 02ed 00       		.byte	0
 1584 02ee 08       		.uleb128 0x8
 1585 02ef 6F000000 		.4byte	0x6f
 1586 02f3 FF020000 		.4byte	0x2ff
 1587 02f7 13       		.uleb128 0x13
 1588 02f8 13010000 		.4byte	0x113
 1589 02fc 2B01     		.2byte	0x12b
 1590 02fe 00       		.byte	0
 1591 02ff 08       		.uleb128 0x8
 1592 0300 6F000000 		.4byte	0x6f
 1593 0304 0F030000 		.4byte	0x30f
 1594 0308 09       		.uleb128 0x9
 1595 0309 13010000 		.4byte	0x113
 1596 030d 7F       		.byte	0x7f
 1597 030e 00       		.byte	0
 1598 030f 14       		.uleb128 0x14
 1599 0310 14020000 		.4byte	.LASF87
 1600 0314 01       		.byte	0x1
 1601 0315 D601     		.2byte	0x1d6
 1602 0317 01       		.byte	0x1
 1603 0318 00000000 		.4byte	.LFB38
 1604 031c 02000000 		.4byte	.LFE38
 1605 0320 02       		.byte	0x2
 1606 0321 7D       		.byte	0x7d
 1607 0322 00       		.sleb128 0
 1608 0323 01       		.byte	0x1
 1609 0324 37030000 		.4byte	0x337
 1610 0328 15       		.uleb128 0x15
 1611 0329 C4010000 		.4byte	.LASF64
 1612 032d 01       		.byte	0x1
 1613 032e D601     		.2byte	0x1d6
 1614 0330 85000000 		.4byte	0x85
 1615 0334 01       		.byte	0x1
 1616 0335 50       		.byte	0x50
 1617 0336 00       		.byte	0
 1618 0337 16       		.uleb128 0x16
ARM GAS  C:\Users\vrnk\AppData\Local\Temp\ccnz7Ubz.s 			page 59


 1619 0338 2D010000 		.4byte	0x12d
 1620 033c 00000000 		.4byte	.LFB44
 1621 0340 90000000 		.4byte	.LFE44
 1622 0344 00000000 		.4byte	.LLST0
 1623 0348 01       		.byte	0x1
 1624 0349 87030000 		.4byte	0x387
 1625 034d 17       		.uleb128 0x17
 1626 034e 3F010000 		.4byte	0x13f
 1627 0352 20000000 		.4byte	.LLST1
 1628 0356 18       		.uleb128 0x18
 1629 0357 57010000 		.4byte	0x157
 1630 035b 41000000 		.4byte	.LLST2
 1631 035f 18       		.uleb128 0x18
 1632 0360 63010000 		.4byte	0x163
 1633 0364 79000000 		.4byte	.LLST3
 1634 0368 18       		.uleb128 0x18
 1635 0369 6F010000 		.4byte	0x16f
 1636 036d A5000000 		.4byte	.LLST4
 1637 0371 19       		.uleb128 0x19
 1638 0372 4B010000 		.4byte	0x14b
 1639 0376 00       		.byte	0
 1640 0377 1A       		.uleb128 0x1a
 1641 0378 28000000 		.4byte	.LVL5
 1642 037c CD090000 		.4byte	0x9cd
 1643 0380 1B       		.uleb128 0x1b
 1644 0381 01       		.byte	0x1
 1645 0382 50       		.byte	0x50
 1646 0383 01       		.byte	0x1
 1647 0384 30       		.byte	0x30
 1648 0385 00       		.byte	0
 1649 0386 00       		.byte	0
 1650 0387 16       		.uleb128 0x16
 1651 0388 7C010000 		.4byte	0x17c
 1652 038c 00000000 		.4byte	.LFB45
 1653 0390 58000000 		.4byte	.LFE45
 1654 0394 0B010000 		.4byte	.LLST5
 1655 0398 01       		.byte	0x1
 1656 0399 12040000 		.4byte	0x412
 1657 039d 1C       		.uleb128 0x1c
 1658 039e 9A010000 		.4byte	0x19a
 1659 03a2 01       		.byte	0x1
 1660 03a3 52       		.byte	0x52
 1661 03a4 18       		.uleb128 0x18
 1662 03a5 A6010000 		.4byte	0x1a6
 1663 03a9 2B010000 		.4byte	.LLST6
 1664 03ad 18       		.uleb128 0x18
 1665 03ae B2010000 		.4byte	0x1b2
 1666 03b2 3E010000 		.4byte	.LLST7
 1667 03b6 18       		.uleb128 0x18
 1668 03b7 BE010000 		.4byte	0x1be
 1669 03bb 52010000 		.4byte	.LLST8
 1670 03bf 19       		.uleb128 0x19
 1671 03c0 8E010000 		.4byte	0x18e
 1672 03c4 00       		.byte	0
 1673 03c5 1D       		.uleb128 0x1d
 1674 03c6 28000000 		.4byte	.LBB8
 1675 03ca 38000000 		.4byte	.LBE8
ARM GAS  C:\Users\vrnk\AppData\Local\Temp\ccnz7Ubz.s 			page 60


 1676 03ce DC030000 		.4byte	0x3dc
 1677 03d2 18       		.uleb128 0x18
 1678 03d3 CB010000 		.4byte	0x1cb
 1679 03d7 99010000 		.4byte	.LLST9
 1680 03db 00       		.byte	0
 1681 03dc 1E       		.uleb128 0x1e
 1682 03dd 08000000 		.4byte	.LVL22
 1683 03e1 37030000 		.4byte	0x337
 1684 03e5 EF030000 		.4byte	0x3ef
 1685 03e9 1B       		.uleb128 0x1b
 1686 03ea 01       		.byte	0x1
 1687 03eb 50       		.byte	0x50
 1688 03ec 01       		.byte	0x1
 1689 03ed 32       		.byte	0x32
 1690 03ee 00       		.byte	0
 1691 03ef 1E       		.uleb128 0x1e
 1692 03f0 10000000 		.4byte	.LVL23
 1693 03f4 37030000 		.4byte	0x337
 1694 03f8 02040000 		.4byte	0x402
 1695 03fc 1B       		.uleb128 0x1b
 1696 03fd 01       		.byte	0x1
 1697 03fe 50       		.byte	0x50
 1698 03ff 01       		.byte	0x1
 1699 0400 33       		.byte	0x33
 1700 0401 00       		.byte	0
 1701 0402 1A       		.uleb128 0x1a
 1702 0403 1C000000 		.4byte	.LVL25
 1703 0407 37030000 		.4byte	0x337
 1704 040b 1B       		.uleb128 0x1b
 1705 040c 01       		.byte	0x1
 1706 040d 50       		.byte	0x50
 1707 040e 01       		.byte	0x1
 1708 040f 32       		.byte	0x32
 1709 0410 00       		.byte	0
 1710 0411 00       		.byte	0
 1711 0412 1F       		.uleb128 0x1f
 1712 0413 F6010000 		.4byte	.LASF53
 1713 0417 01       		.byte	0x1
 1714 0418 6E       		.byte	0x6e
 1715 0419 01       		.byte	0x1
 1716 041a 7A000000 		.4byte	0x7a
 1717 041e 01       		.byte	0x1
 1718 041f 45040000 		.4byte	0x445
 1719 0423 20       		.uleb128 0x20
 1720 0424 0D040000 		.4byte	.LASF54
 1721 0428 01       		.byte	0x1
 1722 0429 6E       		.byte	0x6e
 1723 042a 45040000 		.4byte	0x445
 1724 042e 20       		.uleb128 0x20
 1725 042f 0E010000 		.4byte	.LASF55
 1726 0433 01       		.byte	0x1
 1727 0434 6E       		.byte	0x6e
 1728 0435 7A000000 		.4byte	0x7a
 1729 0439 21       		.uleb128 0x21
 1730 043a 73756D00 		.ascii	"sum\000"
 1731 043e 01       		.byte	0x1
 1732 043f 9D       		.byte	0x9d
ARM GAS  C:\Users\vrnk\AppData\Local\Temp\ccnz7Ubz.s 			page 61


 1733 0440 7A000000 		.4byte	0x7a
 1734 0444 00       		.byte	0
 1735 0445 0B       		.uleb128 0xb
 1736 0446 04       		.byte	0x4
 1737 0447 4B040000 		.4byte	0x44b
 1738 044b 22       		.uleb128 0x22
 1739 044c 6F000000 		.4byte	0x6f
 1740 0450 1F       		.uleb128 0x1f
 1741 0451 52040000 		.4byte	.LASF56
 1742 0455 01       		.byte	0x1
 1743 0456 BD       		.byte	0xbd
 1744 0457 01       		.byte	0x1
 1745 0458 6F000000 		.4byte	0x6f
 1746 045c 01       		.byte	0x1
 1747 045d 83040000 		.4byte	0x483
 1748 0461 20       		.uleb128 0x20
 1749 0462 C4040000 		.4byte	.LASF57
 1750 0466 01       		.byte	0x1
 1751 0467 BD       		.byte	0xbd
 1752 0468 85000000 		.4byte	0x85
 1753 046c 20       		.uleb128 0x20
 1754 046d 0E010000 		.4byte	.LASF55
 1755 0471 01       		.byte	0x1
 1756 0472 BD       		.byte	0xbd
 1757 0473 85000000 		.4byte	0x85
 1758 0477 21       		.uleb128 0x21
 1759 0478 73756D00 		.ascii	"sum\000"
 1760 047c 01       		.byte	0x1
 1761 047d C0       		.byte	0xc0
 1762 047e 6F000000 		.4byte	0x6f
 1763 0482 00       		.byte	0
 1764 0483 0C       		.uleb128 0xc
 1765 0484 C5000000 		.4byte	.LASF58
 1766 0488 01       		.byte	0x1
 1767 0489 0005     		.2byte	0x500
 1768 048b 01       		.byte	0x1
 1769 048c A5000000 		.4byte	0xa5
 1770 0490 01       		.byte	0x1
 1771 0491 C6040000 		.4byte	0x4c6
 1772 0495 0D       		.uleb128 0xd
 1773 0496 FF000000 		.4byte	.LASF59
 1774 049a 01       		.byte	0x1
 1775 049b 0005     		.2byte	0x500
 1776 049d 6F000000 		.4byte	0x6f
 1777 04a1 0D       		.uleb128 0xd
 1778 04a2 0D040000 		.4byte	.LASF54
 1779 04a6 01       		.byte	0x1
 1780 04a7 0005     		.2byte	0x500
 1781 04a9 27010000 		.4byte	0x127
 1782 04ad 0D       		.uleb128 0xd
 1783 04ae 0E010000 		.4byte	.LASF55
 1784 04b2 01       		.byte	0x1
 1785 04b3 0005     		.2byte	0x500
 1786 04b5 7A000000 		.4byte	0x7a
 1787 04b9 0E       		.uleb128 0xe
 1788 04ba 35000000 		.4byte	.LASF52
 1789 04be 01       		.byte	0x1
ARM GAS  C:\Users\vrnk\AppData\Local\Temp\ccnz7Ubz.s 			page 62


 1790 04bf 0305     		.2byte	0x503
 1791 04c1 7A000000 		.4byte	0x7a
 1792 04c5 00       		.byte	0
 1793 04c6 16       		.uleb128 0x16
 1794 04c7 D9010000 		.4byte	0x1d9
 1795 04cb 00000000 		.4byte	.LFB46
 1796 04cf B8020000 		.4byte	.LFE46
 1797 04d3 B9010000 		.4byte	.LLST10
 1798 04d7 01       		.byte	0x1
 1799 04d8 C6070000 		.4byte	0x7c6
 1800 04dc 1C       		.uleb128 0x1c
 1801 04dd F3010000 		.4byte	0x1f3
 1802 04e1 02       		.byte	0x2
 1803 04e2 77       		.byte	0x77
 1804 04e3 00       		.sleb128 0
 1805 04e4 18       		.uleb128 0x18
 1806 04e5 FF010000 		.4byte	0x1ff
 1807 04e9 E6010000 		.4byte	.LLST11
 1808 04ed 18       		.uleb128 0x18
 1809 04ee 0B020000 		.4byte	0x20b
 1810 04f2 7E020000 		.4byte	.LLST12
 1811 04f6 18       		.uleb128 0x18
 1812 04f7 17020000 		.4byte	0x217
 1813 04fb 2D030000 		.4byte	.LLST13
 1814 04ff 18       		.uleb128 0x18
 1815 0500 23020000 		.4byte	0x223
 1816 0504 ED050000 		.4byte	.LLST14
 1817 0508 18       		.uleb128 0x18
 1818 0509 2F020000 		.4byte	0x22f
 1819 050d 00060000 		.4byte	.LLST15
 1820 0511 18       		.uleb128 0x18
 1821 0512 3B020000 		.4byte	0x23b
 1822 0516 A1060000 		.4byte	.LLST16
 1823 051a 23       		.uleb128 0x23
 1824 051b 47020000 		.4byte	0x247
 1825 051f 0A       		.byte	0xa
 1826 0520 18       		.uleb128 0x18
 1827 0521 53020000 		.4byte	0x253
 1828 0525 F9060000 		.4byte	.LLST17
 1829 0529 18       		.uleb128 0x18
 1830 052a 5F020000 		.4byte	0x25f
 1831 052e 7E070000 		.4byte	.LLST18
 1832 0532 1C       		.uleb128 0x1c
 1833 0533 6B020000 		.4byte	0x26b
 1834 0537 03       		.byte	0x3
 1835 0538 91       		.byte	0x91
 1836 0539 907B     		.sleb128 -624
 1837 053b 1C       		.uleb128 0x1c
 1838 053c 77020000 		.4byte	0x277
 1839 0540 03       		.byte	0x3
 1840 0541 91       		.byte	0x91
 1841 0542 BC7D     		.sleb128 -324
 1842 0544 19       		.uleb128 0x19
 1843 0545 E7010000 		.4byte	0x1e7
 1844 0549 00       		.byte	0
 1845 054a 24       		.uleb128 0x24
 1846 054b 00000000 		.4byte	.Ldebug_ranges0+0
ARM GAS  C:\Users\vrnk\AppData\Local\Temp\ccnz7Ubz.s 			page 63


 1847 054f D5060000 		.4byte	0x6d5
 1848 0553 18       		.uleb128 0x18
 1849 0554 84020000 		.4byte	0x284
 1850 0558 A9070000 		.4byte	.LLST19
 1851 055c 1D       		.uleb128 0x1d
 1852 055d D4000000 		.4byte	.LBB23
 1853 0561 EA000000 		.4byte	.LBE23
 1854 0565 AB050000 		.4byte	0x5ab
 1855 0569 1C       		.uleb128 0x1c
 1856 056a A7020000 		.4byte	0x2a7
 1857 056e 03       		.byte	0x3
 1858 056f 91       		.byte	0x91
 1859 0570 907A     		.sleb128 -752
 1860 0572 1E       		.uleb128 0x1e
 1861 0573 DE000000 		.4byte	.LVL56
 1862 0577 E1090000 		.4byte	0x9e1
 1863 057b 93050000 		.4byte	0x593
 1864 057f 1B       		.uleb128 0x1b
 1865 0580 01       		.byte	0x1
 1866 0581 52       		.byte	0x52
 1867 0582 02       		.byte	0x2
 1868 0583 08       		.byte	0x8
 1869 0584 80       		.byte	0x80
 1870 0585 1B       		.uleb128 0x1b
 1871 0586 01       		.byte	0x1
 1872 0587 51       		.byte	0x51
 1873 0588 02       		.byte	0x2
 1874 0589 77       		.byte	0x77
 1875 058a 00       		.sleb128 0
 1876 058b 1B       		.uleb128 0x1b
 1877 058c 01       		.byte	0x1
 1878 058d 50       		.byte	0x50
 1879 058e 03       		.byte	0x3
 1880 058f 91       		.byte	0x91
 1881 0590 907A     		.sleb128 -752
 1882 0592 00       		.byte	0
 1883 0593 1A       		.uleb128 0x1a
 1884 0594 E6000000 		.4byte	.LVL57
 1885 0598 020A0000 		.4byte	0xa02
 1886 059c 1B       		.uleb128 0x1b
 1887 059d 01       		.byte	0x1
 1888 059e 51       		.byte	0x51
 1889 059f 03       		.byte	0x3
 1890 05a0 91       		.byte	0x91
 1891 05a1 907A     		.sleb128 -752
 1892 05a3 1B       		.uleb128 0x1b
 1893 05a4 01       		.byte	0x1
 1894 05a5 50       		.byte	0x50
 1895 05a6 02       		.byte	0x2
 1896 05a7 08       		.byte	0x8
 1897 05a8 FF       		.byte	0xff
 1898 05a9 00       		.byte	0
 1899 05aa 00       		.byte	0
 1900 05ab 1D       		.uleb128 0x1d
 1901 05ac A6010000 		.4byte	.LBB24
 1902 05b0 CC010000 		.4byte	.LBE24
 1903 05b4 C2050000 		.4byte	0x5c2
ARM GAS  C:\Users\vrnk\AppData\Local\Temp\ccnz7Ubz.s 			page 64


 1904 05b8 18       		.uleb128 0x18
 1905 05b9 95020000 		.4byte	0x295
 1906 05bd 45080000 		.4byte	.LLST20
 1907 05c1 00       		.byte	0
 1908 05c2 1D       		.uleb128 0x1d
 1909 05c3 00020000 		.4byte	.LBB25
 1910 05c7 18020000 		.4byte	.LBE25
 1911 05cb D9050000 		.4byte	0x5d9
 1912 05cf 1C       		.uleb128 0x1c
 1913 05d0 B9020000 		.4byte	0x2b9
 1914 05d4 03       		.byte	0x3
 1915 05d5 91       		.byte	0x91
 1916 05d6 907A     		.sleb128 -752
 1917 05d8 00       		.byte	0
 1918 05d9 1D       		.uleb128 0x1d
 1919 05da 20020000 		.4byte	.LBB26
 1920 05de 68020000 		.4byte	.LBE26
 1921 05e2 38060000 		.4byte	0x638
 1922 05e6 18       		.uleb128 0x18
 1923 05e7 C7020000 		.4byte	0x2c7
 1924 05eb 7C080000 		.4byte	.LLST21
 1925 05ef 18       		.uleb128 0x18
 1926 05f0 D3020000 		.4byte	0x2d3
 1927 05f4 AD080000 		.4byte	.LLST22
 1928 05f8 18       		.uleb128 0x18
 1929 05f9 DF020000 		.4byte	0x2df
 1930 05fd 15090000 		.4byte	.LLST23
 1931 0601 25       		.uleb128 0x25
 1932 0602 50040000 		.4byte	0x450
 1933 0606 3A020000 		.4byte	.LBB27
 1934 060a 46020000 		.4byte	.LBE27
 1935 060e 01       		.byte	0x1
 1936 060f A004     		.2byte	0x4a0
 1937 0611 17       		.uleb128 0x17
 1938 0612 6C040000 		.4byte	0x46c
 1939 0616 33090000 		.4byte	.LLST24
 1940 061a 17       		.uleb128 0x17
 1941 061b 61040000 		.4byte	0x461
 1942 061f AD080000 		.4byte	.LLST22
 1943 0623 26       		.uleb128 0x26
 1944 0624 3A020000 		.4byte	.LBB28
 1945 0628 46020000 		.4byte	.LBE28
 1946 062c 18       		.uleb128 0x18
 1947 062d 77040000 		.4byte	0x477
 1948 0631 53090000 		.4byte	.LLST26
 1949 0635 00       		.byte	0
 1950 0636 00       		.byte	0
 1951 0637 00       		.byte	0
 1952 0638 1E       		.uleb128 0x1e
 1953 0639 AC000000 		.4byte	.LVL52
 1954 063d E1090000 		.4byte	0x9e1
 1955 0641 5B060000 		.4byte	0x65b
 1956 0645 1B       		.uleb128 0x1b
 1957 0646 01       		.byte	0x1
 1958 0647 52       		.byte	0x52
 1959 0648 02       		.byte	0x2
 1960 0649 08       		.byte	0x8
ARM GAS  C:\Users\vrnk\AppData\Local\Temp\ccnz7Ubz.s 			page 65


 1961 064a 80       		.byte	0x80
 1962 064b 1B       		.uleb128 0x1b
 1963 064c 01       		.byte	0x1
 1964 064d 51       		.byte	0x51
 1965 064e 04       		.byte	0x4
 1966 064f 91       		.byte	0x91
 1967 0650 807A     		.sleb128 -768
 1968 0652 06       		.byte	0x6
 1969 0653 1B       		.uleb128 0x1b
 1970 0654 01       		.byte	0x1
 1971 0655 50       		.byte	0x50
 1972 0656 03       		.byte	0x3
 1973 0657 91       		.byte	0x91
 1974 0658 BC7D     		.sleb128 -324
 1975 065a 00       		.byte	0
 1976 065b 1E       		.uleb128 0x1e
 1977 065c C0000000 		.4byte	.LVL54
 1978 0660 1F0A0000 		.4byte	0xa1f
 1979 0664 76060000 		.4byte	0x676
 1980 0668 1B       		.uleb128 0x1b
 1981 0669 01       		.byte	0x1
 1982 066a 52       		.byte	0x52
 1983 066b 02       		.byte	0x2
 1984 066c 74       		.byte	0x74
 1985 066d 7D       		.sleb128 -3
 1986 066e 1B       		.uleb128 0x1b
 1987 066f 01       		.byte	0x1
 1988 0670 51       		.byte	0x51
 1989 0671 03       		.byte	0x3
 1990 0672 91       		.byte	0x91
 1991 0673 977B     		.sleb128 -617
 1992 0675 00       		.byte	0
 1993 0676 1E       		.uleb128 0x1e
 1994 0677 F2000000 		.4byte	.LVL59
 1995 067b 020A0000 		.4byte	0xa02
 1996 067f 91060000 		.4byte	0x691
 1997 0683 1B       		.uleb128 0x1b
 1998 0684 01       		.byte	0x1
 1999 0685 51       		.byte	0x51
 2000 0686 03       		.byte	0x3
 2001 0687 91       		.byte	0x91
 2002 0688 BC7D     		.sleb128 -324
 2003 068a 1B       		.uleb128 0x1b
 2004 068b 01       		.byte	0x1
 2005 068c 50       		.byte	0x50
 2006 068d 02       		.byte	0x2
 2007 068e 76       		.byte	0x76
 2008 068f 00       		.sleb128 0
 2009 0690 00       		.byte	0
 2010 0691 27       		.uleb128 0x27
 2011 0692 92010000 		.4byte	.LVL84
 2012 0696 87030000 		.4byte	0x387
 2013 069a 1E       		.uleb128 0x1e
 2014 069b F6010000 		.4byte	.LVL96
 2015 069f 1F0A0000 		.4byte	0xa1f
 2016 06a3 C2060000 		.4byte	0x6c2
 2017 06a7 1B       		.uleb128 0x1b
ARM GAS  C:\Users\vrnk\AppData\Local\Temp\ccnz7Ubz.s 			page 66


 2018 06a8 01       		.byte	0x1
 2019 06a9 52       		.byte	0x52
 2020 06aa 02       		.byte	0x2
 2021 06ab 74       		.byte	0x74
 2022 06ac 00       		.sleb128 0
 2023 06ad 1B       		.uleb128 0x1b
 2024 06ae 01       		.byte	0x1
 2025 06af 51       		.byte	0x51
 2026 06b0 03       		.byte	0x3
 2027 06b1 91       		.byte	0x91
 2028 06b2 947B     		.sleb128 -620
 2029 06b4 1B       		.uleb128 0x1b
 2030 06b5 01       		.byte	0x1
 2031 06b6 50       		.byte	0x50
 2032 06b7 09       		.byte	0x9
 2033 06b8 91       		.byte	0x91
 2034 06b9 00       		.sleb128 0
 2035 06ba 76       		.byte	0x76
 2036 06bb 00       		.sleb128 0
 2037 06bc 22       		.byte	0x22
 2038 06bd 0A       		.byte	0xa
 2039 06be 4401     		.2byte	0x144
 2040 06c0 1C       		.byte	0x1c
 2041 06c1 00       		.byte	0
 2042 06c2 27       		.uleb128 0x27
 2043 06c3 6C020000 		.4byte	.LVL117
 2044 06c7 87030000 		.4byte	0x387
 2045 06cb 27       		.uleb128 0x27
 2046 06cc 7A020000 		.4byte	.LVL119
 2047 06d0 470A0000 		.4byte	0xa47
 2048 06d4 00       		.byte	0
 2049 06d5 28       		.uleb128 0x28
 2050 06d6 12040000 		.4byte	0x412
 2051 06da 64000000 		.4byte	.LBB29
 2052 06de 20000000 		.4byte	.Ldebug_ranges0+0x20
 2053 06e2 01       		.byte	0x1
 2054 06e3 A902     		.2byte	0x2a9
 2055 06e5 07070000 		.4byte	0x707
 2056 06e9 17       		.uleb128 0x17
 2057 06ea 2E040000 		.4byte	0x42e
 2058 06ee 72090000 		.4byte	.LLST27
 2059 06f2 29       		.uleb128 0x29
 2060 06f3 23040000 		.4byte	0x423
 2061 06f7 2A       		.uleb128 0x2a
 2062 06f8 38000000 		.4byte	.Ldebug_ranges0+0x38
 2063 06fc 18       		.uleb128 0x18
 2064 06fd 39040000 		.4byte	0x439
 2065 0701 9D090000 		.4byte	.LLST28
 2066 0705 00       		.byte	0
 2067 0706 00       		.byte	0
 2068 0707 2B       		.uleb128 0x2b
 2069 0708 83040000 		.4byte	0x483
 2070 070c 00010000 		.4byte	.LBB34
 2071 0710 62010000 		.4byte	.LBE34
 2072 0714 01       		.byte	0x1
 2073 0715 E504     		.2byte	0x4e5
 2074 0717 98070000 		.4byte	0x798
ARM GAS  C:\Users\vrnk\AppData\Local\Temp\ccnz7Ubz.s 			page 67


 2075 071b 2C       		.uleb128 0x2c
 2076 071c AD040000 		.4byte	0x4ad
 2077 0720 02       		.byte	0x2
 2078 0721 72       		.byte	0x72
 2079 0722 00       		.sleb128 0
 2080 0723 17       		.uleb128 0x17
 2081 0724 A1040000 		.4byte	0x4a1
 2082 0728 D7090000 		.4byte	.LLST29
 2083 072c 17       		.uleb128 0x17
 2084 072d 95040000 		.4byte	0x495
 2085 0731 1F0A0000 		.4byte	.LLST30
 2086 0735 26       		.uleb128 0x26
 2087 0736 00010000 		.4byte	.LBB35
 2088 073a 62010000 		.4byte	.LBE35
 2089 073e 1C       		.uleb128 0x1c
 2090 073f B9040000 		.4byte	0x4b9
 2091 0743 01       		.byte	0x1
 2092 0744 50       		.byte	0x50
 2093 0745 2B       		.uleb128 0x2b
 2094 0746 12040000 		.4byte	0x412
 2095 074a 20010000 		.4byte	.LBB36
 2096 074e 3A010000 		.4byte	.LBE36
 2097 0752 01       		.byte	0x1
 2098 0753 0C05     		.2byte	0x50c
 2099 0755 7F070000 		.4byte	0x77f
 2100 0759 17       		.uleb128 0x17
 2101 075a 2E040000 		.4byte	0x42e
 2102 075e 320A0000 		.4byte	.LLST31
 2103 0762 17       		.uleb128 0x17
 2104 0763 23040000 		.4byte	0x423
 2105 0767 450A0000 		.4byte	.LLST32
 2106 076b 26       		.uleb128 0x26
 2107 076c 20010000 		.4byte	.LBB37
 2108 0770 3A010000 		.4byte	.LBE37
 2109 0774 18       		.uleb128 0x18
 2110 0775 39040000 		.4byte	0x439
 2111 0779 740A0000 		.4byte	.LLST33
 2112 077d 00       		.byte	0
 2113 077e 00       		.byte	0
 2114 077f 1A       		.uleb128 0x1a
 2115 0780 60010000 		.4byte	.LVL77
 2116 0784 510A0000 		.4byte	0xa51
 2117 0788 1B       		.uleb128 0x1b
 2118 0789 01       		.byte	0x1
 2119 078a 53       		.byte	0x53
 2120 078b 02       		.byte	0x2
 2121 078c 09       		.byte	0x9
 2122 078d 96       		.byte	0x96
 2123 078e 1B       		.uleb128 0x1b
 2124 078f 01       		.byte	0x1
 2125 0790 50       		.byte	0x50
 2126 0791 03       		.byte	0x3
 2127 0792 91       		.byte	0x91
 2128 0793 907B     		.sleb128 -624
 2129 0795 00       		.byte	0
 2130 0796 00       		.byte	0
 2131 0797 00       		.byte	0
ARM GAS  C:\Users\vrnk\AppData\Local\Temp\ccnz7Ubz.s 			page 68


 2132 0798 27       		.uleb128 0x27
 2133 0799 0A000000 		.4byte	.LVL36
 2134 079d 7E0A0000 		.4byte	0xa7e
 2135 07a1 1A       		.uleb128 0x1a
 2136 07a2 22000000 		.4byte	.LVL38
 2137 07a6 880A0000 		.4byte	0xa88
 2138 07aa 1B       		.uleb128 0x1b
 2139 07ab 01       		.byte	0x1
 2140 07ac 53       		.byte	0x53
 2141 07ad 02       		.byte	0x2
 2142 07ae 09       		.byte	0x9
 2143 07af FF       		.byte	0xff
 2144 07b0 1B       		.uleb128 0x1b
 2145 07b1 01       		.byte	0x1
 2146 07b2 52       		.byte	0x52
 2147 07b3 02       		.byte	0x2
 2148 07b4 77       		.byte	0x77
 2149 07b5 00       		.sleb128 0
 2150 07b6 1B       		.uleb128 0x1b
 2151 07b7 01       		.byte	0x1
 2152 07b8 51       		.byte	0x51
 2153 07b9 03       		.byte	0x3
 2154 07ba 0A       		.byte	0xa
 2155 07bb 2C01     		.2byte	0x12c
 2156 07bd 1B       		.uleb128 0x1b
 2157 07be 01       		.byte	0x1
 2158 07bf 50       		.byte	0x50
 2159 07c0 03       		.byte	0x3
 2160 07c1 91       		.byte	0x91
 2161 07c2 907B     		.sleb128 -624
 2162 07c4 00       		.byte	0
 2163 07c5 00       		.byte	0
 2164 07c6 2D       		.uleb128 0x2d
 2165 07c7 AB020000 		.4byte	.LASF88
 2166 07cb 01       		.byte	0x1
 2167 07cc 8901     		.2byte	0x189
 2168 07ce 01       		.byte	0x1
 2169 07cf 01       		.byte	0x1
 2170 07d0 2E       		.uleb128 0x2e
 2171 07d1 01       		.byte	0x1
 2172 07d2 A4000000 		.4byte	.LASF61
 2173 07d6 01       		.byte	0x1
 2174 07d7 1001     		.2byte	0x110
 2175 07d9 01       		.byte	0x1
 2176 07da 00000000 		.4byte	.LFB35
 2177 07de 5C000000 		.4byte	.LFE35
 2178 07e2 950A0000 		.4byte	.LLST34
 2179 07e6 01       		.byte	0x1
 2180 07e7 86080000 		.4byte	0x886
 2181 07eb 2F       		.uleb128 0x2f
 2182 07ec 7C000000 		.4byte	.LASF31
 2183 07f0 01       		.byte	0x1
 2184 07f1 1301     		.2byte	0x113
 2185 07f3 6F000000 		.4byte	0x6f
 2186 07f7 B50A0000 		.4byte	.LLST35
 2187 07fb 2F       		.uleb128 0x2f
 2188 07fc 8B000000 		.4byte	.LASF60
ARM GAS  C:\Users\vrnk\AppData\Local\Temp\ccnz7Ubz.s 			page 69


 2189 0800 01       		.byte	0x1
 2190 0801 1A01     		.2byte	0x11a
 2191 0803 A5000000 		.4byte	0xa5
 2192 0807 CE0A0000 		.4byte	.LLST36
 2193 080b 2B       		.uleb128 0x2b
 2194 080c 50040000 		.4byte	0x450
 2195 0810 0E000000 		.4byte	.LBB43
 2196 0814 1A000000 		.4byte	.LBE43
 2197 0818 01       		.byte	0x1
 2198 0819 4901     		.2byte	0x149
 2199 081b 42080000 		.4byte	0x842
 2200 081f 17       		.uleb128 0x17
 2201 0820 6C040000 		.4byte	0x46c
 2202 0824 EC0A0000 		.4byte	.LLST37
 2203 0828 19       		.uleb128 0x19
 2204 0829 61040000 		.4byte	0x461
 2205 082d C0       		.byte	0xc0
 2206 082e 26       		.uleb128 0x26
 2207 082f 0E000000 		.4byte	.LBB44
 2208 0833 1A000000 		.4byte	.LBE44
 2209 0837 18       		.uleb128 0x18
 2210 0838 77040000 		.4byte	0x477
 2211 083c 020B0000 		.4byte	.LLST38
 2212 0840 00       		.byte	0
 2213 0841 00       		.byte	0
 2214 0842 28       		.uleb128 0x28
 2215 0843 C6070000 		.4byte	0x7c6
 2216 0847 4A000000 		.4byte	.LBB45
 2217 084b 50000000 		.4byte	.Ldebug_ranges0+0x50
 2218 084f 01       		.byte	0x1
 2219 0850 7701     		.2byte	0x177
 2220 0852 60080000 		.4byte	0x860
 2221 0856 27       		.uleb128 0x27
 2222 0857 52000000 		.4byte	.LVL134
 2223 085b 470A0000 		.4byte	0xa47
 2224 085f 00       		.byte	0
 2225 0860 1E       		.uleb128 0x1e
 2226 0861 30000000 		.4byte	.LVL130
 2227 0865 CD090000 		.4byte	0x9cd
 2228 0869 73080000 		.4byte	0x873
 2229 086d 1B       		.uleb128 0x1b
 2230 086e 01       		.byte	0x1
 2231 086f 50       		.byte	0x50
 2232 0870 01       		.byte	0x1
 2233 0871 30       		.byte	0x30
 2234 0872 00       		.byte	0
 2235 0873 27       		.uleb128 0x27
 2236 0874 34000000 		.4byte	.LVL131
 2237 0878 87030000 		.4byte	0x387
 2238 087c 27       		.uleb128 0x27
 2239 087d 4A000000 		.4byte	.LVL132
 2240 0881 C6040000 		.4byte	0x4c6
 2241 0885 00       		.byte	0
 2242 0886 2E       		.uleb128 0x2e
 2243 0887 01       		.byte	0x1
 2244 0888 8D010000 		.4byte	.LASF62
 2245 088c 01       		.byte	0x1
ARM GAS  C:\Users\vrnk\AppData\Local\Temp\ccnz7Ubz.s 			page 70


 2246 088d A301     		.2byte	0x1a3
 2247 088f 01       		.byte	0x1
 2248 0890 00000000 		.4byte	.LFB37
 2249 0894 38000000 		.4byte	.LFE37
 2250 0898 2C0B0000 		.4byte	.LLST39
 2251 089c 01       		.byte	0x1
 2252 089d D1080000 		.4byte	0x8d1
 2253 08a1 1E       		.uleb128 0x1e
 2254 08a2 20000000 		.4byte	.LVL135
 2255 08a6 37030000 		.4byte	0x337
 2256 08aa B4080000 		.4byte	0x8b4
 2257 08ae 1B       		.uleb128 0x1b
 2258 08af 01       		.byte	0x1
 2259 08b0 50       		.byte	0x50
 2260 08b1 01       		.byte	0x1
 2261 08b2 31       		.byte	0x31
 2262 08b3 00       		.byte	0
 2263 08b4 1E       		.uleb128 0x1e
 2264 08b5 2A000000 		.4byte	.LVL136
 2265 08b9 37030000 		.4byte	0x337
 2266 08bd C7080000 		.4byte	0x8c7
 2267 08c1 1B       		.uleb128 0x1b
 2268 08c2 01       		.byte	0x1
 2269 08c3 50       		.byte	0x50
 2270 08c4 01       		.byte	0x1
 2271 08c5 31       		.byte	0x31
 2272 08c6 00       		.byte	0
 2273 08c7 27       		.uleb128 0x27
 2274 08c8 2E000000 		.4byte	.LVL137
 2275 08cc 0F030000 		.4byte	0x30f
 2276 08d0 00       		.byte	0
 2277 08d1 2E       		.uleb128 0x2e
 2278 08d2 01       		.byte	0x1
 2279 08d3 CC010000 		.4byte	.LASF63
 2280 08d7 01       		.byte	0x1
 2281 08d8 2905     		.2byte	0x529
 2282 08da 01       		.byte	0x1
 2283 08db 00000000 		.4byte	.LFB42
 2284 08df 2E000000 		.4byte	.LFE42
 2285 08e3 4C0B0000 		.4byte	.LLST40
 2286 08e7 01       		.byte	0x1
 2287 08e8 6D090000 		.4byte	0x96d
 2288 08ec 30       		.uleb128 0x30
 2289 08ed E1020000 		.4byte	.LASF65
 2290 08f1 01       		.byte	0x1
 2291 08f2 2905     		.2byte	0x529
 2292 08f4 85000000 		.4byte	0x85
 2293 08f8 790B0000 		.4byte	.LLST41
 2294 08fc 30       		.uleb128 0x30
 2295 08fd 90030000 		.4byte	.LASF66
 2296 0901 01       		.byte	0x1
 2297 0902 2905     		.2byte	0x529
 2298 0904 6F000000 		.4byte	0x6f
 2299 0908 A50B0000 		.4byte	.LLST42
 2300 090c 2F       		.uleb128 0x2f
 2301 090d 93040000 		.4byte	.LASF67
 2302 0911 01       		.byte	0x1
ARM GAS  C:\Users\vrnk\AppData\Local\Temp\ccnz7Ubz.s 			page 71


 2303 0912 2B05     		.2byte	0x52b
 2304 0914 85000000 		.4byte	0x85
 2305 0918 790B0000 		.4byte	.LLST41
 2306 091c 31       		.uleb128 0x31
 2307 091d AC040000 		.4byte	.LASF68
 2308 0921 01       		.byte	0x1
 2309 0922 2C05     		.2byte	0x52c
 2310 0924 FF020000 		.4byte	0x2ff
 2311 0928 03       		.byte	0x3
 2312 0929 91       		.byte	0x91
 2313 092a F07E     		.sleb128 -144
 2314 092c 2F       		.uleb128 0x2f
 2315 092d 5E000000 		.4byte	.LASF50
 2316 0931 01       		.byte	0x1
 2317 0932 3205     		.2byte	0x532
 2318 0934 7A000000 		.4byte	0x7a
 2319 0938 D50B0000 		.4byte	.LLST44
 2320 093c 2F       		.uleb128 0x2f
 2321 093d 1A000000 		.4byte	.LASF69
 2322 0941 01       		.byte	0x1
 2323 0942 3305     		.2byte	0x533
 2324 0944 85000000 		.4byte	0x85
 2325 0948 FA0B0000 		.4byte	.LLST45
 2326 094c 32       		.uleb128 0x32
 2327 094d 69647800 		.ascii	"idx\000"
 2328 0951 01       		.byte	0x1
 2329 0952 3405     		.2byte	0x534
 2330 0954 7A000000 		.4byte	0x7a
 2331 0958 410C0000 		.4byte	.LLST46
 2332 095c 1A       		.uleb128 0x1a
 2333 095d 2A000000 		.4byte	.LVL145
 2334 0961 020A0000 		.4byte	0xa02
 2335 0965 1B       		.uleb128 0x1b
 2336 0966 01       		.byte	0x1
 2337 0967 51       		.byte	0x51
 2338 0968 02       		.byte	0x2
 2339 0969 76       		.byte	0x76
 2340 096a 00       		.sleb128 0
 2341 096b 00       		.byte	0
 2342 096c 00       		.byte	0
 2343 096d 33       		.uleb128 0x33
 2344 096e FE040000 		.4byte	.LASF70
 2345 0972 01       		.byte	0x1
 2346 0973 26       		.byte	0x26
 2347 0974 4B040000 		.4byte	0x44b
 2348 0978 01       		.byte	0x1
 2349 0979 05       		.byte	0x5
 2350 097a 03       		.byte	0x3
 2351 097b 00000000 		.4byte	Bootloader_Checksum
 2352 097f 33       		.uleb128 0x33
 2353 0980 27040000 		.4byte	.LASF71
 2354 0984 01       		.byte	0x1
 2355 0985 27       		.byte	0x27
 2356 0986 45040000 		.4byte	0x445
 2357 098a 01       		.byte	0x1
 2358 098b 05       		.byte	0x5
 2359 098c 03       		.byte	0x3
ARM GAS  C:\Users\vrnk\AppData\Local\Temp\ccnz7Ubz.s 			page 72


 2360 098d 00000000 		.4byte	Bootloader_ChecksumAccess
 2361 0991 33       		.uleb128 0x33
 2362 0992 09030000 		.4byte	.LASF72
 2363 0996 01       		.byte	0x1
 2364 0997 2F       		.byte	0x2f
 2365 0998 A3090000 		.4byte	0x9a3
 2366 099c 01       		.byte	0x1
 2367 099d 05       		.byte	0x5
 2368 099e 03       		.byte	0x3
 2369 099f 00000000 		.4byte	Bootloader_SizeBytes
 2370 09a3 22       		.uleb128 0x22
 2371 09a4 85000000 		.4byte	0x85
 2372 09a8 33       		.uleb128 0x33
 2373 09a9 E1030000 		.4byte	.LASF73
 2374 09ad 01       		.byte	0x1
 2375 09ae 30       		.byte	0x30
 2376 09af BA090000 		.4byte	0x9ba
 2377 09b3 01       		.byte	0x1
 2378 09b4 05       		.byte	0x5
 2379 09b5 03       		.byte	0x3
 2380 09b6 00000000 		.4byte	Bootloader_SizeBytesAccess
 2381 09ba 0B       		.uleb128 0xb
 2382 09bb 04       		.byte	0x4
 2383 09bc A3090000 		.4byte	0x9a3
 2384 09c0 34       		.uleb128 0x34
 2385 09c1 95000000 		.4byte	.LASF74
 2386 09c5 04       		.byte	0x4
 2387 09c6 60       		.byte	0x60
 2388 09c7 CB000000 		.4byte	0xcb
 2389 09cb 01       		.byte	0x1
 2390 09cc 01       		.byte	0x1
 2391 09cd 35       		.uleb128 0x35
 2392 09ce 01       		.byte	0x1
 2393 09cf F0040000 		.4byte	.LASF75
 2394 09d3 06       		.byte	0x6
 2395 09d4 72       		.byte	0x72
 2396 09d5 01       		.byte	0x1
 2397 09d6 01       		.byte	0x1
 2398 09d7 E1090000 		.4byte	0x9e1
 2399 09db 36       		.uleb128 0x36
 2400 09dc 6F000000 		.4byte	0x6f
 2401 09e0 00       		.byte	0
 2402 09e1 37       		.uleb128 0x37
 2403 09e2 01       		.byte	0x1
 2404 09e3 4B040000 		.4byte	.LASF76
 2405 09e7 01       		.byte	0x1
 2406 09e8 25010000 		.4byte	0x125
 2407 09ec 01       		.byte	0x1
 2408 09ed 01       		.byte	0x1
 2409 09ee 020A0000 		.4byte	0xa02
 2410 09f2 36       		.uleb128 0x36
 2411 09f3 25010000 		.4byte	0x125
 2412 09f7 36       		.uleb128 0x36
 2413 09f8 61000000 		.4byte	0x61
 2414 09fc 36       		.uleb128 0x36
 2415 09fd 13010000 		.4byte	0x113
 2416 0a01 00       		.byte	0
ARM GAS  C:\Users\vrnk\AppData\Local\Temp\ccnz7Ubz.s 			page 73


 2417 0a02 38       		.uleb128 0x38
 2418 0a03 01       		.byte	0x1
 2419 0a04 80040000 		.4byte	.LASF78
 2420 0a08 05       		.byte	0x5
 2421 0a09 1C       		.byte	0x1c
 2422 0a0a 01       		.byte	0x1
 2423 0a0b A5000000 		.4byte	0xa5
 2424 0a0f 01       		.byte	0x1
 2425 0a10 1F0A0000 		.4byte	0xa1f
 2426 0a14 36       		.uleb128 0x36
 2427 0a15 85000000 		.4byte	0x85
 2428 0a19 36       		.uleb128 0x36
 2429 0a1a 45040000 		.4byte	0x445
 2430 0a1e 00       		.byte	0
 2431 0a1f 37       		.uleb128 0x37
 2432 0a20 01       		.byte	0x1
 2433 0a21 3E010000 		.4byte	.LASF77
 2434 0a25 01       		.byte	0x1
 2435 0a26 25010000 		.4byte	0x125
 2436 0a2a 01       		.byte	0x1
 2437 0a2b 01       		.byte	0x1
 2438 0a2c 400A0000 		.4byte	0xa40
 2439 0a30 36       		.uleb128 0x36
 2440 0a31 25010000 		.4byte	0x125
 2441 0a35 36       		.uleb128 0x36
 2442 0a36 400A0000 		.4byte	0xa40
 2443 0a3a 36       		.uleb128 0x36
 2444 0a3b 13010000 		.4byte	0x113
 2445 0a3f 00       		.byte	0
 2446 0a40 0B       		.uleb128 0xb
 2447 0a41 04       		.byte	0x4
 2448 0a42 460A0000 		.4byte	0xa46
 2449 0a46 39       		.uleb128 0x39
 2450 0a47 3A       		.uleb128 0x3a
 2451 0a48 01       		.byte	0x1
 2452 0a49 B5000000 		.4byte	.LASF80
 2453 0a4d 06       		.byte	0x6
 2454 0a4e 6F       		.byte	0x6f
 2455 0a4f 01       		.byte	0x1
 2456 0a50 01       		.byte	0x1
 2457 0a51 38       		.uleb128 0x38
 2458 0a52 01       		.byte	0x1
 2459 0a53 2D010000 		.4byte	.LASF79
 2460 0a57 04       		.byte	0x4
 2461 0a58 A0       		.byte	0xa0
 2462 0a59 01       		.byte	0x1
 2463 0a5a A5000000 		.4byte	0xa5
 2464 0a5e 01       		.byte	0x1
 2465 0a5f 780A0000 		.4byte	0xa78
 2466 0a63 36       		.uleb128 0x36
 2467 0a64 27010000 		.4byte	0x127
 2468 0a68 36       		.uleb128 0x36
 2469 0a69 7A000000 		.4byte	0x7a
 2470 0a6d 36       		.uleb128 0x36
 2471 0a6e 780A0000 		.4byte	0xa78
 2472 0a72 36       		.uleb128 0x36
 2473 0a73 6F000000 		.4byte	0x6f
ARM GAS  C:\Users\vrnk\AppData\Local\Temp\ccnz7Ubz.s 			page 74


 2474 0a77 00       		.byte	0
 2475 0a78 0B       		.uleb128 0xb
 2476 0a79 04       		.byte	0x4
 2477 0a7a 7A000000 		.4byte	0x7a
 2478 0a7e 3A       		.uleb128 0x3a
 2479 0a7f 01       		.byte	0x1
 2480 0a80 AA030000 		.4byte	.LASF81
 2481 0a84 04       		.byte	0x4
 2482 0a85 9D       		.byte	0x9d
 2483 0a86 01       		.byte	0x1
 2484 0a87 01       		.byte	0x1
 2485 0a88 3B       		.uleb128 0x3b
 2486 0a89 01       		.byte	0x1
 2487 0a8a 80030000 		.4byte	.LASF82
 2488 0a8e 04       		.byte	0x4
 2489 0a8f A1       		.byte	0xa1
 2490 0a90 01       		.byte	0x1
 2491 0a91 A5000000 		.4byte	0xa5
 2492 0a95 01       		.byte	0x1
 2493 0a96 36       		.uleb128 0x36
 2494 0a97 27010000 		.4byte	0x127
 2495 0a9b 36       		.uleb128 0x36
 2496 0a9c 7A000000 		.4byte	0x7a
 2497 0aa0 36       		.uleb128 0x36
 2498 0aa1 780A0000 		.4byte	0xa78
 2499 0aa5 36       		.uleb128 0x36
 2500 0aa6 6F000000 		.4byte	0x6f
 2501 0aaa 00       		.byte	0
 2502 0aab 00       		.byte	0
 2503              		.section	.debug_abbrev,"",%progbits
 2504              	.Ldebug_abbrev0:
 2505 0000 01       		.uleb128 0x1
 2506 0001 11       		.uleb128 0x11
 2507 0002 01       		.byte	0x1
 2508 0003 25       		.uleb128 0x25
 2509 0004 0E       		.uleb128 0xe
 2510 0005 13       		.uleb128 0x13
 2511 0006 0B       		.uleb128 0xb
 2512 0007 03       		.uleb128 0x3
 2513 0008 0E       		.uleb128 0xe
 2514 0009 1B       		.uleb128 0x1b
 2515 000a 0E       		.uleb128 0xe
 2516 000b 55       		.uleb128 0x55
 2517 000c 06       		.uleb128 0x6
 2518 000d 11       		.uleb128 0x11
 2519 000e 01       		.uleb128 0x1
 2520 000f 52       		.uleb128 0x52
 2521 0010 01       		.uleb128 0x1
 2522 0011 10       		.uleb128 0x10
 2523 0012 06       		.uleb128 0x6
 2524 0013 00       		.byte	0
 2525 0014 00       		.byte	0
 2526 0015 02       		.uleb128 0x2
 2527 0016 24       		.uleb128 0x24
 2528 0017 00       		.byte	0
 2529 0018 0B       		.uleb128 0xb
 2530 0019 0B       		.uleb128 0xb
ARM GAS  C:\Users\vrnk\AppData\Local\Temp\ccnz7Ubz.s 			page 75


 2531 001a 3E       		.uleb128 0x3e
 2532 001b 0B       		.uleb128 0xb
 2533 001c 03       		.uleb128 0x3
 2534 001d 0E       		.uleb128 0xe
 2535 001e 00       		.byte	0
 2536 001f 00       		.byte	0
 2537 0020 03       		.uleb128 0x3
 2538 0021 24       		.uleb128 0x24
 2539 0022 00       		.byte	0
 2540 0023 0B       		.uleb128 0xb
 2541 0024 0B       		.uleb128 0xb
 2542 0025 3E       		.uleb128 0x3e
 2543 0026 0B       		.uleb128 0xb
 2544 0027 03       		.uleb128 0x3
 2545 0028 08       		.uleb128 0x8
 2546 0029 00       		.byte	0
 2547 002a 00       		.byte	0
 2548 002b 04       		.uleb128 0x4
 2549 002c 16       		.uleb128 0x16
 2550 002d 00       		.byte	0
 2551 002e 03       		.uleb128 0x3
 2552 002f 0E       		.uleb128 0xe
 2553 0030 3A       		.uleb128 0x3a
 2554 0031 0B       		.uleb128 0xb
 2555 0032 3B       		.uleb128 0x3b
 2556 0033 0B       		.uleb128 0xb
 2557 0034 49       		.uleb128 0x49
 2558 0035 13       		.uleb128 0x13
 2559 0036 00       		.byte	0
 2560 0037 00       		.byte	0
 2561 0038 05       		.uleb128 0x5
 2562 0039 35       		.uleb128 0x35
 2563 003a 00       		.byte	0
 2564 003b 49       		.uleb128 0x49
 2565 003c 13       		.uleb128 0x13
 2566 003d 00       		.byte	0
 2567 003e 00       		.byte	0
 2568 003f 06       		.uleb128 0x6
 2569 0040 13       		.uleb128 0x13
 2570 0041 01       		.byte	0x1
 2571 0042 0B       		.uleb128 0xb
 2572 0043 0B       		.uleb128 0xb
 2573 0044 3A       		.uleb128 0x3a
 2574 0045 0B       		.uleb128 0xb
 2575 0046 3B       		.uleb128 0x3b
 2576 0047 0B       		.uleb128 0xb
 2577 0048 01       		.uleb128 0x1
 2578 0049 13       		.uleb128 0x13
 2579 004a 00       		.byte	0
 2580 004b 00       		.byte	0
 2581 004c 07       		.uleb128 0x7
 2582 004d 0D       		.uleb128 0xd
 2583 004e 00       		.byte	0
 2584 004f 03       		.uleb128 0x3
 2585 0050 0E       		.uleb128 0xe
 2586 0051 3A       		.uleb128 0x3a
 2587 0052 0B       		.uleb128 0xb
ARM GAS  C:\Users\vrnk\AppData\Local\Temp\ccnz7Ubz.s 			page 76


 2588 0053 3B       		.uleb128 0x3b
 2589 0054 0B       		.uleb128 0xb
 2590 0055 49       		.uleb128 0x49
 2591 0056 13       		.uleb128 0x13
 2592 0057 38       		.uleb128 0x38
 2593 0058 0A       		.uleb128 0xa
 2594 0059 00       		.byte	0
 2595 005a 00       		.byte	0
 2596 005b 08       		.uleb128 0x8
 2597 005c 01       		.uleb128 0x1
 2598 005d 01       		.byte	0x1
 2599 005e 49       		.uleb128 0x49
 2600 005f 13       		.uleb128 0x13
 2601 0060 01       		.uleb128 0x1
 2602 0061 13       		.uleb128 0x13
 2603 0062 00       		.byte	0
 2604 0063 00       		.byte	0
 2605 0064 09       		.uleb128 0x9
 2606 0065 21       		.uleb128 0x21
 2607 0066 00       		.byte	0
 2608 0067 49       		.uleb128 0x49
 2609 0068 13       		.uleb128 0x13
 2610 0069 2F       		.uleb128 0x2f
 2611 006a 0B       		.uleb128 0xb
 2612 006b 00       		.byte	0
 2613 006c 00       		.byte	0
 2614 006d 0A       		.uleb128 0xa
 2615 006e 0F       		.uleb128 0xf
 2616 006f 00       		.byte	0
 2617 0070 0B       		.uleb128 0xb
 2618 0071 0B       		.uleb128 0xb
 2619 0072 00       		.byte	0
 2620 0073 00       		.byte	0
 2621 0074 0B       		.uleb128 0xb
 2622 0075 0F       		.uleb128 0xf
 2623 0076 00       		.byte	0
 2624 0077 0B       		.uleb128 0xb
 2625 0078 0B       		.uleb128 0xb
 2626 0079 49       		.uleb128 0x49
 2627 007a 13       		.uleb128 0x13
 2628 007b 00       		.byte	0
 2629 007c 00       		.byte	0
 2630 007d 0C       		.uleb128 0xc
 2631 007e 2E       		.uleb128 0x2e
 2632 007f 01       		.byte	0x1
 2633 0080 03       		.uleb128 0x3
 2634 0081 0E       		.uleb128 0xe
 2635 0082 3A       		.uleb128 0x3a
 2636 0083 0B       		.uleb128 0xb
 2637 0084 3B       		.uleb128 0x3b
 2638 0085 05       		.uleb128 0x5
 2639 0086 27       		.uleb128 0x27
 2640 0087 0C       		.uleb128 0xc
 2641 0088 49       		.uleb128 0x49
 2642 0089 13       		.uleb128 0x13
 2643 008a 20       		.uleb128 0x20
 2644 008b 0B       		.uleb128 0xb
ARM GAS  C:\Users\vrnk\AppData\Local\Temp\ccnz7Ubz.s 			page 77


 2645 008c 01       		.uleb128 0x1
 2646 008d 13       		.uleb128 0x13
 2647 008e 00       		.byte	0
 2648 008f 00       		.byte	0
 2649 0090 0D       		.uleb128 0xd
 2650 0091 05       		.uleb128 0x5
 2651 0092 00       		.byte	0
 2652 0093 03       		.uleb128 0x3
 2653 0094 0E       		.uleb128 0xe
 2654 0095 3A       		.uleb128 0x3a
 2655 0096 0B       		.uleb128 0xb
 2656 0097 3B       		.uleb128 0x3b
 2657 0098 05       		.uleb128 0x5
 2658 0099 49       		.uleb128 0x49
 2659 009a 13       		.uleb128 0x13
 2660 009b 00       		.byte	0
 2661 009c 00       		.byte	0
 2662 009d 0E       		.uleb128 0xe
 2663 009e 34       		.uleb128 0x34
 2664 009f 00       		.byte	0
 2665 00a0 03       		.uleb128 0x3
 2666 00a1 0E       		.uleb128 0xe
 2667 00a2 3A       		.uleb128 0x3a
 2668 00a3 0B       		.uleb128 0xb
 2669 00a4 3B       		.uleb128 0x3b
 2670 00a5 05       		.uleb128 0x5
 2671 00a6 49       		.uleb128 0x49
 2672 00a7 13       		.uleb128 0x13
 2673 00a8 00       		.byte	0
 2674 00a9 00       		.byte	0
 2675 00aa 0F       		.uleb128 0xf
 2676 00ab 34       		.uleb128 0x34
 2677 00ac 00       		.byte	0
 2678 00ad 03       		.uleb128 0x3
 2679 00ae 08       		.uleb128 0x8
 2680 00af 3A       		.uleb128 0x3a
 2681 00b0 0B       		.uleb128 0xb
 2682 00b1 3B       		.uleb128 0x3b
 2683 00b2 05       		.uleb128 0x5
 2684 00b3 49       		.uleb128 0x49
 2685 00b4 13       		.uleb128 0x13
 2686 00b5 00       		.byte	0
 2687 00b6 00       		.byte	0
 2688 00b7 10       		.uleb128 0x10
 2689 00b8 0B       		.uleb128 0xb
 2690 00b9 01       		.byte	0x1
 2691 00ba 00       		.byte	0
 2692 00bb 00       		.byte	0
 2693 00bc 11       		.uleb128 0x11
 2694 00bd 2E       		.uleb128 0x2e
 2695 00be 01       		.byte	0x1
 2696 00bf 03       		.uleb128 0x3
 2697 00c0 0E       		.uleb128 0xe
 2698 00c1 3A       		.uleb128 0x3a
 2699 00c2 0B       		.uleb128 0xb
 2700 00c3 3B       		.uleb128 0x3b
 2701 00c4 05       		.uleb128 0x5
ARM GAS  C:\Users\vrnk\AppData\Local\Temp\ccnz7Ubz.s 			page 78


 2702 00c5 27       		.uleb128 0x27
 2703 00c6 0C       		.uleb128 0xc
 2704 00c7 20       		.uleb128 0x20
 2705 00c8 0B       		.uleb128 0xb
 2706 00c9 01       		.uleb128 0x1
 2707 00ca 13       		.uleb128 0x13
 2708 00cb 00       		.byte	0
 2709 00cc 00       		.byte	0
 2710 00cd 12       		.uleb128 0x12
 2711 00ce 0B       		.uleb128 0xb
 2712 00cf 01       		.byte	0x1
 2713 00d0 01       		.uleb128 0x1
 2714 00d1 13       		.uleb128 0x13
 2715 00d2 00       		.byte	0
 2716 00d3 00       		.byte	0
 2717 00d4 13       		.uleb128 0x13
 2718 00d5 21       		.uleb128 0x21
 2719 00d6 00       		.byte	0
 2720 00d7 49       		.uleb128 0x49
 2721 00d8 13       		.uleb128 0x13
 2722 00d9 2F       		.uleb128 0x2f
 2723 00da 05       		.uleb128 0x5
 2724 00db 00       		.byte	0
 2725 00dc 00       		.byte	0
 2726 00dd 14       		.uleb128 0x14
 2727 00de 2E       		.uleb128 0x2e
 2728 00df 01       		.byte	0x1
 2729 00e0 03       		.uleb128 0x3
 2730 00e1 0E       		.uleb128 0xe
 2731 00e2 3A       		.uleb128 0x3a
 2732 00e3 0B       		.uleb128 0xb
 2733 00e4 3B       		.uleb128 0x3b
 2734 00e5 05       		.uleb128 0x5
 2735 00e6 27       		.uleb128 0x27
 2736 00e7 0C       		.uleb128 0xc
 2737 00e8 11       		.uleb128 0x11
 2738 00e9 01       		.uleb128 0x1
 2739 00ea 12       		.uleb128 0x12
 2740 00eb 01       		.uleb128 0x1
 2741 00ec 40       		.uleb128 0x40
 2742 00ed 0A       		.uleb128 0xa
 2743 00ee 9742     		.uleb128 0x2117
 2744 00f0 0C       		.uleb128 0xc
 2745 00f1 01       		.uleb128 0x1
 2746 00f2 13       		.uleb128 0x13
 2747 00f3 00       		.byte	0
 2748 00f4 00       		.byte	0
 2749 00f5 15       		.uleb128 0x15
 2750 00f6 05       		.uleb128 0x5
 2751 00f7 00       		.byte	0
 2752 00f8 03       		.uleb128 0x3
 2753 00f9 0E       		.uleb128 0xe
 2754 00fa 3A       		.uleb128 0x3a
 2755 00fb 0B       		.uleb128 0xb
 2756 00fc 3B       		.uleb128 0x3b
 2757 00fd 05       		.uleb128 0x5
 2758 00fe 49       		.uleb128 0x49
ARM GAS  C:\Users\vrnk\AppData\Local\Temp\ccnz7Ubz.s 			page 79


 2759 00ff 13       		.uleb128 0x13
 2760 0100 02       		.uleb128 0x2
 2761 0101 0A       		.uleb128 0xa
 2762 0102 00       		.byte	0
 2763 0103 00       		.byte	0
 2764 0104 16       		.uleb128 0x16
 2765 0105 2E       		.uleb128 0x2e
 2766 0106 01       		.byte	0x1
 2767 0107 31       		.uleb128 0x31
 2768 0108 13       		.uleb128 0x13
 2769 0109 11       		.uleb128 0x11
 2770 010a 01       		.uleb128 0x1
 2771 010b 12       		.uleb128 0x12
 2772 010c 01       		.uleb128 0x1
 2773 010d 40       		.uleb128 0x40
 2774 010e 06       		.uleb128 0x6
 2775 010f 9742     		.uleb128 0x2117
 2776 0111 0C       		.uleb128 0xc
 2777 0112 01       		.uleb128 0x1
 2778 0113 13       		.uleb128 0x13
 2779 0114 00       		.byte	0
 2780 0115 00       		.byte	0
 2781 0116 17       		.uleb128 0x17
 2782 0117 05       		.uleb128 0x5
 2783 0118 00       		.byte	0
 2784 0119 31       		.uleb128 0x31
 2785 011a 13       		.uleb128 0x13
 2786 011b 02       		.uleb128 0x2
 2787 011c 06       		.uleb128 0x6
 2788 011d 00       		.byte	0
 2789 011e 00       		.byte	0
 2790 011f 18       		.uleb128 0x18
 2791 0120 34       		.uleb128 0x34
 2792 0121 00       		.byte	0
 2793 0122 31       		.uleb128 0x31
 2794 0123 13       		.uleb128 0x13
 2795 0124 02       		.uleb128 0x2
 2796 0125 06       		.uleb128 0x6
 2797 0126 00       		.byte	0
 2798 0127 00       		.byte	0
 2799 0128 19       		.uleb128 0x19
 2800 0129 05       		.uleb128 0x5
 2801 012a 00       		.byte	0
 2802 012b 31       		.uleb128 0x31
 2803 012c 13       		.uleb128 0x13
 2804 012d 1C       		.uleb128 0x1c
 2805 012e 0B       		.uleb128 0xb
 2806 012f 00       		.byte	0
 2807 0130 00       		.byte	0
 2808 0131 1A       		.uleb128 0x1a
 2809 0132 898201   		.uleb128 0x4109
 2810 0135 01       		.byte	0x1
 2811 0136 11       		.uleb128 0x11
 2812 0137 01       		.uleb128 0x1
 2813 0138 31       		.uleb128 0x31
 2814 0139 13       		.uleb128 0x13
 2815 013a 00       		.byte	0
ARM GAS  C:\Users\vrnk\AppData\Local\Temp\ccnz7Ubz.s 			page 80


 2816 013b 00       		.byte	0
 2817 013c 1B       		.uleb128 0x1b
 2818 013d 8A8201   		.uleb128 0x410a
 2819 0140 00       		.byte	0
 2820 0141 02       		.uleb128 0x2
 2821 0142 0A       		.uleb128 0xa
 2822 0143 9142     		.uleb128 0x2111
 2823 0145 0A       		.uleb128 0xa
 2824 0146 00       		.byte	0
 2825 0147 00       		.byte	0
 2826 0148 1C       		.uleb128 0x1c
 2827 0149 34       		.uleb128 0x34
 2828 014a 00       		.byte	0
 2829 014b 31       		.uleb128 0x31
 2830 014c 13       		.uleb128 0x13
 2831 014d 02       		.uleb128 0x2
 2832 014e 0A       		.uleb128 0xa
 2833 014f 00       		.byte	0
 2834 0150 00       		.byte	0
 2835 0151 1D       		.uleb128 0x1d
 2836 0152 0B       		.uleb128 0xb
 2837 0153 01       		.byte	0x1
 2838 0154 11       		.uleb128 0x11
 2839 0155 01       		.uleb128 0x1
 2840 0156 12       		.uleb128 0x12
 2841 0157 01       		.uleb128 0x1
 2842 0158 01       		.uleb128 0x1
 2843 0159 13       		.uleb128 0x13
 2844 015a 00       		.byte	0
 2845 015b 00       		.byte	0
 2846 015c 1E       		.uleb128 0x1e
 2847 015d 898201   		.uleb128 0x4109
 2848 0160 01       		.byte	0x1
 2849 0161 11       		.uleb128 0x11
 2850 0162 01       		.uleb128 0x1
 2851 0163 31       		.uleb128 0x31
 2852 0164 13       		.uleb128 0x13
 2853 0165 01       		.uleb128 0x1
 2854 0166 13       		.uleb128 0x13
 2855 0167 00       		.byte	0
 2856 0168 00       		.byte	0
 2857 0169 1F       		.uleb128 0x1f
 2858 016a 2E       		.uleb128 0x2e
 2859 016b 01       		.byte	0x1
 2860 016c 03       		.uleb128 0x3
 2861 016d 0E       		.uleb128 0xe
 2862 016e 3A       		.uleb128 0x3a
 2863 016f 0B       		.uleb128 0xb
 2864 0170 3B       		.uleb128 0x3b
 2865 0171 0B       		.uleb128 0xb
 2866 0172 27       		.uleb128 0x27
 2867 0173 0C       		.uleb128 0xc
 2868 0174 49       		.uleb128 0x49
 2869 0175 13       		.uleb128 0x13
 2870 0176 20       		.uleb128 0x20
 2871 0177 0B       		.uleb128 0xb
 2872 0178 01       		.uleb128 0x1
ARM GAS  C:\Users\vrnk\AppData\Local\Temp\ccnz7Ubz.s 			page 81


 2873 0179 13       		.uleb128 0x13
 2874 017a 00       		.byte	0
 2875 017b 00       		.byte	0
 2876 017c 20       		.uleb128 0x20
 2877 017d 05       		.uleb128 0x5
 2878 017e 00       		.byte	0
 2879 017f 03       		.uleb128 0x3
 2880 0180 0E       		.uleb128 0xe
 2881 0181 3A       		.uleb128 0x3a
 2882 0182 0B       		.uleb128 0xb
 2883 0183 3B       		.uleb128 0x3b
 2884 0184 0B       		.uleb128 0xb
 2885 0185 49       		.uleb128 0x49
 2886 0186 13       		.uleb128 0x13
 2887 0187 00       		.byte	0
 2888 0188 00       		.byte	0
 2889 0189 21       		.uleb128 0x21
 2890 018a 34       		.uleb128 0x34
 2891 018b 00       		.byte	0
 2892 018c 03       		.uleb128 0x3
 2893 018d 08       		.uleb128 0x8
 2894 018e 3A       		.uleb128 0x3a
 2895 018f 0B       		.uleb128 0xb
 2896 0190 3B       		.uleb128 0x3b
 2897 0191 0B       		.uleb128 0xb
 2898 0192 49       		.uleb128 0x49
 2899 0193 13       		.uleb128 0x13
 2900 0194 00       		.byte	0
 2901 0195 00       		.byte	0
 2902 0196 22       		.uleb128 0x22
 2903 0197 26       		.uleb128 0x26
 2904 0198 00       		.byte	0
 2905 0199 49       		.uleb128 0x49
 2906 019a 13       		.uleb128 0x13
 2907 019b 00       		.byte	0
 2908 019c 00       		.byte	0
 2909 019d 23       		.uleb128 0x23
 2910 019e 34       		.uleb128 0x34
 2911 019f 00       		.byte	0
 2912 01a0 31       		.uleb128 0x31
 2913 01a1 13       		.uleb128 0x13
 2914 01a2 1C       		.uleb128 0x1c
 2915 01a3 0B       		.uleb128 0xb
 2916 01a4 00       		.byte	0
 2917 01a5 00       		.byte	0
 2918 01a6 24       		.uleb128 0x24
 2919 01a7 0B       		.uleb128 0xb
 2920 01a8 01       		.byte	0x1
 2921 01a9 55       		.uleb128 0x55
 2922 01aa 06       		.uleb128 0x6
 2923 01ab 01       		.uleb128 0x1
 2924 01ac 13       		.uleb128 0x13
 2925 01ad 00       		.byte	0
 2926 01ae 00       		.byte	0
 2927 01af 25       		.uleb128 0x25
 2928 01b0 1D       		.uleb128 0x1d
 2929 01b1 01       		.byte	0x1
ARM GAS  C:\Users\vrnk\AppData\Local\Temp\ccnz7Ubz.s 			page 82


 2930 01b2 31       		.uleb128 0x31
 2931 01b3 13       		.uleb128 0x13
 2932 01b4 11       		.uleb128 0x11
 2933 01b5 01       		.uleb128 0x1
 2934 01b6 12       		.uleb128 0x12
 2935 01b7 01       		.uleb128 0x1
 2936 01b8 58       		.uleb128 0x58
 2937 01b9 0B       		.uleb128 0xb
 2938 01ba 59       		.uleb128 0x59
 2939 01bb 05       		.uleb128 0x5
 2940 01bc 00       		.byte	0
 2941 01bd 00       		.byte	0
 2942 01be 26       		.uleb128 0x26
 2943 01bf 0B       		.uleb128 0xb
 2944 01c0 01       		.byte	0x1
 2945 01c1 11       		.uleb128 0x11
 2946 01c2 01       		.uleb128 0x1
 2947 01c3 12       		.uleb128 0x12
 2948 01c4 01       		.uleb128 0x1
 2949 01c5 00       		.byte	0
 2950 01c6 00       		.byte	0
 2951 01c7 27       		.uleb128 0x27
 2952 01c8 898201   		.uleb128 0x4109
 2953 01cb 00       		.byte	0
 2954 01cc 11       		.uleb128 0x11
 2955 01cd 01       		.uleb128 0x1
 2956 01ce 31       		.uleb128 0x31
 2957 01cf 13       		.uleb128 0x13
 2958 01d0 00       		.byte	0
 2959 01d1 00       		.byte	0
 2960 01d2 28       		.uleb128 0x28
 2961 01d3 1D       		.uleb128 0x1d
 2962 01d4 01       		.byte	0x1
 2963 01d5 31       		.uleb128 0x31
 2964 01d6 13       		.uleb128 0x13
 2965 01d7 52       		.uleb128 0x52
 2966 01d8 01       		.uleb128 0x1
 2967 01d9 55       		.uleb128 0x55
 2968 01da 06       		.uleb128 0x6
 2969 01db 58       		.uleb128 0x58
 2970 01dc 0B       		.uleb128 0xb
 2971 01dd 59       		.uleb128 0x59
 2972 01de 05       		.uleb128 0x5
 2973 01df 01       		.uleb128 0x1
 2974 01e0 13       		.uleb128 0x13
 2975 01e1 00       		.byte	0
 2976 01e2 00       		.byte	0
 2977 01e3 29       		.uleb128 0x29
 2978 01e4 05       		.uleb128 0x5
 2979 01e5 00       		.byte	0
 2980 01e6 31       		.uleb128 0x31
 2981 01e7 13       		.uleb128 0x13
 2982 01e8 00       		.byte	0
 2983 01e9 00       		.byte	0
 2984 01ea 2A       		.uleb128 0x2a
 2985 01eb 0B       		.uleb128 0xb
 2986 01ec 01       		.byte	0x1
ARM GAS  C:\Users\vrnk\AppData\Local\Temp\ccnz7Ubz.s 			page 83


 2987 01ed 55       		.uleb128 0x55
 2988 01ee 06       		.uleb128 0x6
 2989 01ef 00       		.byte	0
 2990 01f0 00       		.byte	0
 2991 01f1 2B       		.uleb128 0x2b
 2992 01f2 1D       		.uleb128 0x1d
 2993 01f3 01       		.byte	0x1
 2994 01f4 31       		.uleb128 0x31
 2995 01f5 13       		.uleb128 0x13
 2996 01f6 11       		.uleb128 0x11
 2997 01f7 01       		.uleb128 0x1
 2998 01f8 12       		.uleb128 0x12
 2999 01f9 01       		.uleb128 0x1
 3000 01fa 58       		.uleb128 0x58
 3001 01fb 0B       		.uleb128 0xb
 3002 01fc 59       		.uleb128 0x59
 3003 01fd 05       		.uleb128 0x5
 3004 01fe 01       		.uleb128 0x1
 3005 01ff 13       		.uleb128 0x13
 3006 0200 00       		.byte	0
 3007 0201 00       		.byte	0
 3008 0202 2C       		.uleb128 0x2c
 3009 0203 05       		.uleb128 0x5
 3010 0204 00       		.byte	0
 3011 0205 31       		.uleb128 0x31
 3012 0206 13       		.uleb128 0x13
 3013 0207 02       		.uleb128 0x2
 3014 0208 0A       		.uleb128 0xa
 3015 0209 00       		.byte	0
 3016 020a 00       		.byte	0
 3017 020b 2D       		.uleb128 0x2d
 3018 020c 2E       		.uleb128 0x2e
 3019 020d 00       		.byte	0
 3020 020e 03       		.uleb128 0x3
 3021 020f 0E       		.uleb128 0xe
 3022 0210 3A       		.uleb128 0x3a
 3023 0211 0B       		.uleb128 0xb
 3024 0212 3B       		.uleb128 0x3b
 3025 0213 05       		.uleb128 0x5
 3026 0214 27       		.uleb128 0x27
 3027 0215 0C       		.uleb128 0xc
 3028 0216 20       		.uleb128 0x20
 3029 0217 0B       		.uleb128 0xb
 3030 0218 00       		.byte	0
 3031 0219 00       		.byte	0
 3032 021a 2E       		.uleb128 0x2e
 3033 021b 2E       		.uleb128 0x2e
 3034 021c 01       		.byte	0x1
 3035 021d 3F       		.uleb128 0x3f
 3036 021e 0C       		.uleb128 0xc
 3037 021f 03       		.uleb128 0x3
 3038 0220 0E       		.uleb128 0xe
 3039 0221 3A       		.uleb128 0x3a
 3040 0222 0B       		.uleb128 0xb
 3041 0223 3B       		.uleb128 0x3b
 3042 0224 05       		.uleb128 0x5
 3043 0225 27       		.uleb128 0x27
ARM GAS  C:\Users\vrnk\AppData\Local\Temp\ccnz7Ubz.s 			page 84


 3044 0226 0C       		.uleb128 0xc
 3045 0227 11       		.uleb128 0x11
 3046 0228 01       		.uleb128 0x1
 3047 0229 12       		.uleb128 0x12
 3048 022a 01       		.uleb128 0x1
 3049 022b 40       		.uleb128 0x40
 3050 022c 06       		.uleb128 0x6
 3051 022d 9742     		.uleb128 0x2117
 3052 022f 0C       		.uleb128 0xc
 3053 0230 01       		.uleb128 0x1
 3054 0231 13       		.uleb128 0x13
 3055 0232 00       		.byte	0
 3056 0233 00       		.byte	0
 3057 0234 2F       		.uleb128 0x2f
 3058 0235 34       		.uleb128 0x34
 3059 0236 00       		.byte	0
 3060 0237 03       		.uleb128 0x3
 3061 0238 0E       		.uleb128 0xe
 3062 0239 3A       		.uleb128 0x3a
 3063 023a 0B       		.uleb128 0xb
 3064 023b 3B       		.uleb128 0x3b
 3065 023c 05       		.uleb128 0x5
 3066 023d 49       		.uleb128 0x49
 3067 023e 13       		.uleb128 0x13
 3068 023f 02       		.uleb128 0x2
 3069 0240 06       		.uleb128 0x6
 3070 0241 00       		.byte	0
 3071 0242 00       		.byte	0
 3072 0243 30       		.uleb128 0x30
 3073 0244 05       		.uleb128 0x5
 3074 0245 00       		.byte	0
 3075 0246 03       		.uleb128 0x3
 3076 0247 0E       		.uleb128 0xe
 3077 0248 3A       		.uleb128 0x3a
 3078 0249 0B       		.uleb128 0xb
 3079 024a 3B       		.uleb128 0x3b
 3080 024b 05       		.uleb128 0x5
 3081 024c 49       		.uleb128 0x49
 3082 024d 13       		.uleb128 0x13
 3083 024e 02       		.uleb128 0x2
 3084 024f 06       		.uleb128 0x6
 3085 0250 00       		.byte	0
 3086 0251 00       		.byte	0
 3087 0252 31       		.uleb128 0x31
 3088 0253 34       		.uleb128 0x34
 3089 0254 00       		.byte	0
 3090 0255 03       		.uleb128 0x3
 3091 0256 0E       		.uleb128 0xe
 3092 0257 3A       		.uleb128 0x3a
 3093 0258 0B       		.uleb128 0xb
 3094 0259 3B       		.uleb128 0x3b
 3095 025a 05       		.uleb128 0x5
 3096 025b 49       		.uleb128 0x49
 3097 025c 13       		.uleb128 0x13
 3098 025d 02       		.uleb128 0x2
 3099 025e 0A       		.uleb128 0xa
 3100 025f 00       		.byte	0
ARM GAS  C:\Users\vrnk\AppData\Local\Temp\ccnz7Ubz.s 			page 85


 3101 0260 00       		.byte	0
 3102 0261 32       		.uleb128 0x32
 3103 0262 34       		.uleb128 0x34
 3104 0263 00       		.byte	0
 3105 0264 03       		.uleb128 0x3
 3106 0265 08       		.uleb128 0x8
 3107 0266 3A       		.uleb128 0x3a
 3108 0267 0B       		.uleb128 0xb
 3109 0268 3B       		.uleb128 0x3b
 3110 0269 05       		.uleb128 0x5
 3111 026a 49       		.uleb128 0x49
 3112 026b 13       		.uleb128 0x13
 3113 026c 02       		.uleb128 0x2
 3114 026d 06       		.uleb128 0x6
 3115 026e 00       		.byte	0
 3116 026f 00       		.byte	0
 3117 0270 33       		.uleb128 0x33
 3118 0271 34       		.uleb128 0x34
 3119 0272 00       		.byte	0
 3120 0273 03       		.uleb128 0x3
 3121 0274 0E       		.uleb128 0xe
 3122 0275 3A       		.uleb128 0x3a
 3123 0276 0B       		.uleb128 0xb
 3124 0277 3B       		.uleb128 0x3b
 3125 0278 0B       		.uleb128 0xb
 3126 0279 49       		.uleb128 0x49
 3127 027a 13       		.uleb128 0x13
 3128 027b 3F       		.uleb128 0x3f
 3129 027c 0C       		.uleb128 0xc
 3130 027d 02       		.uleb128 0x2
 3131 027e 0A       		.uleb128 0xa
 3132 027f 00       		.byte	0
 3133 0280 00       		.byte	0
 3134 0281 34       		.uleb128 0x34
 3135 0282 34       		.uleb128 0x34
 3136 0283 00       		.byte	0
 3137 0284 03       		.uleb128 0x3
 3138 0285 0E       		.uleb128 0xe
 3139 0286 3A       		.uleb128 0x3a
 3140 0287 0B       		.uleb128 0xb
 3141 0288 3B       		.uleb128 0x3b
 3142 0289 0B       		.uleb128 0xb
 3143 028a 49       		.uleb128 0x49
 3144 028b 13       		.uleb128 0x13
 3145 028c 3F       		.uleb128 0x3f
 3146 028d 0C       		.uleb128 0xc
 3147 028e 3C       		.uleb128 0x3c
 3148 028f 0C       		.uleb128 0xc
 3149 0290 00       		.byte	0
 3150 0291 00       		.byte	0
 3151 0292 35       		.uleb128 0x35
 3152 0293 2E       		.uleb128 0x2e
 3153 0294 01       		.byte	0x1
 3154 0295 3F       		.uleb128 0x3f
 3155 0296 0C       		.uleb128 0xc
 3156 0297 03       		.uleb128 0x3
 3157 0298 0E       		.uleb128 0xe
ARM GAS  C:\Users\vrnk\AppData\Local\Temp\ccnz7Ubz.s 			page 86


 3158 0299 3A       		.uleb128 0x3a
 3159 029a 0B       		.uleb128 0xb
 3160 029b 3B       		.uleb128 0x3b
 3161 029c 0B       		.uleb128 0xb
 3162 029d 27       		.uleb128 0x27
 3163 029e 0C       		.uleb128 0xc
 3164 029f 3C       		.uleb128 0x3c
 3165 02a0 0C       		.uleb128 0xc
 3166 02a1 01       		.uleb128 0x1
 3167 02a2 13       		.uleb128 0x13
 3168 02a3 00       		.byte	0
 3169 02a4 00       		.byte	0
 3170 02a5 36       		.uleb128 0x36
 3171 02a6 05       		.uleb128 0x5
 3172 02a7 00       		.byte	0
 3173 02a8 49       		.uleb128 0x49
 3174 02a9 13       		.uleb128 0x13
 3175 02aa 00       		.byte	0
 3176 02ab 00       		.byte	0
 3177 02ac 37       		.uleb128 0x37
 3178 02ad 2E       		.uleb128 0x2e
 3179 02ae 01       		.byte	0x1
 3180 02af 3F       		.uleb128 0x3f
 3181 02b0 0C       		.uleb128 0xc
 3182 02b1 03       		.uleb128 0x3
 3183 02b2 0E       		.uleb128 0xe
 3184 02b3 27       		.uleb128 0x27
 3185 02b4 0C       		.uleb128 0xc
 3186 02b5 49       		.uleb128 0x49
 3187 02b6 13       		.uleb128 0x13
 3188 02b7 34       		.uleb128 0x34
 3189 02b8 0C       		.uleb128 0xc
 3190 02b9 3C       		.uleb128 0x3c
 3191 02ba 0C       		.uleb128 0xc
 3192 02bb 01       		.uleb128 0x1
 3193 02bc 13       		.uleb128 0x13
 3194 02bd 00       		.byte	0
 3195 02be 00       		.byte	0
 3196 02bf 38       		.uleb128 0x38
 3197 02c0 2E       		.uleb128 0x2e
 3198 02c1 01       		.byte	0x1
 3199 02c2 3F       		.uleb128 0x3f
 3200 02c3 0C       		.uleb128 0xc
 3201 02c4 03       		.uleb128 0x3
 3202 02c5 0E       		.uleb128 0xe
 3203 02c6 3A       		.uleb128 0x3a
 3204 02c7 0B       		.uleb128 0xb
 3205 02c8 3B       		.uleb128 0x3b
 3206 02c9 0B       		.uleb128 0xb
 3207 02ca 27       		.uleb128 0x27
 3208 02cb 0C       		.uleb128 0xc
 3209 02cc 49       		.uleb128 0x49
 3210 02cd 13       		.uleb128 0x13
 3211 02ce 3C       		.uleb128 0x3c
 3212 02cf 0C       		.uleb128 0xc
 3213 02d0 01       		.uleb128 0x1
 3214 02d1 13       		.uleb128 0x13
ARM GAS  C:\Users\vrnk\AppData\Local\Temp\ccnz7Ubz.s 			page 87


 3215 02d2 00       		.byte	0
 3216 02d3 00       		.byte	0
 3217 02d4 39       		.uleb128 0x39
 3218 02d5 26       		.uleb128 0x26
 3219 02d6 00       		.byte	0
 3220 02d7 00       		.byte	0
 3221 02d8 00       		.byte	0
 3222 02d9 3A       		.uleb128 0x3a
 3223 02da 2E       		.uleb128 0x2e
 3224 02db 00       		.byte	0
 3225 02dc 3F       		.uleb128 0x3f
 3226 02dd 0C       		.uleb128 0xc
 3227 02de 03       		.uleb128 0x3
 3228 02df 0E       		.uleb128 0xe
 3229 02e0 3A       		.uleb128 0x3a
 3230 02e1 0B       		.uleb128 0xb
 3231 02e2 3B       		.uleb128 0x3b
 3232 02e3 0B       		.uleb128 0xb
 3233 02e4 27       		.uleb128 0x27
 3234 02e5 0C       		.uleb128 0xc
 3235 02e6 3C       		.uleb128 0x3c
 3236 02e7 0C       		.uleb128 0xc
 3237 02e8 00       		.byte	0
 3238 02e9 00       		.byte	0
 3239 02ea 3B       		.uleb128 0x3b
 3240 02eb 2E       		.uleb128 0x2e
 3241 02ec 01       		.byte	0x1
 3242 02ed 3F       		.uleb128 0x3f
 3243 02ee 0C       		.uleb128 0xc
 3244 02ef 03       		.uleb128 0x3
 3245 02f0 0E       		.uleb128 0xe
 3246 02f1 3A       		.uleb128 0x3a
 3247 02f2 0B       		.uleb128 0xb
 3248 02f3 3B       		.uleb128 0x3b
 3249 02f4 0B       		.uleb128 0xb
 3250 02f5 27       		.uleb128 0x27
 3251 02f6 0C       		.uleb128 0xc
 3252 02f7 49       		.uleb128 0x49
 3253 02f8 13       		.uleb128 0x13
 3254 02f9 3C       		.uleb128 0x3c
 3255 02fa 0C       		.uleb128 0xc
 3256 02fb 00       		.byte	0
 3257 02fc 00       		.byte	0
 3258 02fd 00       		.byte	0
 3259              		.section	.debug_loc,"",%progbits
 3260              	.Ldebug_loc0:
 3261              	.LLST0:
 3262 0000 00000000 		.4byte	.LFB44
 3263 0004 02000000 		.4byte	.LCFI0
 3264 0008 0200     		.2byte	0x2
 3265 000a 7D       		.byte	0x7d
 3266 000b 00       		.sleb128 0
 3267 000c 02000000 		.4byte	.LCFI0
 3268 0010 90000000 		.4byte	.LFE44
 3269 0014 0200     		.2byte	0x2
 3270 0016 7D       		.byte	0x7d
 3271 0017 10       		.sleb128 16
ARM GAS  C:\Users\vrnk\AppData\Local\Temp\ccnz7Ubz.s 			page 88


 3272 0018 00000000 		.4byte	0
 3273 001c 00000000 		.4byte	0
 3274              	.LLST1:
 3275 0020 00000000 		.4byte	.LVL1
 3276 0024 06000000 		.4byte	.LVL2
 3277 0028 0100     		.2byte	0x1
 3278 002a 50       		.byte	0x50
 3279 002b 06000000 		.4byte	.LVL2
 3280 002f 90000000 		.4byte	.LFE44
 3281 0033 0400     		.2byte	0x4
 3282 0035 F3       		.byte	0xf3
 3283 0036 01       		.uleb128 0x1
 3284 0037 50       		.byte	0x50
 3285 0038 9F       		.byte	0x9f
 3286 0039 00000000 		.4byte	0
 3287 003d 00000000 		.4byte	0
 3288              	.LLST2:
 3289 0041 1E000000 		.4byte	.LVL3
 3290 0045 22000000 		.4byte	.LVL4
 3291 0049 0400     		.2byte	0x4
 3292 004b 0A       		.byte	0xa
 3293 004c D47F     		.2byte	0x7fd4
 3294 004e 9F       		.byte	0x9f
 3295 004f 28000000 		.4byte	.LVL5
 3296 0053 2C000000 		.4byte	.LVL6
 3297 0057 0200     		.2byte	0x2
 3298 0059 30       		.byte	0x30
 3299 005a 9F       		.byte	0x9f
 3300 005b 32000000 		.4byte	.LVL7
 3301 005f 3A000000 		.4byte	.LVL9
 3302 0063 0100     		.2byte	0x1
 3303 0065 53       		.byte	0x53
 3304 0066 5C000000 		.4byte	.LVL13
 3305 006a 66000000 		.4byte	.LVL17
 3306 006e 0100     		.2byte	0x1
 3307 0070 50       		.byte	0x50
 3308 0071 00000000 		.4byte	0
 3309 0075 00000000 		.4byte	0
 3310              	.LLST3:
 3311 0079 00000000 		.4byte	.LVL1
 3312 007d 3A000000 		.4byte	.LVL9
 3313 0081 0200     		.2byte	0x2
 3314 0083 32       		.byte	0x32
 3315 0084 9F       		.byte	0x9f
 3316 0085 56000000 		.4byte	.LVL12
 3317 0089 5C000000 		.4byte	.LVL13
 3318 008d 0200     		.2byte	0x2
 3319 008f 32       		.byte	0x32
 3320 0090 9F       		.byte	0x9f
 3321 0091 5C000000 		.4byte	.LVL13
 3322 0095 72000000 		.4byte	.LVL20
 3323 0099 0200     		.2byte	0x2
 3324 009b 34       		.byte	0x34
 3325 009c 9F       		.byte	0x9f
 3326 009d 00000000 		.4byte	0
 3327 00a1 00000000 		.4byte	0
 3328              	.LLST4:
ARM GAS  C:\Users\vrnk\AppData\Local\Temp\ccnz7Ubz.s 			page 89


 3329 00a5 34000000 		.4byte	.LVL8
 3330 00a9 3A000000 		.4byte	.LVL9
 3331 00ad 0100     		.2byte	0x1
 3332 00af 52       		.byte	0x52
 3333 00b0 3A000000 		.4byte	.LVL9
 3334 00b4 56000000 		.4byte	.LVL12
 3335 00b8 0100     		.2byte	0x1
 3336 00ba 50       		.byte	0x50
 3337 00bb 5E000000 		.4byte	.LVL14
 3338 00bf 60000000 		.4byte	.LVL15
 3339 00c3 0100     		.2byte	0x1
 3340 00c5 55       		.byte	0x55
 3341 00c6 60000000 		.4byte	.LVL15
 3342 00ca 62000000 		.4byte	.LVL16
 3343 00ce 0B00     		.2byte	0xb
 3344 00d0 71       		.byte	0x71
 3345 00d1 00       		.sleb128 0
 3346 00d2 08       		.byte	0x8
 3347 00d3 FF       		.byte	0xff
 3348 00d4 1A       		.byte	0x1a
 3349 00d5 38       		.byte	0x38
 3350 00d6 24       		.byte	0x24
 3351 00d7 75       		.byte	0x75
 3352 00d8 00       		.sleb128 0
 3353 00d9 21       		.byte	0x21
 3354 00da 9F       		.byte	0x9f
 3355 00db 62000000 		.4byte	.LVL16
 3356 00df 6A000000 		.4byte	.LVL18
 3357 00e3 1300     		.2byte	0x13
 3358 00e5 71       		.byte	0x71
 3359 00e6 00       		.sleb128 0
 3360 00e7 08       		.byte	0x8
 3361 00e8 FF       		.byte	0xff
 3362 00e9 1A       		.byte	0x1a
 3363 00ea 38       		.byte	0x38
 3364 00eb 24       		.byte	0x24
 3365 00ec 72       		.byte	0x72
 3366 00ed 00       		.sleb128 0
 3367 00ee 08       		.byte	0x8
 3368 00ef FF       		.byte	0xff
 3369 00f0 1A       		.byte	0x1a
 3370 00f1 40       		.byte	0x40
 3371 00f2 24       		.byte	0x24
 3372 00f3 21       		.byte	0x21
 3373 00f4 75       		.byte	0x75
 3374 00f5 00       		.sleb128 0
 3375 00f6 21       		.byte	0x21
 3376 00f7 9F       		.byte	0x9f
 3377 00f8 70000000 		.4byte	.LVL19
 3378 00fc 90000000 		.4byte	.LFE44
 3379 0100 0100     		.2byte	0x1
 3380 0102 50       		.byte	0x50
 3381 0103 00000000 		.4byte	0
 3382 0107 00000000 		.4byte	0
 3383              	.LLST5:
 3384 010b 00000000 		.4byte	.LFB45
 3385 010f 02000000 		.4byte	.LCFI1
ARM GAS  C:\Users\vrnk\AppData\Local\Temp\ccnz7Ubz.s 			page 90


 3386 0113 0200     		.2byte	0x2
 3387 0115 7D       		.byte	0x7d
 3388 0116 00       		.sleb128 0
 3389 0117 02000000 		.4byte	.LCFI1
 3390 011b 58000000 		.4byte	.LFE45
 3391 011f 0200     		.2byte	0x2
 3392 0121 7D       		.byte	0x7d
 3393 0122 10       		.sleb128 16
 3394 0123 00000000 		.4byte	0
 3395 0127 00000000 		.4byte	0
 3396              	.LLST6:
 3397 012b 16000000 		.4byte	.LVL24
 3398 012f 44000000 		.4byte	.LVL34
 3399 0133 0100     		.2byte	0x1
 3400 0135 54       		.byte	0x54
 3401 0136 00000000 		.4byte	0
 3402 013a 00000000 		.4byte	0
 3403              	.LLST7:
 3404 013e 16000000 		.4byte	.LVL24
 3405 0142 24000000 		.4byte	.LVL27
 3406 0146 0200     		.2byte	0x2
 3407 0148 30       		.byte	0x30
 3408 0149 9F       		.byte	0x9f
 3409 014a 00000000 		.4byte	0
 3410 014e 00000000 		.4byte	0
 3411              	.LLST8:
 3412 0152 16000000 		.4byte	.LVL24
 3413 0156 24000000 		.4byte	.LVL27
 3414 015a 0200     		.2byte	0x2
 3415 015c 30       		.byte	0x30
 3416 015d 9F       		.byte	0x9f
 3417 015e 24000000 		.4byte	.LVL27
 3418 0162 36000000 		.4byte	.LVL29
 3419 0166 0100     		.2byte	0x1
 3420 0168 53       		.byte	0x53
 3421 0169 38000000 		.4byte	.LVL30
 3422 016d 3C000000 		.4byte	.LVL32
 3423 0171 0100     		.2byte	0x1
 3424 0173 53       		.byte	0x53
 3425 0174 3C000000 		.4byte	.LVL32
 3426 0178 40000000 		.4byte	.LVL33
 3427 017c 0400     		.2byte	0x4
 3428 017e 73       		.byte	0x73
 3429 017f 00       		.sleb128 0
 3430 0180 1F       		.byte	0x1f
 3431 0181 9F       		.byte	0x9f
 3432 0182 40000000 		.4byte	.LVL33
 3433 0186 58000000 		.4byte	.LFE45
 3434 018a 0500     		.2byte	0x5
 3435 018c 73       		.byte	0x73
 3436 018d 00       		.sleb128 0
 3437 018e 1F       		.byte	0x1f
 3438 018f 1F       		.byte	0x1f
 3439 0190 9F       		.byte	0x9f
 3440 0191 00000000 		.4byte	0
 3441 0195 00000000 		.4byte	0
 3442              	.LLST9:
ARM GAS  C:\Users\vrnk\AppData\Local\Temp\ccnz7Ubz.s 			page 91


 3443 0199 2A000000 		.4byte	.LVL28
 3444 019d 3A000000 		.4byte	.LVL31
 3445 01a1 0200     		.2byte	0x2
 3446 01a3 72       		.byte	0x72
 3447 01a4 00       		.sleb128 0
 3448 01a5 3A000000 		.4byte	.LVL31
 3449 01a9 3C000000 		.4byte	.LVL32
 3450 01ad 0200     		.2byte	0x2
 3451 01af 72       		.byte	0x72
 3452 01b0 7F       		.sleb128 -1
 3453 01b1 00000000 		.4byte	0
 3454 01b5 00000000 		.4byte	0
 3455              	.LLST10:
 3456 01b9 00000000 		.4byte	.LFB46
 3457 01bd 02000000 		.4byte	.LCFI2
 3458 01c1 0200     		.2byte	0x2
 3459 01c3 7D       		.byte	0x7d
 3460 01c4 00       		.sleb128 0
 3461 01c5 02000000 		.4byte	.LCFI2
 3462 01c9 06000000 		.4byte	.LCFI3
 3463 01cd 0200     		.2byte	0x2
 3464 01cf 7D       		.byte	0x7d
 3465 01d0 14       		.sleb128 20
 3466 01d1 06000000 		.4byte	.LCFI3
 3467 01d5 B8020000 		.4byte	.LFE46
 3468 01d9 0300     		.2byte	0x3
 3469 01db 7D       		.byte	0x7d
 3470 01dc 8006     		.sleb128 768
 3471 01de 00000000 		.4byte	0
 3472 01e2 00000000 		.4byte	0
 3473              	.LLST11:
 3474 01e6 90000000 		.4byte	.LVL50
 3475 01ea FE000000 		.4byte	.LVL61
 3476 01ee 0200     		.2byte	0x2
 3477 01f0 30       		.byte	0x30
 3478 01f1 9F       		.byte	0x9f
 3479 01f2 00010000 		.4byte	.LVL62
 3480 01f6 54010000 		.4byte	.LVL74
 3481 01fa 0100     		.2byte	0x1
 3482 01fc 51       		.byte	0x51
 3483 01fd 54010000 		.4byte	.LVL74
 3484 0201 58010000 		.4byte	.LVL75
 3485 0205 0300     		.2byte	0x3
 3486 0207 71       		.byte	0x71
 3487 0208 79       		.sleb128 -7
 3488 0209 9F       		.byte	0x9f
 3489 020a 62010000 		.4byte	.LVL78
 3490 020e 98010000 		.4byte	.LVL85
 3491 0212 0200     		.2byte	0x2
 3492 0214 30       		.byte	0x30
 3493 0215 9F       		.byte	0x9f
 3494 0216 98010000 		.4byte	.LVL85
 3495 021a 9A010000 		.4byte	.LVL86
 3496 021e 0200     		.2byte	0x2
 3497 0220 31       		.byte	0x31
 3498 0221 9F       		.byte	0x9f
 3499 0222 9A010000 		.4byte	.LVL86
ARM GAS  C:\Users\vrnk\AppData\Local\Temp\ccnz7Ubz.s 			page 92


 3500 0226 C8010000 		.4byte	.LVL91
 3501 022a 0200     		.2byte	0x2
 3502 022c 30       		.byte	0x30
 3503 022d 9F       		.byte	0x9f
 3504 022e C8010000 		.4byte	.LVL91
 3505 0232 CC010000 		.4byte	.LVL92
 3506 0236 0200     		.2byte	0x2
 3507 0238 34       		.byte	0x34
 3508 0239 9F       		.byte	0x9f
 3509 023a CC010000 		.4byte	.LVL92
 3510 023e 0A020000 		.4byte	.LVL99
 3511 0242 0200     		.2byte	0x2
 3512 0244 30       		.byte	0x30
 3513 0245 9F       		.byte	0x9f
 3514 0246 0A020000 		.4byte	.LVL99
 3515 024a 18020000 		.4byte	.LVL101
 3516 024e 0200     		.2byte	0x2
 3517 0250 38       		.byte	0x38
 3518 0251 9F       		.byte	0x9f
 3519 0252 18020000 		.4byte	.LVL101
 3520 0256 62020000 		.4byte	.LVL115
 3521 025a 0200     		.2byte	0x2
 3522 025c 30       		.byte	0x30
 3523 025d 9F       		.byte	0x9f
 3524 025e 62020000 		.4byte	.LVL115
 3525 0262 68020000 		.4byte	.LVL116
 3526 0266 0200     		.2byte	0x2
 3527 0268 31       		.byte	0x31
 3528 0269 9F       		.byte	0x9f
 3529 026a 68020000 		.4byte	.LVL116
 3530 026e B8020000 		.4byte	.LFE46
 3531 0272 0200     		.2byte	0x2
 3532 0274 30       		.byte	0x30
 3533 0275 9F       		.byte	0x9f
 3534 0276 00000000 		.4byte	0
 3535 027a 00000000 		.4byte	0
 3536              	.LLST12:
 3537 027e 90000000 		.4byte	.LVL50
 3538 0282 FE000000 		.4byte	.LVL61
 3539 0286 0200     		.2byte	0x2
 3540 0288 34       		.byte	0x34
 3541 0289 9F       		.byte	0x9f
 3542 028a 00010000 		.4byte	.LVL62
 3543 028e 0E010000 		.4byte	.LVL67
 3544 0292 0100     		.2byte	0x1
 3545 0294 53       		.byte	0x53
 3546 0295 62010000 		.4byte	.LVL78
 3547 0299 68010000 		.4byte	.LVL79
 3548 029d 0200     		.2byte	0x2
 3549 029f 30       		.byte	0x30
 3550 02a0 9F       		.byte	0x9f
 3551 02a1 68010000 		.4byte	.LVL79
 3552 02a5 98010000 		.4byte	.LVL85
 3553 02a9 0200     		.2byte	0x2
 3554 02ab 34       		.byte	0x34
 3555 02ac 9F       		.byte	0x9f
 3556 02ad 98010000 		.4byte	.LVL85
ARM GAS  C:\Users\vrnk\AppData\Local\Temp\ccnz7Ubz.s 			page 93


 3557 02b1 9A010000 		.4byte	.LVL86
 3558 02b5 0200     		.2byte	0x2
 3559 02b7 30       		.byte	0x30
 3560 02b8 9F       		.byte	0x9f
 3561 02b9 9A010000 		.4byte	.LVL86
 3562 02bd C8010000 		.4byte	.LVL91
 3563 02c1 0200     		.2byte	0x2
 3564 02c3 34       		.byte	0x34
 3565 02c4 9F       		.byte	0x9f
 3566 02c5 C8010000 		.4byte	.LVL91
 3567 02c9 CC010000 		.4byte	.LVL92
 3568 02cd 0200     		.2byte	0x2
 3569 02cf 30       		.byte	0x30
 3570 02d0 9F       		.byte	0x9f
 3571 02d1 CC010000 		.4byte	.LVL92
 3572 02d5 EA010000 		.4byte	.LVL95
 3573 02d9 0200     		.2byte	0x2
 3574 02db 34       		.byte	0x34
 3575 02dc 9F       		.byte	0x9f
 3576 02dd EA010000 		.4byte	.LVL95
 3577 02e1 F8010000 		.4byte	.LVL97
 3578 02e5 0200     		.2byte	0x2
 3579 02e7 30       		.byte	0x30
 3580 02e8 9F       		.byte	0x9f
 3581 02e9 FC010000 		.4byte	.LVL98
 3582 02ed 10020000 		.4byte	.LVL100
 3583 02f1 0200     		.2byte	0x2
 3584 02f3 34       		.byte	0x34
 3585 02f4 9F       		.byte	0x9f
 3586 02f5 10020000 		.4byte	.LVL100
 3587 02f9 18020000 		.4byte	.LVL101
 3588 02fd 0200     		.2byte	0x2
 3589 02ff 30       		.byte	0x30
 3590 0300 9F       		.byte	0x9f
 3591 0301 18020000 		.4byte	.LVL101
 3592 0305 62020000 		.4byte	.LVL115
 3593 0309 0200     		.2byte	0x2
 3594 030b 34       		.byte	0x34
 3595 030c 9F       		.byte	0x9f
 3596 030d 62020000 		.4byte	.LVL115
 3597 0311 68020000 		.4byte	.LVL116
 3598 0315 0200     		.2byte	0x2
 3599 0317 30       		.byte	0x30
 3600 0318 9F       		.byte	0x9f
 3601 0319 68020000 		.4byte	.LVL116
 3602 031d B8020000 		.4byte	.LFE46
 3603 0321 0200     		.2byte	0x2
 3604 0323 34       		.byte	0x34
 3605 0324 9F       		.byte	0x9f
 3606 0325 00000000 		.4byte	0
 3607 0329 00000000 		.4byte	0
 3608              	.LLST13:
 3609 032d 54000000 		.4byte	.LVL40
 3610 0331 56000000 		.4byte	.LVL41
 3611 0335 1100     		.2byte	0x11
 3612 0337 73       		.byte	0x73
 3613 0338 00       		.sleb128 0
ARM GAS  C:\Users\vrnk\AppData\Local\Temp\ccnz7Ubz.s 			page 94


 3614 0339 08       		.byte	0x8
 3615 033a FF       		.byte	0xff
 3616 033b 1A       		.byte	0x1a
 3617 033c 38       		.byte	0x38
 3618 033d 24       		.byte	0x24
 3619 033e 91       		.byte	0x91
 3620 033f 847A     		.sleb128 -764
 3621 0341 94       		.byte	0x94
 3622 0342 01       		.byte	0x1
 3623 0343 08       		.byte	0x8
 3624 0344 FF       		.byte	0xff
 3625 0345 1A       		.byte	0x1a
 3626 0346 21       		.byte	0x21
 3627 0347 9F       		.byte	0x9f
 3628 0348 56000000 		.4byte	.LVL41
 3629 034c 90000000 		.4byte	.LVL50
 3630 0350 1100     		.2byte	0x11
 3631 0352 7C       		.byte	0x7c
 3632 0353 00       		.sleb128 0
 3633 0354 08       		.byte	0x8
 3634 0355 FF       		.byte	0xff
 3635 0356 1A       		.byte	0x1a
 3636 0357 38       		.byte	0x38
 3637 0358 24       		.byte	0x24
 3638 0359 91       		.byte	0x91
 3639 035a 847A     		.sleb128 -764
 3640 035c 94       		.byte	0x94
 3641 035d 01       		.byte	0x1
 3642 035e 08       		.byte	0x8
 3643 035f FF       		.byte	0xff
 3644 0360 1A       		.byte	0x1a
 3645 0361 21       		.byte	0x21
 3646 0362 9F       		.byte	0x9f
 3647 0363 90000000 		.4byte	.LVL50
 3648 0367 AB000000 		.4byte	.LVL52-1
 3649 036b 1800     		.2byte	0x18
 3650 036d 77       		.byte	0x77
 3651 036e 00       		.sleb128 0
 3652 036f 74       		.byte	0x74
 3653 0370 00       		.sleb128 0
 3654 0371 22       		.byte	0x22
 3655 0372 23       		.byte	0x23
 3656 0373 05       		.uleb128 0x5
 3657 0374 94       		.byte	0x94
 3658 0375 01       		.byte	0x1
 3659 0376 08       		.byte	0x8
 3660 0377 FF       		.byte	0xff
 3661 0378 1A       		.byte	0x1a
 3662 0379 38       		.byte	0x38
 3663 037a 24       		.byte	0x24
 3664 037b 91       		.byte	0x91
 3665 037c 847A     		.sleb128 -764
 3666 037e 94       		.byte	0x94
 3667 037f 01       		.byte	0x1
 3668 0380 08       		.byte	0x8
 3669 0381 FF       		.byte	0xff
 3670 0382 1A       		.byte	0x1a
ARM GAS  C:\Users\vrnk\AppData\Local\Temp\ccnz7Ubz.s 			page 95


 3671 0383 21       		.byte	0x21
 3672 0384 9F       		.byte	0x9f
 3673 0385 62010000 		.4byte	.LVL78
 3674 0389 70010000 		.4byte	.LVL81
 3675 038d 1100     		.2byte	0x11
 3676 038f 7C       		.byte	0x7c
 3677 0390 00       		.sleb128 0
 3678 0391 08       		.byte	0x8
 3679 0392 FF       		.byte	0xff
 3680 0393 1A       		.byte	0x1a
 3681 0394 38       		.byte	0x38
 3682 0395 24       		.byte	0x24
 3683 0396 91       		.byte	0x91
 3684 0397 847A     		.sleb128 -764
 3685 0399 94       		.byte	0x94
 3686 039a 01       		.byte	0x1
 3687 039b 08       		.byte	0x8
 3688 039c FF       		.byte	0xff
 3689 039d 1A       		.byte	0x1a
 3690 039e 21       		.byte	0x21
 3691 039f 9F       		.byte	0x9f
 3692 03a0 70010000 		.4byte	.LVL81
 3693 03a4 74010000 		.4byte	.LVL82
 3694 03a8 1800     		.2byte	0x18
 3695 03aa 77       		.byte	0x77
 3696 03ab 00       		.sleb128 0
 3697 03ac 74       		.byte	0x74
 3698 03ad 00       		.sleb128 0
 3699 03ae 22       		.byte	0x22
 3700 03af 23       		.byte	0x23
 3701 03b0 05       		.uleb128 0x5
 3702 03b1 94       		.byte	0x94
 3703 03b2 01       		.byte	0x1
 3704 03b3 08       		.byte	0x8
 3705 03b4 FF       		.byte	0xff
 3706 03b5 1A       		.byte	0x1a
 3707 03b6 38       		.byte	0x38
 3708 03b7 24       		.byte	0x24
 3709 03b8 91       		.byte	0x91
 3710 03b9 847A     		.sleb128 -764
 3711 03bb 94       		.byte	0x94
 3712 03bc 01       		.byte	0x1
 3713 03bd 08       		.byte	0x8
 3714 03be FF       		.byte	0xff
 3715 03bf 1A       		.byte	0x1a
 3716 03c0 21       		.byte	0x21
 3717 03c1 9F       		.byte	0x9f
 3718 03c2 74010000 		.4byte	.LVL82
 3719 03c6 78010000 		.4byte	.LVL83
 3720 03ca 1100     		.2byte	0x11
 3721 03cc 7C       		.byte	0x7c
 3722 03cd 00       		.sleb128 0
 3723 03ce 08       		.byte	0x8
 3724 03cf FF       		.byte	0xff
 3725 03d0 1A       		.byte	0x1a
 3726 03d1 38       		.byte	0x38
 3727 03d2 24       		.byte	0x24
ARM GAS  C:\Users\vrnk\AppData\Local\Temp\ccnz7Ubz.s 			page 96


 3728 03d3 91       		.byte	0x91
 3729 03d4 847A     		.sleb128 -764
 3730 03d6 94       		.byte	0x94
 3731 03d7 01       		.byte	0x1
 3732 03d8 08       		.byte	0x8
 3733 03d9 FF       		.byte	0xff
 3734 03da 1A       		.byte	0x1a
 3735 03db 21       		.byte	0x21
 3736 03dc 9F       		.byte	0x9f
 3737 03dd 78010000 		.4byte	.LVL83
 3738 03e1 91010000 		.4byte	.LVL84-1
 3739 03e5 1800     		.2byte	0x18
 3740 03e7 77       		.byte	0x77
 3741 03e8 00       		.sleb128 0
 3742 03e9 74       		.byte	0x74
 3743 03ea 00       		.sleb128 0
 3744 03eb 22       		.byte	0x22
 3745 03ec 23       		.byte	0x23
 3746 03ed 05       		.uleb128 0x5
 3747 03ee 94       		.byte	0x94
 3748 03ef 01       		.byte	0x1
 3749 03f0 08       		.byte	0x8
 3750 03f1 FF       		.byte	0xff
 3751 03f2 1A       		.byte	0x1a
 3752 03f3 38       		.byte	0x38
 3753 03f4 24       		.byte	0x24
 3754 03f5 91       		.byte	0x91
 3755 03f6 847A     		.sleb128 -764
 3756 03f8 94       		.byte	0x94
 3757 03f9 01       		.byte	0x1
 3758 03fa 08       		.byte	0x8
 3759 03fb FF       		.byte	0xff
 3760 03fc 1A       		.byte	0x1a
 3761 03fd 21       		.byte	0x21
 3762 03fe 9F       		.byte	0x9f
 3763 03ff 9A010000 		.4byte	.LVL86
 3764 0403 AC010000 		.4byte	.LVL87
 3765 0407 1800     		.2byte	0x18
 3766 0409 77       		.byte	0x77
 3767 040a 00       		.sleb128 0
 3768 040b 74       		.byte	0x74
 3769 040c 00       		.sleb128 0
 3770 040d 22       		.byte	0x22
 3771 040e 23       		.byte	0x23
 3772 040f 05       		.uleb128 0x5
 3773 0410 94       		.byte	0x94
 3774 0411 01       		.byte	0x1
 3775 0412 08       		.byte	0x8
 3776 0413 FF       		.byte	0xff
 3777 0414 1A       		.byte	0x1a
 3778 0415 38       		.byte	0x38
 3779 0416 24       		.byte	0x24
 3780 0417 91       		.byte	0x91
 3781 0418 847A     		.sleb128 -764
 3782 041a 94       		.byte	0x94
 3783 041b 01       		.byte	0x1
 3784 041c 08       		.byte	0x8
ARM GAS  C:\Users\vrnk\AppData\Local\Temp\ccnz7Ubz.s 			page 97


 3785 041d FF       		.byte	0xff
 3786 041e 1A       		.byte	0x1a
 3787 041f 21       		.byte	0x21
 3788 0420 9F       		.byte	0x9f
 3789 0421 AC010000 		.4byte	.LVL87
 3790 0425 B2010000 		.4byte	.LVL88
 3791 0429 2900     		.2byte	0x29
 3792 042b 91       		.byte	0x91
 3793 042c 937B     		.sleb128 -621
 3794 042e 94       		.byte	0x94
 3795 042f 01       		.byte	0x1
 3796 0430 08       		.byte	0x8
 3797 0431 FF       		.byte	0xff
 3798 0432 1A       		.byte	0x1a
 3799 0433 38       		.byte	0x38
 3800 0434 24       		.byte	0x24
 3801 0435 91       		.byte	0x91
 3802 0436 927B     		.sleb128 -622
 3803 0438 94       		.byte	0x94
 3804 0439 01       		.byte	0x1
 3805 043a 08       		.byte	0x8
 3806 043b FF       		.byte	0xff
 3807 043c 1A       		.byte	0x1a
 3808 043d 21       		.byte	0x21
 3809 043e 77       		.byte	0x77
 3810 043f 00       		.sleb128 0
 3811 0440 22       		.byte	0x22
 3812 0441 23       		.byte	0x23
 3813 0442 05       		.uleb128 0x5
 3814 0443 94       		.byte	0x94
 3815 0444 01       		.byte	0x1
 3816 0445 08       		.byte	0x8
 3817 0446 FF       		.byte	0xff
 3818 0447 1A       		.byte	0x1a
 3819 0448 38       		.byte	0x38
 3820 0449 24       		.byte	0x24
 3821 044a 91       		.byte	0x91
 3822 044b 847A     		.sleb128 -764
 3823 044d 94       		.byte	0x94
 3824 044e 01       		.byte	0x1
 3825 044f 08       		.byte	0x8
 3826 0450 FF       		.byte	0xff
 3827 0451 1A       		.byte	0x1a
 3828 0452 21       		.byte	0x21
 3829 0453 9F       		.byte	0x9f
 3830 0454 B2010000 		.4byte	.LVL88
 3831 0458 CC010000 		.4byte	.LVL92
 3832 045c 2B00     		.2byte	0x2b
 3833 045e 91       		.byte	0x91
 3834 045f 937B     		.sleb128 -621
 3835 0461 94       		.byte	0x94
 3836 0462 01       		.byte	0x1
 3837 0463 08       		.byte	0x8
 3838 0464 FF       		.byte	0xff
 3839 0465 1A       		.byte	0x1a
 3840 0466 38       		.byte	0x38
 3841 0467 24       		.byte	0x24
ARM GAS  C:\Users\vrnk\AppData\Local\Temp\ccnz7Ubz.s 			page 98


 3842 0468 91       		.byte	0x91
 3843 0469 927B     		.sleb128 -622
 3844 046b 94       		.byte	0x94
 3845 046c 01       		.byte	0x1
 3846 046d 08       		.byte	0x8
 3847 046e FF       		.byte	0xff
 3848 046f 1A       		.byte	0x1a
 3849 0470 21       		.byte	0x21
 3850 0471 91       		.byte	0x91
 3851 0472 00       		.sleb128 0
 3852 0473 22       		.byte	0x22
 3853 0474 0A       		.byte	0xa
 3854 0475 6B02     		.2byte	0x26b
 3855 0477 1C       		.byte	0x1c
 3856 0478 94       		.byte	0x94
 3857 0479 01       		.byte	0x1
 3858 047a 08       		.byte	0x8
 3859 047b FF       		.byte	0xff
 3860 047c 1A       		.byte	0x1a
 3861 047d 38       		.byte	0x38
 3862 047e 24       		.byte	0x24
 3863 047f 91       		.byte	0x91
 3864 0480 847A     		.sleb128 -764
 3865 0482 94       		.byte	0x94
 3866 0483 01       		.byte	0x1
 3867 0484 08       		.byte	0x8
 3868 0485 FF       		.byte	0xff
 3869 0486 1A       		.byte	0x1a
 3870 0487 21       		.byte	0x21
 3871 0488 9F       		.byte	0x9f
 3872 0489 CC010000 		.4byte	.LVL92
 3873 048d E4010000 		.4byte	.LVL94
 3874 0491 1800     		.2byte	0x18
 3875 0493 77       		.byte	0x77
 3876 0494 00       		.sleb128 0
 3877 0495 74       		.byte	0x74
 3878 0496 00       		.sleb128 0
 3879 0497 22       		.byte	0x22
 3880 0498 23       		.byte	0x23
 3881 0499 05       		.uleb128 0x5
 3882 049a 94       		.byte	0x94
 3883 049b 01       		.byte	0x1
 3884 049c 08       		.byte	0x8
 3885 049d FF       		.byte	0xff
 3886 049e 1A       		.byte	0x1a
 3887 049f 38       		.byte	0x38
 3888 04a0 24       		.byte	0x24
 3889 04a1 91       		.byte	0x91
 3890 04a2 847A     		.sleb128 -764
 3891 04a4 94       		.byte	0x94
 3892 04a5 01       		.byte	0x1
 3893 04a6 08       		.byte	0x8
 3894 04a7 FF       		.byte	0xff
 3895 04a8 1A       		.byte	0x1a
 3896 04a9 21       		.byte	0x21
 3897 04aa 9F       		.byte	0x9f
 3898 04ab E4010000 		.4byte	.LVL94
ARM GAS  C:\Users\vrnk\AppData\Local\Temp\ccnz7Ubz.s 			page 99


 3899 04af F5010000 		.4byte	.LVL96-1
 3900 04b3 1A00     		.2byte	0x1a
 3901 04b5 91       		.byte	0x91
 3902 04b6 00       		.sleb128 0
 3903 04b7 74       		.byte	0x74
 3904 04b8 00       		.sleb128 0
 3905 04b9 22       		.byte	0x22
 3906 04ba 0A       		.byte	0xa
 3907 04bb 6B02     		.2byte	0x26b
 3908 04bd 1C       		.byte	0x1c
 3909 04be 94       		.byte	0x94
 3910 04bf 01       		.byte	0x1
 3911 04c0 08       		.byte	0x8
 3912 04c1 FF       		.byte	0xff
 3913 04c2 1A       		.byte	0x1a
 3914 04c3 38       		.byte	0x38
 3915 04c4 24       		.byte	0x24
 3916 04c5 91       		.byte	0x91
 3917 04c6 847A     		.sleb128 -764
 3918 04c8 94       		.byte	0x94
 3919 04c9 01       		.byte	0x1
 3920 04ca 08       		.byte	0x8
 3921 04cb FF       		.byte	0xff
 3922 04cc 1A       		.byte	0x1a
 3923 04cd 21       		.byte	0x21
 3924 04ce 9F       		.byte	0x9f
 3925 04cf FC010000 		.4byte	.LVL98
 3926 04d3 0A020000 		.4byte	.LVL99
 3927 04d7 1800     		.2byte	0x18
 3928 04d9 77       		.byte	0x77
 3929 04da 00       		.sleb128 0
 3930 04db 74       		.byte	0x74
 3931 04dc 00       		.sleb128 0
 3932 04dd 22       		.byte	0x22
 3933 04de 23       		.byte	0x23
 3934 04df 05       		.uleb128 0x5
 3935 04e0 94       		.byte	0x94
 3936 04e1 01       		.byte	0x1
 3937 04e2 08       		.byte	0x8
 3938 04e3 FF       		.byte	0xff
 3939 04e4 1A       		.byte	0x1a
 3940 04e5 38       		.byte	0x38
 3941 04e6 24       		.byte	0x24
 3942 04e7 91       		.byte	0x91
 3943 04e8 847A     		.sleb128 -764
 3944 04ea 94       		.byte	0x94
 3945 04eb 01       		.byte	0x1
 3946 04ec 08       		.byte	0x8
 3947 04ed FF       		.byte	0xff
 3948 04ee 1A       		.byte	0x1a
 3949 04ef 21       		.byte	0x21
 3950 04f0 9F       		.byte	0x9f
 3951 04f1 0A020000 		.4byte	.LVL99
 3952 04f5 18020000 		.4byte	.LVL101
 3953 04f9 1A00     		.2byte	0x1a
 3954 04fb 91       		.byte	0x91
 3955 04fc 00       		.sleb128 0
ARM GAS  C:\Users\vrnk\AppData\Local\Temp\ccnz7Ubz.s 			page 100


 3956 04fd 74       		.byte	0x74
 3957 04fe 00       		.sleb128 0
 3958 04ff 22       		.byte	0x22
 3959 0500 0A       		.byte	0xa
 3960 0501 6B02     		.2byte	0x26b
 3961 0503 1C       		.byte	0x1c
 3962 0504 94       		.byte	0x94
 3963 0505 01       		.byte	0x1
 3964 0506 08       		.byte	0x8
 3965 0507 FF       		.byte	0xff
 3966 0508 1A       		.byte	0x1a
 3967 0509 38       		.byte	0x38
 3968 050a 24       		.byte	0x24
 3969 050b 91       		.byte	0x91
 3970 050c 847A     		.sleb128 -764
 3971 050e 94       		.byte	0x94
 3972 050f 01       		.byte	0x1
 3973 0510 08       		.byte	0x8
 3974 0511 FF       		.byte	0xff
 3975 0512 1A       		.byte	0x1a
 3976 0513 21       		.byte	0x21
 3977 0514 9F       		.byte	0x9f
 3978 0515 18020000 		.4byte	.LVL101
 3979 0519 28020000 		.4byte	.LVL102
 3980 051d 1800     		.2byte	0x18
 3981 051f 77       		.byte	0x77
 3982 0520 00       		.sleb128 0
 3983 0521 74       		.byte	0x74
 3984 0522 00       		.sleb128 0
 3985 0523 22       		.byte	0x22
 3986 0524 23       		.byte	0x23
 3987 0525 05       		.uleb128 0x5
 3988 0526 94       		.byte	0x94
 3989 0527 01       		.byte	0x1
 3990 0528 08       		.byte	0x8
 3991 0529 FF       		.byte	0xff
 3992 052a 1A       		.byte	0x1a
 3993 052b 38       		.byte	0x38
 3994 052c 24       		.byte	0x24
 3995 052d 91       		.byte	0x91
 3996 052e 847A     		.sleb128 -764
 3997 0530 94       		.byte	0x94
 3998 0531 01       		.byte	0x1
 3999 0532 08       		.byte	0x8
 4000 0533 FF       		.byte	0xff
 4001 0534 1A       		.byte	0x1a
 4002 0535 21       		.byte	0x21
 4003 0536 9F       		.byte	0x9f
 4004 0537 28020000 		.4byte	.LVL102
 4005 053b 2C020000 		.4byte	.LVL103
 4006 053f 1A00     		.2byte	0x1a
 4007 0541 91       		.byte	0x91
 4008 0542 00       		.sleb128 0
 4009 0543 74       		.byte	0x74
 4010 0544 00       		.sleb128 0
 4011 0545 22       		.byte	0x22
 4012 0546 0A       		.byte	0xa
ARM GAS  C:\Users\vrnk\AppData\Local\Temp\ccnz7Ubz.s 			page 101


 4013 0547 6B02     		.2byte	0x26b
 4014 0549 1C       		.byte	0x1c
 4015 054a 94       		.byte	0x94
 4016 054b 01       		.byte	0x1
 4017 054c 08       		.byte	0x8
 4018 054d FF       		.byte	0xff
 4019 054e 1A       		.byte	0x1a
 4020 054f 38       		.byte	0x38
 4021 0550 24       		.byte	0x24
 4022 0551 91       		.byte	0x91
 4023 0552 847A     		.sleb128 -764
 4024 0554 94       		.byte	0x94
 4025 0555 01       		.byte	0x1
 4026 0556 08       		.byte	0x8
 4027 0557 FF       		.byte	0xff
 4028 0558 1A       		.byte	0x1a
 4029 0559 21       		.byte	0x21
 4030 055a 9F       		.byte	0x9f
 4031 055b 2C020000 		.4byte	.LVL103
 4032 055f 60020000 		.4byte	.LVL114
 4033 0563 2B00     		.2byte	0x2b
 4034 0565 91       		.byte	0x91
 4035 0566 937B     		.sleb128 -621
 4036 0568 94       		.byte	0x94
 4037 0569 01       		.byte	0x1
 4038 056a 08       		.byte	0x8
 4039 056b FF       		.byte	0xff
 4040 056c 1A       		.byte	0x1a
 4041 056d 38       		.byte	0x38
 4042 056e 24       		.byte	0x24
 4043 056f 91       		.byte	0x91
 4044 0570 927B     		.sleb128 -622
 4045 0572 94       		.byte	0x94
 4046 0573 01       		.byte	0x1
 4047 0574 08       		.byte	0x8
 4048 0575 FF       		.byte	0xff
 4049 0576 1A       		.byte	0x1a
 4050 0577 21       		.byte	0x21
 4051 0578 91       		.byte	0x91
 4052 0579 00       		.sleb128 0
 4053 057a 22       		.byte	0x22
 4054 057b 0A       		.byte	0xa
 4055 057c 6B02     		.2byte	0x26b
 4056 057e 1C       		.byte	0x1c
 4057 057f 94       		.byte	0x94
 4058 0580 01       		.byte	0x1
 4059 0581 08       		.byte	0x8
 4060 0582 FF       		.byte	0xff
 4061 0583 1A       		.byte	0x1a
 4062 0584 38       		.byte	0x38
 4063 0585 24       		.byte	0x24
 4064 0586 91       		.byte	0x91
 4065 0587 847A     		.sleb128 -764
 4066 0589 94       		.byte	0x94
 4067 058a 01       		.byte	0x1
 4068 058b 08       		.byte	0x8
 4069 058c FF       		.byte	0xff
ARM GAS  C:\Users\vrnk\AppData\Local\Temp\ccnz7Ubz.s 			page 102


 4070 058d 1A       		.byte	0x1a
 4071 058e 21       		.byte	0x21
 4072 058f 9F       		.byte	0x9f
 4073 0590 60020000 		.4byte	.LVL114
 4074 0594 62020000 		.4byte	.LVL115
 4075 0598 2900     		.2byte	0x29
 4076 059a 91       		.byte	0x91
 4077 059b 937B     		.sleb128 -621
 4078 059d 94       		.byte	0x94
 4079 059e 01       		.byte	0x1
 4080 059f 08       		.byte	0x8
 4081 05a0 FF       		.byte	0xff
 4082 05a1 1A       		.byte	0x1a
 4083 05a2 38       		.byte	0x38
 4084 05a3 24       		.byte	0x24
 4085 05a4 91       		.byte	0x91
 4086 05a5 927B     		.sleb128 -622
 4087 05a7 94       		.byte	0x94
 4088 05a8 01       		.byte	0x1
 4089 05a9 08       		.byte	0x8
 4090 05aa FF       		.byte	0xff
 4091 05ab 1A       		.byte	0x1a
 4092 05ac 21       		.byte	0x21
 4093 05ad 73       		.byte	0x73
 4094 05ae 00       		.sleb128 0
 4095 05af 22       		.byte	0x22
 4096 05b0 23       		.byte	0x23
 4097 05b1 05       		.uleb128 0x5
 4098 05b2 94       		.byte	0x94
 4099 05b3 01       		.byte	0x1
 4100 05b4 08       		.byte	0x8
 4101 05b5 FF       		.byte	0xff
 4102 05b6 1A       		.byte	0x1a
 4103 05b7 38       		.byte	0x38
 4104 05b8 24       		.byte	0x24
 4105 05b9 91       		.byte	0x91
 4106 05ba 847A     		.sleb128 -764
 4107 05bc 94       		.byte	0x94
 4108 05bd 01       		.byte	0x1
 4109 05be 08       		.byte	0x8
 4110 05bf FF       		.byte	0xff
 4111 05c0 1A       		.byte	0x1a
 4112 05c1 21       		.byte	0x21
 4113 05c2 9F       		.byte	0x9f
 4114 05c3 68020000 		.4byte	.LVL116
 4115 05c7 6B020000 		.4byte	.LVL117-1
 4116 05cb 1800     		.2byte	0x18
 4117 05cd 77       		.byte	0x77
 4118 05ce 00       		.sleb128 0
 4119 05cf 74       		.byte	0x74
 4120 05d0 00       		.sleb128 0
 4121 05d1 22       		.byte	0x22
 4122 05d2 23       		.byte	0x23
 4123 05d3 05       		.uleb128 0x5
 4124 05d4 94       		.byte	0x94
 4125 05d5 01       		.byte	0x1
 4126 05d6 08       		.byte	0x8
ARM GAS  C:\Users\vrnk\AppData\Local\Temp\ccnz7Ubz.s 			page 103


 4127 05d7 FF       		.byte	0xff
 4128 05d8 1A       		.byte	0x1a
 4129 05d9 38       		.byte	0x38
 4130 05da 24       		.byte	0x24
 4131 05db 91       		.byte	0x91
 4132 05dc 847A     		.sleb128 -764
 4133 05de 94       		.byte	0x94
 4134 05df 01       		.byte	0x1
 4135 05e0 08       		.byte	0x8
 4136 05e1 FF       		.byte	0xff
 4137 05e2 1A       		.byte	0x1a
 4138 05e3 21       		.byte	0x21
 4139 05e4 9F       		.byte	0x9f
 4140 05e5 00000000 		.4byte	0
 4141 05e9 00000000 		.4byte	0
 4142              	.LLST14:
 4143 05ed 22000000 		.4byte	.LVL38
 4144 05f1 64000000 		.4byte	.LVL42
 4145 05f5 0100     		.2byte	0x1
 4146 05f7 50       		.byte	0x50
 4147 05f8 00000000 		.4byte	0
 4148 05fc 00000000 		.4byte	0
 4149              	.LLST15:
 4150 0600 00000000 		.4byte	.LVL35
 4151 0604 10000000 		.4byte	.LVL37
 4152 0608 0200     		.2byte	0x2
 4153 060a 30       		.byte	0x30
 4154 060b 9F       		.byte	0x9f
 4155 060c 46000000 		.4byte	.LVL39
 4156 0610 C0000000 		.4byte	.LVL54
 4157 0614 0100     		.2byte	0x1
 4158 0616 54       		.byte	0x54
 4159 0617 C0000000 		.4byte	.LVL54
 4160 061b FE000000 		.4byte	.LVL61
 4161 061f 0300     		.2byte	0x3
 4162 0621 08       		.byte	0x8
 4163 0622 80       		.byte	0x80
 4164 0623 9F       		.byte	0x9f
 4165 0624 62010000 		.4byte	.LVL78
 4166 0628 AC010000 		.4byte	.LVL87
 4167 062c 0100     		.2byte	0x1
 4168 062e 54       		.byte	0x54
 4169 062f AC010000 		.4byte	.LVL87
 4170 0633 CC010000 		.4byte	.LVL92
 4171 0637 1400     		.2byte	0x14
 4172 0639 91       		.byte	0x91
 4173 063a 937B     		.sleb128 -621
 4174 063c 94       		.byte	0x94
 4175 063d 01       		.byte	0x1
 4176 063e 08       		.byte	0x8
 4177 063f FF       		.byte	0xff
 4178 0640 1A       		.byte	0x1a
 4179 0641 38       		.byte	0x38
 4180 0642 24       		.byte	0x24
 4181 0643 91       		.byte	0x91
 4182 0644 927B     		.sleb128 -622
 4183 0646 94       		.byte	0x94
ARM GAS  C:\Users\vrnk\AppData\Local\Temp\ccnz7Ubz.s 			page 104


 4184 0647 01       		.byte	0x1
 4185 0648 08       		.byte	0x8
 4186 0649 FF       		.byte	0xff
 4187 064a 1A       		.byte	0x1a
 4188 064b 21       		.byte	0x21
 4189 064c 9F       		.byte	0x9f
 4190 064d CC010000 		.4byte	.LVL92
 4191 0651 F8010000 		.4byte	.LVL97
 4192 0655 0100     		.2byte	0x1
 4193 0657 54       		.byte	0x54
 4194 0658 FC010000 		.4byte	.LVL98
 4195 065c 2C020000 		.4byte	.LVL103
 4196 0660 0100     		.2byte	0x1
 4197 0662 54       		.byte	0x54
 4198 0663 2C020000 		.4byte	.LVL103
 4199 0667 62020000 		.4byte	.LVL115
 4200 066b 1400     		.2byte	0x14
 4201 066d 91       		.byte	0x91
 4202 066e 937B     		.sleb128 -621
 4203 0670 94       		.byte	0x94
 4204 0671 01       		.byte	0x1
 4205 0672 08       		.byte	0x8
 4206 0673 FF       		.byte	0xff
 4207 0674 1A       		.byte	0x1a
 4208 0675 38       		.byte	0x38
 4209 0676 24       		.byte	0x24
 4210 0677 91       		.byte	0x91
 4211 0678 927B     		.sleb128 -622
 4212 067a 94       		.byte	0x94
 4213 067b 01       		.byte	0x1
 4214 067c 08       		.byte	0x8
 4215 067d FF       		.byte	0xff
 4216 067e 1A       		.byte	0x1a
 4217 067f 21       		.byte	0x21
 4218 0680 9F       		.byte	0x9f
 4219 0681 68020000 		.4byte	.LVL116
 4220 0685 74020000 		.4byte	.LVL118
 4221 0689 0100     		.2byte	0x1
 4222 068b 54       		.byte	0x54
 4223 068c 7C020000 		.4byte	.LVL120
 4224 0690 86020000 		.4byte	.LVL123
 4225 0694 0300     		.2byte	0x3
 4226 0696 08       		.byte	0x8
 4227 0697 80       		.byte	0x80
 4228 0698 9F       		.byte	0x9f
 4229 0699 00000000 		.4byte	0
 4230 069d 00000000 		.4byte	0
 4231              	.LLST16:
 4232 06a1 00000000 		.4byte	.LVL35
 4233 06a5 10000000 		.4byte	.LVL37
 4234 06a9 0200     		.2byte	0x2
 4235 06ab 30       		.byte	0x30
 4236 06ac 9F       		.byte	0x9f
 4237 06ad A2000000 		.4byte	.LVL51
 4238 06b1 AE000000 		.4byte	.LVL53
 4239 06b5 0300     		.2byte	0x3
 4240 06b7 08       		.byte	0x8
ARM GAS  C:\Users\vrnk\AppData\Local\Temp\ccnz7Ubz.s 			page 105


 4241 06b8 80       		.byte	0x80
 4242 06b9 9F       		.byte	0x9f
 4243 06ba D0000000 		.4byte	.LVL55
 4244 06be FC000000 		.4byte	.LVL60
 4245 06c2 0100     		.2byte	0x1
 4246 06c4 56       		.byte	0x56
 4247 06c5 00010000 		.4byte	.LVL62
 4248 06c9 62010000 		.4byte	.LVL78
 4249 06cd 0100     		.2byte	0x1
 4250 06cf 56       		.byte	0x56
 4251 06d0 CC010000 		.4byte	.LVL92
 4252 06d4 D6010000 		.4byte	.LVL93
 4253 06d8 0100     		.2byte	0x1
 4254 06da 56       		.byte	0x56
 4255 06db F8010000 		.4byte	.LVL97
 4256 06df FC010000 		.4byte	.LVL98
 4257 06e3 0100     		.2byte	0x1
 4258 06e5 56       		.byte	0x56
 4259 06e6 82020000 		.4byte	.LVL121
 4260 06ea 84020000 		.4byte	.LVL122
 4261 06ee 0100     		.2byte	0x1
 4262 06f0 56       		.byte	0x56
 4263 06f1 00000000 		.4byte	0
 4264 06f5 00000000 		.4byte	0
 4265              	.LLST17:
 4266 06f9 00000000 		.4byte	.LVL35
 4267 06fd 10000000 		.4byte	.LVL37
 4268 0701 0200     		.2byte	0x2
 4269 0703 30       		.byte	0x30
 4270 0704 9F       		.byte	0x9f
 4271 0705 E6000000 		.4byte	.LVL57
 4272 0709 EA000000 		.4byte	.LVL58
 4273 070d 0200     		.2byte	0x2
 4274 070f 31       		.byte	0x31
 4275 0710 9F       		.byte	0x9f
 4276 0711 EA000000 		.4byte	.LVL58
 4277 0715 FE000000 		.4byte	.LVL61
 4278 0719 0300     		.2byte	0x3
 4279 071b 91       		.byte	0x91
 4280 071c 807A     		.sleb128 -768
 4281 071e 00010000 		.4byte	.LVL62
 4282 0722 02010000 		.4byte	.LVL63
 4283 0726 0300     		.2byte	0x3
 4284 0728 91       		.byte	0x91
 4285 0729 807A     		.sleb128 -768
 4286 072b 02010000 		.4byte	.LVL63
 4287 072f 04010000 		.4byte	.LVL64
 4288 0733 0200     		.2byte	0x2
 4289 0735 70       		.byte	0x70
 4290 0736 00       		.sleb128 0
 4291 0737 04010000 		.4byte	.LVL64
 4292 073b 0A010000 		.4byte	.LVL65
 4293 073f 0300     		.2byte	0x3
 4294 0741 70       		.byte	0x70
 4295 0742 EF7E     		.sleb128 -145
 4296 0744 0A010000 		.4byte	.LVL65
 4297 0748 12010000 		.4byte	.LVL68
ARM GAS  C:\Users\vrnk\AppData\Local\Temp\ccnz7Ubz.s 			page 106


 4298 074c 0200     		.2byte	0x2
 4299 074e 72       		.byte	0x72
 4300 074f 00       		.sleb128 0
 4301 0750 12010000 		.4byte	.LVL68
 4302 0754 5F010000 		.4byte	.LVL77-1
 4303 0758 0200     		.2byte	0x2
 4304 075a 72       		.byte	0x72
 4305 075b 72       		.sleb128 -14
 4306 075c 5F010000 		.4byte	.LVL77-1
 4307 0760 62010000 		.4byte	.LVL78
 4308 0764 0300     		.2byte	0x3
 4309 0766 91       		.byte	0x91
 4310 0767 807A     		.sleb128 -768
 4311 0769 82020000 		.4byte	.LVL121
 4312 076d 86020000 		.4byte	.LVL123
 4313 0771 0300     		.2byte	0x3
 4314 0773 91       		.byte	0x91
 4315 0774 807A     		.sleb128 -768
 4316 0776 00000000 		.4byte	0
 4317 077a 00000000 		.4byte	0
 4318              	.LLST18:
 4319 077e 00000000 		.4byte	.LVL35
 4320 0782 10000000 		.4byte	.LVL37
 4321 0786 0200     		.2byte	0x2
 4322 0788 30       		.byte	0x30
 4323 0789 9F       		.byte	0x9f
 4324 078a 00010000 		.4byte	.LVL62
 4325 078e 62010000 		.4byte	.LVL78
 4326 0792 0100     		.2byte	0x1
 4327 0794 55       		.byte	0x55
 4328 0795 0A020000 		.4byte	.LVL99
 4329 0799 18020000 		.4byte	.LVL101
 4330 079d 0200     		.2byte	0x2
 4331 079f 31       		.byte	0x31
 4332 07a0 9F       		.byte	0x9f
 4333 07a1 00000000 		.4byte	0
 4334 07a5 00000000 		.4byte	0
 4335              	.LLST19:
 4336 07a9 90000000 		.4byte	.LVL50
 4337 07ad AB000000 		.4byte	.LVL52-1
 4338 07b1 0200     		.2byte	0x2
 4339 07b3 77       		.byte	0x77
 4340 07b4 04       		.sleb128 4
 4341 07b5 68010000 		.4byte	.LVL79
 4342 07b9 91010000 		.4byte	.LVL84-1
 4343 07bd 0200     		.2byte	0x2
 4344 07bf 77       		.byte	0x77
 4345 07c0 04       		.sleb128 4
 4346 07c1 9A010000 		.4byte	.LVL86
 4347 07c5 B2010000 		.4byte	.LVL88
 4348 07c9 0200     		.2byte	0x2
 4349 07cb 77       		.byte	0x77
 4350 07cc 04       		.sleb128 4
 4351 07cd B2010000 		.4byte	.LVL88
 4352 07d1 CC010000 		.4byte	.LVL92
 4353 07d5 0300     		.2byte	0x3
 4354 07d7 91       		.byte	0x91
ARM GAS  C:\Users\vrnk\AppData\Local\Temp\ccnz7Ubz.s 			page 107


 4355 07d8 947B     		.sleb128 -620
 4356 07da CC010000 		.4byte	.LVL92
 4357 07de E4010000 		.4byte	.LVL94
 4358 07e2 0200     		.2byte	0x2
 4359 07e4 77       		.byte	0x77
 4360 07e5 04       		.sleb128 4
 4361 07e6 E4010000 		.4byte	.LVL94
 4362 07ea F5010000 		.4byte	.LVL96-1
 4363 07ee 0300     		.2byte	0x3
 4364 07f0 91       		.byte	0x91
 4365 07f1 947B     		.sleb128 -620
 4366 07f3 FC010000 		.4byte	.LVL98
 4367 07f7 0A020000 		.4byte	.LVL99
 4368 07fb 0200     		.2byte	0x2
 4369 07fd 77       		.byte	0x77
 4370 07fe 04       		.sleb128 4
 4371 07ff 0A020000 		.4byte	.LVL99
 4372 0803 18020000 		.4byte	.LVL101
 4373 0807 0300     		.2byte	0x3
 4374 0809 91       		.byte	0x91
 4375 080a 947B     		.sleb128 -620
 4376 080c 18020000 		.4byte	.LVL101
 4377 0810 28020000 		.4byte	.LVL102
 4378 0814 0200     		.2byte	0x2
 4379 0816 77       		.byte	0x77
 4380 0817 04       		.sleb128 4
 4381 0818 28020000 		.4byte	.LVL102
 4382 081c 60020000 		.4byte	.LVL114
 4383 0820 0300     		.2byte	0x3
 4384 0822 91       		.byte	0x91
 4385 0823 947B     		.sleb128 -620
 4386 0825 60020000 		.4byte	.LVL114
 4387 0829 62020000 		.4byte	.LVL115
 4388 082d 0200     		.2byte	0x2
 4389 082f 73       		.byte	0x73
 4390 0830 04       		.sleb128 4
 4391 0831 68020000 		.4byte	.LVL116
 4392 0835 6B020000 		.4byte	.LVL117-1
 4393 0839 0200     		.2byte	0x2
 4394 083b 77       		.byte	0x77
 4395 083c 04       		.sleb128 4
 4396 083d 00000000 		.4byte	0
 4397 0841 00000000 		.4byte	0
 4398              	.LLST20:
 4399 0845 B2010000 		.4byte	.LVL88
 4400 0849 BA010000 		.4byte	.LVL89
 4401 084d 0100     		.2byte	0x1
 4402 084f 57       		.byte	0x57
 4403 0850 BA010000 		.4byte	.LVL89
 4404 0854 BC010000 		.4byte	.LVL90
 4405 0858 0500     		.2byte	0x5
 4406 085a 71       		.byte	0x71
 4407 085b 00       		.sleb128 0
 4408 085c 37       		.byte	0x37
 4409 085d 25       		.byte	0x25
 4410 085e 9F       		.byte	0x9f
 4411 085f BC010000 		.4byte	.LVL90
ARM GAS  C:\Users\vrnk\AppData\Local\Temp\ccnz7Ubz.s 			page 108


 4412 0863 CC010000 		.4byte	.LVL92
 4413 0867 0B00     		.2byte	0xb
 4414 0869 03       		.byte	0x3
 4415 086a 00000000 		.4byte	Bootloader_SizeBytesAccess
 4416 086e 06       		.byte	0x6
 4417 086f 94       		.byte	0x94
 4418 0870 02       		.byte	0x2
 4419 0871 37       		.byte	0x37
 4420 0872 25       		.byte	0x25
 4421 0873 9F       		.byte	0x9f
 4422 0874 00000000 		.4byte	0
 4423 0878 00000000 		.4byte	0
 4424              	.LLST21:
 4425 087c 32020000 		.4byte	.LVL104
 4426 0880 54020000 		.4byte	.LVL110
 4427 0884 0100     		.2byte	0x1
 4428 0886 50       		.byte	0x50
 4429 0887 54020000 		.4byte	.LVL110
 4430 088b 62020000 		.4byte	.LVL115
 4431 088f 1400     		.2byte	0x14
 4432 0891 91       		.byte	0x91
 4433 0892 967B     		.sleb128 -618
 4434 0894 94       		.byte	0x94
 4435 0895 01       		.byte	0x1
 4436 0896 08       		.byte	0x8
 4437 0897 FF       		.byte	0xff
 4438 0898 1A       		.byte	0x1a
 4439 0899 38       		.byte	0x38
 4440 089a 24       		.byte	0x24
 4441 089b 91       		.byte	0x91
 4442 089c 957B     		.sleb128 -619
 4443 089e 94       		.byte	0x94
 4444 089f 01       		.byte	0x1
 4445 08a0 08       		.byte	0x8
 4446 08a1 FF       		.byte	0xff
 4447 08a2 1A       		.byte	0x1a
 4448 08a3 21       		.byte	0x21
 4449 08a4 9F       		.byte	0x9f
 4450 08a5 00000000 		.4byte	0
 4451 08a9 00000000 		.4byte	0
 4452              	.LLST22:
 4453 08ad 36020000 		.4byte	.LVL105
 4454 08b1 58020000 		.4byte	.LVL111
 4455 08b5 0100     		.2byte	0x1
 4456 08b7 57       		.byte	0x57
 4457 08b8 58020000 		.4byte	.LVL111
 4458 08bc 60020000 		.4byte	.LVL114
 4459 08c0 2100     		.2byte	0x21
 4460 08c2 91       		.byte	0x91
 4461 08c3 967B     		.sleb128 -618
 4462 08c5 94       		.byte	0x94
 4463 08c6 01       		.byte	0x1
 4464 08c7 08       		.byte	0x8
 4465 08c8 FF       		.byte	0xff
 4466 08c9 1A       		.byte	0x1a
 4467 08ca 38       		.byte	0x38
 4468 08cb 24       		.byte	0x24
ARM GAS  C:\Users\vrnk\AppData\Local\Temp\ccnz7Ubz.s 			page 109


 4469 08cc 91       		.byte	0x91
 4470 08cd 957B     		.sleb128 -619
 4471 08cf 94       		.byte	0x94
 4472 08d0 01       		.byte	0x1
 4473 08d1 08       		.byte	0x8
 4474 08d2 FF       		.byte	0xff
 4475 08d3 1A       		.byte	0x1a
 4476 08d4 21       		.byte	0x21
 4477 08d5 91       		.byte	0x91
 4478 08d6 947B     		.sleb128 -620
 4479 08d8 94       		.byte	0x94
 4480 08d9 01       		.byte	0x1
 4481 08da 08       		.byte	0x8
 4482 08db FF       		.byte	0xff
 4483 08dc 1A       		.byte	0x1a
 4484 08dd 38       		.byte	0x38
 4485 08de 24       		.byte	0x24
 4486 08df 22       		.byte	0x22
 4487 08e0 37       		.byte	0x37
 4488 08e1 24       		.byte	0x24
 4489 08e2 9F       		.byte	0x9f
 4490 08e3 60020000 		.4byte	.LVL114
 4491 08e7 62020000 		.4byte	.LVL115
 4492 08eb 2000     		.2byte	0x20
 4493 08ed 91       		.byte	0x91
 4494 08ee 967B     		.sleb128 -618
 4495 08f0 94       		.byte	0x94
 4496 08f1 01       		.byte	0x1
 4497 08f2 08       		.byte	0x8
 4498 08f3 FF       		.byte	0xff
 4499 08f4 1A       		.byte	0x1a
 4500 08f5 38       		.byte	0x38
 4501 08f6 24       		.byte	0x24
 4502 08f7 91       		.byte	0x91
 4503 08f8 957B     		.sleb128 -619
 4504 08fa 94       		.byte	0x94
 4505 08fb 01       		.byte	0x1
 4506 08fc 08       		.byte	0x8
 4507 08fd FF       		.byte	0xff
 4508 08fe 1A       		.byte	0x1a
 4509 08ff 21       		.byte	0x21
 4510 0900 73       		.byte	0x73
 4511 0901 04       		.sleb128 4
 4512 0902 94       		.byte	0x94
 4513 0903 01       		.byte	0x1
 4514 0904 08       		.byte	0x8
 4515 0905 FF       		.byte	0xff
 4516 0906 1A       		.byte	0x1a
 4517 0907 38       		.byte	0x38
 4518 0908 24       		.byte	0x24
 4519 0909 22       		.byte	0x22
 4520 090a 37       		.byte	0x37
 4521 090b 24       		.byte	0x24
 4522 090c 9F       		.byte	0x9f
 4523 090d 00000000 		.4byte	0
 4524 0911 00000000 		.4byte	0
 4525              	.LLST23:
ARM GAS  C:\Users\vrnk\AppData\Local\Temp\ccnz7Ubz.s 			page 110


 4526 0915 58020000 		.4byte	.LVL111
 4527 0919 5C020000 		.4byte	.LVL113
 4528 091d 0100     		.2byte	0x1
 4529 091f 57       		.byte	0x57
 4530 0920 5C020000 		.4byte	.LVL113
 4531 0924 62020000 		.4byte	.LVL115
 4532 0928 0100     		.2byte	0x1
 4533 092a 52       		.byte	0x52
 4534 092b 00000000 		.4byte	0
 4535 092f 00000000 		.4byte	0
 4536              	.LLST24:
 4537 0933 36020000 		.4byte	.LVL105
 4538 0937 3A020000 		.4byte	.LVL106
 4539 093b 0300     		.2byte	0x3
 4540 093d 08       		.byte	0x8
 4541 093e 80       		.byte	0x80
 4542 093f 9F       		.byte	0x9f
 4543 0940 3C020000 		.4byte	.LVL107
 4544 0944 52020000 		.4byte	.LVL109
 4545 0948 0100     		.2byte	0x1
 4546 094a 51       		.byte	0x51
 4547 094b 00000000 		.4byte	0
 4548 094f 00000000 		.4byte	0
 4549              	.LLST26:
 4550 0953 36020000 		.4byte	.LVL105
 4551 0957 3A020000 		.4byte	.LVL106
 4552 095b 0200     		.2byte	0x2
 4553 095d 30       		.byte	0x30
 4554 095e 9F       		.byte	0x9f
 4555 095f 42020000 		.4byte	.LVL108
 4556 0963 5A020000 		.4byte	.LVL112
 4557 0967 0100     		.2byte	0x1
 4558 0969 52       		.byte	0x52
 4559 096a 00000000 		.4byte	0
 4560 096e 00000000 		.4byte	0
 4561              	.LLST27:
 4562 0972 66000000 		.4byte	.LVL43
 4563 0976 76000000 		.4byte	.LVL44
 4564 097a 0100     		.2byte	0x1
 4565 097c 53       		.byte	0x53
 4566 097d 76000000 		.4byte	.LVL44
 4567 0981 7C000000 		.4byte	.LVL47
 4568 0985 0300     		.2byte	0x3
 4569 0987 73       		.byte	0x73
 4570 0988 01       		.sleb128 1
 4571 0989 9F       		.byte	0x9f
 4572 098a 7C000000 		.4byte	.LVL47
 4573 098e 8A000000 		.4byte	.LVL49
 4574 0992 0100     		.2byte	0x1
 4575 0994 53       		.byte	0x53
 4576 0995 00000000 		.4byte	0
 4577 0999 00000000 		.4byte	0
 4578              	.LLST28:
 4579 099d 66000000 		.4byte	.LVL43
 4580 09a1 78000000 		.4byte	.LVL45
 4581 09a5 0100     		.2byte	0x1
 4582 09a7 50       		.byte	0x50
ARM GAS  C:\Users\vrnk\AppData\Local\Temp\ccnz7Ubz.s 			page 111


 4583 09a8 7A000000 		.4byte	.LVL46
 4584 09ac 80000000 		.4byte	.LVL48
 4585 09b0 0100     		.2byte	0x1
 4586 09b2 50       		.byte	0x50
 4587 09b3 80000000 		.4byte	.LVL48
 4588 09b7 90000000 		.4byte	.LVL50
 4589 09bb 0400     		.2byte	0x4
 4590 09bd 70       		.byte	0x70
 4591 09be 00       		.sleb128 0
 4592 09bf 1F       		.byte	0x1f
 4593 09c0 9F       		.byte	0x9f
 4594 09c1 62010000 		.4byte	.LVL78
 4595 09c5 6A010000 		.4byte	.LVL80
 4596 09c9 0400     		.2byte	0x4
 4597 09cb 70       		.byte	0x70
 4598 09cc 00       		.sleb128 0
 4599 09cd 1F       		.byte	0x1f
 4600 09ce 9F       		.byte	0x9f
 4601 09cf 00000000 		.4byte	0
 4602 09d3 00000000 		.4byte	0
 4603              	.LLST29:
 4604 09d7 00010000 		.4byte	.LVL62
 4605 09db 0C010000 		.4byte	.LVL66
 4606 09df 0400     		.2byte	0x4
 4607 09e1 91       		.byte	0x91
 4608 09e2 907B     		.sleb128 -624
 4609 09e4 9F       		.byte	0x9f
 4610 09e5 0C010000 		.4byte	.LVL66
 4611 09e9 20010000 		.4byte	.LVL69
 4612 09ed 0100     		.2byte	0x1
 4613 09ef 54       		.byte	0x54
 4614 09f0 20010000 		.4byte	.LVL69
 4615 09f4 5A010000 		.4byte	.LVL76
 4616 09f8 0400     		.2byte	0x4
 4617 09fa 91       		.byte	0x91
 4618 09fb 907B     		.sleb128 -624
 4619 09fd 9F       		.byte	0x9f
 4620 09fe 5A010000 		.4byte	.LVL76
 4621 0a02 5F010000 		.4byte	.LVL77-1
 4622 0a06 0100     		.2byte	0x1
 4623 0a08 50       		.byte	0x50
 4624 0a09 5F010000 		.4byte	.LVL77-1
 4625 0a0d 62010000 		.4byte	.LVL78
 4626 0a11 0400     		.2byte	0x4
 4627 0a13 91       		.byte	0x91
 4628 0a14 907B     		.sleb128 -624
 4629 0a16 9F       		.byte	0x9f
 4630 0a17 00000000 		.4byte	0
 4631 0a1b 00000000 		.4byte	0
 4632              	.LLST30:
 4633 0a1f 00010000 		.4byte	.LVL62
 4634 0a23 0E010000 		.4byte	.LVL67
 4635 0a27 0100     		.2byte	0x1
 4636 0a29 53       		.byte	0x53
 4637 0a2a 00000000 		.4byte	0
 4638 0a2e 00000000 		.4byte	0
 4639              	.LLST31:
ARM GAS  C:\Users\vrnk\AppData\Local\Temp\ccnz7Ubz.s 			page 112


 4640 0a32 32010000 		.4byte	.LVL70
 4641 0a36 40010000 		.4byte	.LVL73
 4642 0a3a 0100     		.2byte	0x1
 4643 0a3c 53       		.byte	0x53
 4644 0a3d 00000000 		.4byte	0
 4645 0a41 00000000 		.4byte	0
 4646              	.LLST32:
 4647 0a45 20010000 		.4byte	.LVL69
 4648 0a49 5A010000 		.4byte	.LVL76
 4649 0a4d 0400     		.2byte	0x4
 4650 0a4f 91       		.byte	0x91
 4651 0a50 907B     		.sleb128 -624
 4652 0a52 9F       		.byte	0x9f
 4653 0a53 5A010000 		.4byte	.LVL76
 4654 0a57 5F010000 		.4byte	.LVL77-1
 4655 0a5b 0100     		.2byte	0x1
 4656 0a5d 50       		.byte	0x50
 4657 0a5e 5F010000 		.4byte	.LVL77-1
 4658 0a62 62010000 		.4byte	.LVL78
 4659 0a66 0400     		.2byte	0x4
 4660 0a68 91       		.byte	0x91
 4661 0a69 907B     		.sleb128 -624
 4662 0a6b 9F       		.byte	0x9f
 4663 0a6c 00000000 		.4byte	0
 4664 0a70 00000000 		.4byte	0
 4665              	.LLST33:
 4666 0a74 32010000 		.4byte	.LVL70
 4667 0a78 3A010000 		.4byte	.LVL71
 4668 0a7c 0100     		.2byte	0x1
 4669 0a7e 50       		.byte	0x50
 4670 0a7f 3A010000 		.4byte	.LVL71
 4671 0a83 3E010000 		.4byte	.LVL72
 4672 0a87 0400     		.2byte	0x4
 4673 0a89 74       		.byte	0x74
 4674 0a8a 00       		.sleb128 0
 4675 0a8b 1F       		.byte	0x1f
 4676 0a8c 9F       		.byte	0x9f
 4677 0a8d 00000000 		.4byte	0
 4678 0a91 00000000 		.4byte	0
 4679              	.LLST34:
 4680 0a95 00000000 		.4byte	.LFB35
 4681 0a99 04000000 		.4byte	.LCFI4
 4682 0a9d 0200     		.2byte	0x2
 4683 0a9f 7D       		.byte	0x7d
 4684 0aa0 00       		.sleb128 0
 4685 0aa1 04000000 		.4byte	.LCFI4
 4686 0aa5 5C000000 		.4byte	.LFE35
 4687 0aa9 0200     		.2byte	0x2
 4688 0aab 7D       		.byte	0x7d
 4689 0aac 08       		.sleb128 8
 4690 0aad 00000000 		.4byte	0
 4691 0ab1 00000000 		.4byte	0
 4692              	.LLST35:
 4693 0ab5 1E000000 		.4byte	.LVL128
 4694 0ab9 20000000 		.4byte	.LVL129
 4695 0abd 0700     		.2byte	0x7
 4696 0abf 72       		.byte	0x72
ARM GAS  C:\Users\vrnk\AppData\Local\Temp\ccnz7Ubz.s 			page 113


 4697 0ac0 00       		.sleb128 0
 4698 0ac1 74       		.byte	0x74
 4699 0ac2 00       		.sleb128 0
 4700 0ac3 1C       		.byte	0x1c
 4701 0ac4 1F       		.byte	0x1f
 4702 0ac5 9F       		.byte	0x9f
 4703 0ac6 00000000 		.4byte	0
 4704 0aca 00000000 		.4byte	0
 4705              	.LLST36:
 4706 0ace 34000000 		.4byte	.LVL131
 4707 0ad2 49000000 		.4byte	.LVL132-1
 4708 0ad6 0100     		.2byte	0x1
 4709 0ad8 50       		.byte	0x50
 4710 0ad9 4A000000 		.4byte	.LVL132
 4711 0add 4C000000 		.4byte	.LVL133
 4712 0ae1 0100     		.2byte	0x1
 4713 0ae3 50       		.byte	0x50
 4714 0ae4 00000000 		.4byte	0
 4715 0ae8 00000000 		.4byte	0
 4716              	.LLST37:
 4717 0aec 0A000000 		.4byte	.LVL124
 4718 0af0 0C000000 		.4byte	.LVL125
 4719 0af4 0400     		.2byte	0x4
 4720 0af6 71       		.byte	0x71
 4721 0af7 C07E     		.sleb128 -192
 4722 0af9 9F       		.byte	0x9f
 4723 0afa 00000000 		.4byte	0
 4724 0afe 00000000 		.4byte	0
 4725              	.LLST38:
 4726 0b02 0A000000 		.4byte	.LVL124
 4727 0b06 0C000000 		.4byte	.LVL125
 4728 0b0a 0200     		.2byte	0x2
 4729 0b0c 30       		.byte	0x30
 4730 0b0d 9F       		.byte	0x9f
 4731 0b0e 0C000000 		.4byte	.LVL125
 4732 0b12 16000000 		.4byte	.LVL126
 4733 0b16 0100     		.2byte	0x1
 4734 0b18 52       		.byte	0x52
 4735 0b19 18000000 		.4byte	.LVL127
 4736 0b1d 20000000 		.4byte	.LVL129
 4737 0b21 0100     		.2byte	0x1
 4738 0b23 52       		.byte	0x52
 4739 0b24 00000000 		.4byte	0
 4740 0b28 00000000 		.4byte	0
 4741              	.LLST39:
 4742 0b2c 00000000 		.4byte	.LFB37
 4743 0b30 02000000 		.4byte	.LCFI5
 4744 0b34 0200     		.2byte	0x2
 4745 0b36 7D       		.byte	0x7d
 4746 0b37 00       		.sleb128 0
 4747 0b38 02000000 		.4byte	.LCFI5
 4748 0b3c 38000000 		.4byte	.LFE37
 4749 0b40 0200     		.2byte	0x2
 4750 0b42 7D       		.byte	0x7d
 4751 0b43 08       		.sleb128 8
 4752 0b44 00000000 		.4byte	0
 4753 0b48 00000000 		.4byte	0
ARM GAS  C:\Users\vrnk\AppData\Local\Temp\ccnz7Ubz.s 			page 114


 4754              	.LLST40:
 4755 0b4c 00000000 		.4byte	.LFB42
 4756 0b50 02000000 		.4byte	.LCFI6
 4757 0b54 0200     		.2byte	0x2
 4758 0b56 7D       		.byte	0x7d
 4759 0b57 00       		.sleb128 0
 4760 0b58 02000000 		.4byte	.LCFI6
 4761 0b5c 0E000000 		.4byte	.LCFI7
 4762 0b60 0200     		.2byte	0x2
 4763 0b62 7D       		.byte	0x7d
 4764 0b63 10       		.sleb128 16
 4765 0b64 0E000000 		.4byte	.LCFI7
 4766 0b68 2E000000 		.4byte	.LFE42
 4767 0b6c 0300     		.2byte	0x3
 4768 0b6e 7D       		.byte	0x7d
 4769 0b6f 9001     		.sleb128 144
 4770 0b71 00000000 		.4byte	0
 4771 0b75 00000000 		.4byte	0
 4772              	.LLST41:
 4773 0b79 00000000 		.4byte	.LVL138
 4774 0b7d 08000000 		.4byte	.LVL139
 4775 0b81 0100     		.2byte	0x1
 4776 0b83 50       		.byte	0x50
 4777 0b84 08000000 		.4byte	.LVL139
 4778 0b88 22000000 		.4byte	.LVL143
 4779 0b8c 0100     		.2byte	0x1
 4780 0b8e 52       		.byte	0x52
 4781 0b8f 22000000 		.4byte	.LVL143
 4782 0b93 2E000000 		.4byte	.LFE42
 4783 0b97 0400     		.2byte	0x4
 4784 0b99 F3       		.byte	0xf3
 4785 0b9a 01       		.uleb128 0x1
 4786 0b9b 50       		.byte	0x50
 4787 0b9c 9F       		.byte	0x9f
 4788 0b9d 00000000 		.4byte	0
 4789 0ba1 00000000 		.4byte	0
 4790              	.LLST42:
 4791 0ba5 00000000 		.4byte	.LVL138
 4792 0ba9 26000000 		.4byte	.LVL144
 4793 0bad 0100     		.2byte	0x1
 4794 0baf 51       		.byte	0x51
 4795 0bb0 26000000 		.4byte	.LVL144
 4796 0bb4 29000000 		.4byte	.LVL145-1
 4797 0bb8 0500     		.2byte	0x5
 4798 0bba 71       		.byte	0x71
 4799 0bbb 00       		.sleb128 0
 4800 0bbc 72       		.byte	0x72
 4801 0bbd 00       		.sleb128 0
 4802 0bbe 22       		.byte	0x22
 4803 0bbf 29000000 		.4byte	.LVL145-1
 4804 0bc3 2E000000 		.4byte	.LFE42
 4805 0bc7 0400     		.2byte	0x4
 4806 0bc9 F3       		.byte	0xf3
 4807 0bca 01       		.uleb128 0x1
 4808 0bcb 51       		.byte	0x51
 4809 0bcc 9F       		.byte	0x9f
 4810 0bcd 00000000 		.4byte	0
ARM GAS  C:\Users\vrnk\AppData\Local\Temp\ccnz7Ubz.s 			page 115


 4811 0bd1 00000000 		.4byte	0
 4812              	.LLST44:
 4813 0bd5 10000000 		.4byte	.LVL140
 4814 0bd9 29000000 		.4byte	.LVL145-1
 4815 0bdd 0100     		.2byte	0x1
 4816 0bdf 50       		.byte	0x50
 4817 0be0 29000000 		.4byte	.LVL145-1
 4818 0be4 2E000000 		.4byte	.LFE42
 4819 0be8 0800     		.2byte	0x8
 4820 0bea F3       		.byte	0xf3
 4821 0beb 01       		.uleb128 0x1
 4822 0bec 50       		.byte	0x50
 4823 0bed 41       		.byte	0x41
 4824 0bee 24       		.byte	0x24
 4825 0bef 48       		.byte	0x48
 4826 0bf0 25       		.byte	0x25
 4827 0bf1 9F       		.byte	0x9f
 4828 0bf2 00000000 		.4byte	0
 4829 0bf6 00000000 		.4byte	0
 4830              	.LLST45:
 4831 0bfa 10000000 		.4byte	.LVL140
 4832 0bfe 20000000 		.4byte	.LVL142
 4833 0c02 0100     		.2byte	0x1
 4834 0c04 55       		.byte	0x55
 4835 0c05 20000000 		.4byte	.LVL142
 4836 0c09 22000000 		.4byte	.LVL143
 4837 0c0d 0700     		.2byte	0x7
 4838 0c0f 75       		.byte	0x75
 4839 0c10 00       		.sleb128 0
 4840 0c11 20       		.byte	0x20
 4841 0c12 72       		.byte	0x72
 4842 0c13 00       		.sleb128 0
 4843 0c14 1A       		.byte	0x1a
 4844 0c15 9F       		.byte	0x9f
 4845 0c16 22000000 		.4byte	.LVL143
 4846 0c1a 2C000000 		.4byte	.LVL146
 4847 0c1e 0800     		.2byte	0x8
 4848 0c20 75       		.byte	0x75
 4849 0c21 00       		.sleb128 0
 4850 0c22 20       		.byte	0x20
 4851 0c23 F3       		.byte	0xf3
 4852 0c24 01       		.uleb128 0x1
 4853 0c25 50       		.byte	0x50
 4854 0c26 1A       		.byte	0x1a
 4855 0c27 9F       		.byte	0x9f
 4856 0c28 2C000000 		.4byte	.LVL146
 4857 0c2c 2E000000 		.4byte	.LFE42
 4858 0c30 0700     		.2byte	0x7
 4859 0c32 F3       		.byte	0xf3
 4860 0c33 01       		.uleb128 0x1
 4861 0c34 50       		.byte	0x50
 4862 0c35 09       		.byte	0x9
 4863 0c36 80       		.byte	0x80
 4864 0c37 1A       		.byte	0x1a
 4865 0c38 9F       		.byte	0x9f
 4866 0c39 00000000 		.4byte	0
 4867 0c3d 00000000 		.4byte	0
ARM GAS  C:\Users\vrnk\AppData\Local\Temp\ccnz7Ubz.s 			page 116


 4868              	.LLST46:
 4869 0c41 10000000 		.4byte	.LVL140
 4870 0c45 12000000 		.4byte	.LVL141
 4871 0c49 0200     		.2byte	0x2
 4872 0c4b 30       		.byte	0x30
 4873 0c4c 9F       		.byte	0x9f
 4874 0c4d 00000000 		.4byte	0
 4875 0c51 00000000 		.4byte	0
 4876              		.section	.debug_aranges,"",%progbits
 4877 0000 4C000000 		.4byte	0x4c
 4878 0004 0200     		.2byte	0x2
 4879 0006 00000000 		.4byte	.Ldebug_info0
 4880 000a 04       		.byte	0x4
 4881 000b 00       		.byte	0
 4882 000c 0000     		.2byte	0
 4883 000e 0000     		.2byte	0
 4884 0010 00000000 		.4byte	.LFB38
 4885 0014 02000000 		.4byte	.LFE38-.LFB38
 4886 0018 00000000 		.4byte	.LFB44
 4887 001c 90000000 		.4byte	.LFE44-.LFB44
 4888 0020 00000000 		.4byte	.LFB45
 4889 0024 58000000 		.4byte	.LFE45-.LFB45
 4890 0028 00000000 		.4byte	.LFB46
 4891 002c B8020000 		.4byte	.LFE46-.LFB46
 4892 0030 00000000 		.4byte	.LFB35
 4893 0034 5C000000 		.4byte	.LFE35-.LFB35
 4894 0038 00000000 		.4byte	.LFB37
 4895 003c 38000000 		.4byte	.LFE37-.LFB37
 4896 0040 00000000 		.4byte	.LFB42
 4897 0044 2E000000 		.4byte	.LFE42-.LFB42
 4898 0048 00000000 		.4byte	0
 4899 004c 00000000 		.4byte	0
 4900              		.section	.debug_ranges,"",%progbits
 4901              	.Ldebug_ranges0:
 4902 0000 10000000 		.4byte	.LBB22
 4903 0004 12000000 		.4byte	.LBE22
 4904 0008 90000000 		.4byte	.LBB33
 4905 000c 00010000 		.4byte	.LBE33
 4906 0010 62010000 		.4byte	.LBB38
 4907 0014 B8020000 		.4byte	.LBE38
 4908 0018 00000000 		.4byte	0
 4909 001c 00000000 		.4byte	0
 4910 0020 64000000 		.4byte	.LBB29
 4911 0024 7C000000 		.4byte	.LBE29
 4912 0028 7E000000 		.4byte	.LBB32
 4913 002c 80000000 		.4byte	.LBE32
 4914 0030 00000000 		.4byte	0
 4915 0034 00000000 		.4byte	0
 4916 0038 64000000 		.4byte	.LBB30
 4917 003c 7C000000 		.4byte	.LBE30
 4918 0040 7E000000 		.4byte	.LBB31
 4919 0044 80000000 		.4byte	.LBE31
 4920 0048 00000000 		.4byte	0
 4921 004c 00000000 		.4byte	0
 4922 0050 4A000000 		.4byte	.LBB45
 4923 0054 4E000000 		.4byte	.LBE45
 4924 0058 4E000000 		.4byte	.LBB48
ARM GAS  C:\Users\vrnk\AppData\Local\Temp\ccnz7Ubz.s 			page 117


 4925 005c 52000000 		.4byte	.LBE48
 4926 0060 00000000 		.4byte	0
 4927 0064 00000000 		.4byte	0
 4928 0068 00000000 		.4byte	.LFB38
 4929 006c 02000000 		.4byte	.LFE38
 4930 0070 00000000 		.4byte	.LFB44
 4931 0074 90000000 		.4byte	.LFE44
 4932 0078 00000000 		.4byte	.LFB45
 4933 007c 58000000 		.4byte	.LFE45
 4934 0080 00000000 		.4byte	.LFB46
 4935 0084 B8020000 		.4byte	.LFE46
 4936 0088 00000000 		.4byte	.LFB35
 4937 008c 5C000000 		.4byte	.LFE35
 4938 0090 00000000 		.4byte	.LFB37
 4939 0094 38000000 		.4byte	.LFE37
 4940 0098 00000000 		.4byte	.LFB42
 4941 009c 2E000000 		.4byte	.LFE42
 4942 00a0 00000000 		.4byte	0
 4943 00a4 00000000 		.4byte	0
 4944              		.section	.debug_line,"",%progbits
 4945              	.Ldebug_line0:
 4946 0000 DA020000 		.section	.debug_str,"MS",%progbits,1
 4946      02008500 
 4946      00000201 
 4946      FB0E0D00 
 4946      01010101 
 4947              	.LASF41:
 4948 0000 74696D65 		.ascii	"timeOutCnt\000"
 4948      4F757443 
 4948      6E7400
 4949              	.LASF32:
 4950 000b 63757242 		.ascii	"curByte\000"
 4950      79746500 
 4951              	.LASF10:
 4952 0013 75696E74 		.ascii	"uint16\000"
 4952      313600
 4953              	.LASF69:
 4954 001a 62617365 		.ascii	"baseAddr\000"
 4954      41646472 
 4954      00
 4955              	.LASF46:
 4956 0023 62746C64 		.ascii	"btldrData\000"
 4956      72446174 
 4956      6100
 4957              	.LASF35:
 4958 002d 72737053 		.ascii	"rspSize\000"
 4958      697A6500 
 4959              	.LASF52:
 4960 0035 63686563 		.ascii	"checksum\000"
 4960      6B73756D 
 4960      00
 4961              	.LASF43:
 4962 003e 636F6D6D 		.ascii	"communicationState\000"
 4962      756E6963 
 4962      6174696F 
 4962      6E537461 
 4962      746500
ARM GAS  C:\Users\vrnk\AppData\Local\Temp\ccnz7Ubz.s 			page 118


 4963              	.LASF44:
 4964 0051 7061636B 		.ascii	"packetBuffer\000"
 4964      65744275 
 4964      66666572 
 4964      00
 4965              	.LASF50:
 4966 005e 726F774E 		.ascii	"rowNum\000"
 4966      756D00
 4967              	.LASF7:
 4968 0065 6C6F6E67 		.ascii	"long long unsigned int\000"
 4968      206C6F6E 
 4968      6720756E 
 4968      7369676E 
 4968      65642069 
 4969              	.LASF31:
 4970 007c 63616C63 		.ascii	"calcedChecksum\000"
 4970      65644368 
 4970      65636B73 
 4970      756D00
 4971              	.LASF60:
 4972 008b 746D7053 		.ascii	"tmpStatus\000"
 4972      74617475 
 4972      7300
 4973              	.LASF74:
 4974 0095 63794274 		.ascii	"cyBtldrRunType\000"
 4974      6C647252 
 4974      756E5479 
 4974      706500
 4975              	.LASF61:
 4976 00a4 426F6F74 		.ascii	"Bootloader_Start\000"
 4976      6C6F6164 
 4976      65725F53 
 4976      74617274 
 4976      00
 4977              	.LASF80:
 4978 00b5 4379536F 		.ascii	"CySoftwareReset\000"
 4978      66747761 
 4978      72655265 
 4978      73657400 
 4979              	.LASF58:
 4980 00c5 426F6F74 		.ascii	"Bootloader_WritePacket\000"
 4980      6C6F6164 
 4980      65725F57 
 4980      72697465 
 4980      5061636B 
 4981              	.LASF47:
 4982 00dc 73746172 		.ascii	"startRow\000"
 4982      74526F77 
 4982      00
 4983              	.LASF6:
 4984 00e5 6C6F6E67 		.ascii	"long long int\000"
 4984      206C6F6E 
 4984      6720696E 
 4984      7400
 4985              	.LASF0:
 4986 00f3 7369676E 		.ascii	"signed char\000"
 4986      65642063 
ARM GAS  C:\Users\vrnk\AppData\Local\Temp\ccnz7Ubz.s 			page 119


 4986      68617200 
 4987              	.LASF59:
 4988 00ff 73746174 		.ascii	"status\000"
 4988      757300
 4989              	.LASF36:
 4990 0106 61636B43 		.ascii	"ackCode\000"
 4990      6F646500 
 4991              	.LASF55:
 4992 010e 73697A65 		.ascii	"size\000"
 4992      00
 4993              	.LASF48:
 4994 0113 65726173 		.ascii	"erase\000"
 4994      6500
 4995              	.LASF34:
 4996 0119 6E756D62 		.ascii	"numberRead\000"
 4996      65725265 
 4996      616400
 4997              	.LASF4:
 4998 0124 6C6F6E67 		.ascii	"long int\000"
 4998      20696E74 
 4998      00
 4999              	.LASF79:
 5000 012d 43794274 		.ascii	"CyBtldrCommWrite\000"
 5000      6C647243 
 5000      6F6D6D57 
 5000      72697465 
 5000      00
 5001              	.LASF77:
 5002 013e 6D656D63 		.ascii	"memcpy\000"
 5002      707900
 5003              	.LASF9:
 5004 0145 75696E74 		.ascii	"uint8\000"
 5004      3800
 5005              	.LASF13:
 5006 014b 646F7562 		.ascii	"double\000"
 5006      6C6500
 5007              	.LASF38:
 5008 0152 72656164 		.ascii	"readStat\000"
 5008      53746174 
 5008      00
 5009              	.LASF11:
 5010 015b 75696E74 		.ascii	"uint32\000"
 5010      333200
 5011              	.LASF28:
 5012 0162 426F6F74 		.ascii	"Bootloader_GetMetadata\000"
 5012      6C6F6164 
 5012      65725F47 
 5012      65744D65 
 5012      74616461 
 5013              	.LASF86:
 5014 0179 426F6F74 		.ascii	"Bootloader_HostLink\000"
 5014      6C6F6164 
 5014      65725F48 
 5014      6F73744C 
 5014      696E6B00 
 5015              	.LASF62:
 5016 018d 43794274 		.ascii	"CyBtldr_CheckLaunch\000"
ARM GAS  C:\Users\vrnk\AppData\Local\Temp\ccnz7Ubz.s 			page 120


 5016      6C64725F 
 5016      43686563 
 5016      6B4C6175 
 5016      6E636800 
 5017              	.LASF45:
 5018 01a1 64617461 		.ascii	"dataBuffer\000"
 5018      42756666 
 5018      657200
 5019              	.LASF40:
 5020 01ac 64617461 		.ascii	"dataOffset\000"
 5020      4F666673 
 5020      657400
 5021              	.LASF8:
 5022 01b7 756E7369 		.ascii	"unsigned int\000"
 5022      676E6564 
 5022      20696E74 
 5022      00
 5023              	.LASF64:
 5024 01c4 61707041 		.ascii	"appAddr\000"
 5024      64647200 
 5025              	.LASF63:
 5026 01cc 426F6F74 		.ascii	"Bootloader_SetFlashByte\000"
 5026      6C6F6164 
 5026      65725F53 
 5026      6574466C 
 5026      61736842 
 5027              	.LASF5:
 5028 01e4 6C6F6E67 		.ascii	"long unsigned int\000"
 5028      20756E73 
 5028      69676E65 
 5028      6420696E 
 5028      7400
 5029              	.LASF53:
 5030 01f6 426F6F74 		.ascii	"Bootloader_CalcPacketChecksum\000"
 5030      6C6F6164 
 5030      65725F43 
 5030      616C6350 
 5030      61636B65 
 5031              	.LASF87:
 5032 0214 426F6F74 		.ascii	"Bootloader_LaunchBootloadable\000"
 5032      6C6F6164 
 5032      65725F4C 
 5032      61756E63 
 5032      68426F6F 
 5033              	.LASF3:
 5034 0232 73686F72 		.ascii	"short unsigned int\000"
 5034      7420756E 
 5034      7369676E 
 5034      65642069 
 5034      6E7400
 5035              	.LASF85:
 5036 0245 433A5C55 		.ascii	"C:\\Users\\vrnk\\Desktop\\ES100 FW -049\\FW\\SCB_Bo"
 5036      73657273 
 5036      5C76726E 
 5036      6B5C4465 
 5036      736B746F 
 5037 0272 6F746C6F 		.ascii	"otloader_42xx\\UART_Bootloader.cydsn\000"
ARM GAS  C:\Users\vrnk\AppData\Local\Temp\ccnz7Ubz.s 			page 121


 5037      61646572 
 5037      5F343278 
 5037      785C5541 
 5037      52545F42 
 5038              	.LASF33:
 5039 0296 74696D65 		.ascii	"timeOut\000"
 5039      4F757400 
 5040              	.LASF49:
 5041 029e 42746C64 		.ascii	"BtldrVersion\000"
 5041      72566572 
 5041      73696F6E 
 5041      00
 5042              	.LASF88:
 5043 02ab 426F6F74 		.ascii	"Bootloader_LaunchApplication\000"
 5043      6C6F6164 
 5043      65725F4C 
 5043      61756E63 
 5043      68417070 
 5044              	.LASF17:
 5045 02c8 72656733 		.ascii	"reg32\000"
 5045      3200
 5046              	.LASF21:
 5047 02ce 73697A65 		.ascii	"sizetype\000"
 5047      74797065 
 5047      00
 5048              	.LASF26:
 5049 02d7 6669656C 		.ascii	"fieldSize\000"
 5049      6453697A 
 5049      6500
 5050              	.LASF65:
 5051 02e1 61646472 		.ascii	"address\000"
 5051      65737300 
 5052              	.LASF22:
 5053 02e9 426F6F74 		.ascii	"Bootloader_ENTER\000"
 5053      6C6F6164 
 5053      65725F45 
 5053      4E544552 
 5053      00
 5054              	.LASF25:
 5055 02fa 6669656C 		.ascii	"fieldPtr\000"
 5055      64507472 
 5055      00
 5056              	.LASF12:
 5057 0303 666C6F61 		.ascii	"float\000"
 5057      7400
 5058              	.LASF72:
 5059 0309 426F6F74 		.ascii	"Bootloader_SizeBytes\000"
 5059      6C6F6164 
 5059      65725F53 
 5059      697A6542 
 5059      79746573 
 5060              	.LASF83:
 5061 031e 474E5520 		.ascii	"GNU C 4.7.3 20130312 (release) [ARM/embedded-4_7-br"
 5061      4320342E 
 5061      372E3320 
 5061      32303133 
 5061      30333132 
ARM GAS  C:\Users\vrnk\AppData\Local\Temp\ccnz7Ubz.s 			page 122


 5062 0351 616E6368 		.ascii	"anch revision 196615]\000"
 5062      20726576 
 5062      6973696F 
 5062      6E203139 
 5062      36363135 
 5063              	.LASF16:
 5064 0367 72656738 		.ascii	"reg8\000"
 5064      00
 5065              	.LASF24:
 5066 036c 61707049 		.ascii	"appId\000"
 5066      6400
 5067              	.LASF1:
 5068 0372 756E7369 		.ascii	"unsigned char\000"
 5068      676E6564 
 5068      20636861 
 5068      7200
 5069              	.LASF82:
 5070 0380 43794274 		.ascii	"CyBtldrCommRead\000"
 5070      6C647243 
 5070      6F6D6D52 
 5070      65616400 
 5071              	.LASF66:
 5072 0390 72756E54 		.ascii	"runType\000"
 5072      79706500 
 5073              	.LASF51:
 5074 0398 726F7741 		.ascii	"rowAddr\000"
 5074      64647200 
 5075              	.LASF2:
 5076 03a0 73686F72 		.ascii	"short int\000"
 5076      7420696E 
 5076      7400
 5077              	.LASF81:
 5078 03aa 43794274 		.ascii	"CyBtldrCommStart\000"
 5078      6C647243 
 5078      6F6D6D53 
 5078      74617274 
 5078      00
 5079              	.LASF30:
 5080 03bb 76616C69 		.ascii	"valid\000"
 5080      6400
 5081              	.LASF29:
 5082 03c1 426F6F74 		.ascii	"Bootloader_ValidateBootloadable\000"
 5082      6C6F6164 
 5082      65725F56 
 5082      616C6964 
 5082      61746542 
 5083              	.LASF73:
 5084 03e1 426F6F74 		.ascii	"Bootloader_SizeBytesAccess\000"
 5084      6C6F6164 
 5084      65725F53 
 5084      697A6542 
 5084      79746573 
 5085              	.LASF14:
 5086 03fc 63686172 		.ascii	"char\000"
 5086      00
 5087              	.LASF37:
 5088 0401 706B7443 		.ascii	"pktChecksum\000"
ARM GAS  C:\Users\vrnk\AppData\Local\Temp\ccnz7Ubz.s 			page 123


 5088      6865636B 
 5088      73756D00 
 5089              	.LASF54:
 5090 040d 62756666 		.ascii	"buffer\000"
 5090      657200
 5091              	.LASF23:
 5092 0414 6669656C 		.ascii	"fieldName\000"
 5092      644E616D 
 5092      6500
 5093              	.LASF19:
 5094 041e 52657669 		.ascii	"Revision\000"
 5094      73696F6E 
 5094      00
 5095              	.LASF71:
 5096 0427 426F6F74 		.ascii	"Bootloader_ChecksumAccess\000"
 5096      6C6F6164 
 5096      65725F43 
 5096      6865636B 
 5096      73756D41 
 5097              	.LASF18:
 5098 0441 53696C69 		.ascii	"SiliconId\000"
 5098      636F6E49 
 5098      6400
 5099              	.LASF76:
 5100 044b 6D656D73 		.ascii	"memset\000"
 5100      657400
 5101              	.LASF56:
 5102 0452 426F6F74 		.ascii	"Bootloader_Calc8BitFlashSum\000"
 5102      6C6F6164 
 5102      65725F43 
 5102      616C6338 
 5102      42697446 
 5103              	.LASF20:
 5104 046e 426F6F74 		.ascii	"BootLoaderVersion\000"
 5104      4C6F6164 
 5104      65725665 
 5104      7273696F 
 5104      6E00
 5105              	.LASF78:
 5106 0480 43795379 		.ascii	"CySysFlashWriteRow\000"
 5106      73466C61 
 5106      73685772 
 5106      69746552 
 5106      6F7700
 5107              	.LASF67:
 5108 0493 666C7341 		.ascii	"flsAddr\000"
 5108      64647200 
 5109              	.LASF15:
 5110 049b 63797374 		.ascii	"cystatus\000"
 5110      61747573 
 5110      00
 5111              	.LASF39:
 5112 04a4 706B7453 		.ascii	"pktSize\000"
 5112      697A6500 
 5113              	.LASF68:
 5114 04ac 726F7744 		.ascii	"rowData\000"
 5114      61746100 
ARM GAS  C:\Users\vrnk\AppData\Local\Temp\ccnz7Ubz.s 			page 124


 5115              	.LASF42:
 5116 04b4 636C6561 		.ascii	"clearedMetaData\000"
 5116      7265644D 
 5116      65746144 
 5116      61746100 
 5117              	.LASF57:
 5118 04c4 73746172 		.ascii	"start\000"
 5118      7400
 5119              	.LASF84:
 5120 04ca 2E5C4765 		.ascii	".\\Generated_Source\\PSoC4\\Bootloader.c\000"
 5120      6E657261 
 5120      7465645F 
 5120      536F7572 
 5120      63655C50 
 5121              	.LASF75:
 5122 04f0 43794861 		.ascii	"CyHalt\000"
 5122      6C7400
 5123              	.LASF27:
 5124 04f7 72657375 		.ascii	"result\000"
 5124      6C7400
 5125              	.LASF70:
 5126 04fe 426F6F74 		.ascii	"Bootloader_Checksum\000"
 5126      6C6F6164 
 5126      65725F43 
 5126      6865636B 
 5126      73756D00 
 5127              		.ident	"GCC: (GNU Tools for ARM Embedded Processors) 4.7.3 20130312 (release) [ARM/embedded-4_7-br
