ARM GAS  C:\Users\vrnk\AppData\Local\Temp\ccpl2bp6.s 			page 1


   1              		.cpu cortex-m0
   2              		.fpu softvfp
   3              		.eabi_attribute 20, 1
   4              		.eabi_attribute 21, 1
   5              		.eabi_attribute 23, 3
   6              		.eabi_attribute 24, 1
   7              		.eabi_attribute 25, 1
   8              		.eabi_attribute 26, 1
   9              		.eabi_attribute 30, 4
  10              		.eabi_attribute 34, 0
  11              		.eabi_attribute 18, 4
  12              		.code	16
  13              		.file	"CyFlash.c"
  14              		.text
  15              	.Ltext0:
  16              		.cfi_sections	.debug_frame
  17              		.section	.text.CySysFlashWriteRow,"ax",%progbits
  18              		.align	1
  19              		.global	CySysFlashWriteRow
  20              		.code	16
  21              		.thumb_func
  22              		.type	CySysFlashWriteRow, %function
  23              	CySysFlashWriteRow:
  24              	.LFB0:
  25              		.file 1 ".\\Generated_Source\\PSoC4\\CyFlash.c"
   1:.\Generated_Source\PSoC4/CyFlash.c **** /*******************************************************************************
   2:.\Generated_Source\PSoC4/CyFlash.c **** * File Name: CyFlash.c
   3:.\Generated_Source\PSoC4/CyFlash.c **** * Version 4.0
   4:.\Generated_Source\PSoC4/CyFlash.c **** *
   5:.\Generated_Source\PSoC4/CyFlash.c **** *  Description:
   6:.\Generated_Source\PSoC4/CyFlash.c **** *   Provides an API for the FLASH.
   7:.\Generated_Source\PSoC4/CyFlash.c **** *
   8:.\Generated_Source\PSoC4/CyFlash.c **** *  Note:
   9:.\Generated_Source\PSoC4/CyFlash.c **** *   This code is endian agnostic.
  10:.\Generated_Source\PSoC4/CyFlash.c **** *
  11:.\Generated_Source\PSoC4/CyFlash.c **** *  Note:
  12:.\Generated_Source\PSoC4/CyFlash.c **** *   Documentation of the API's in this file is located in the
  13:.\Generated_Source\PSoC4/CyFlash.c **** *   System Reference Guide provided with PSoC Creator.
  14:.\Generated_Source\PSoC4/CyFlash.c **** *
  15:.\Generated_Source\PSoC4/CyFlash.c **** ********************************************************************************
  16:.\Generated_Source\PSoC4/CyFlash.c **** * Copyright 2010-2013, Cypress Semiconductor Corporation.  All rights reserved.
  17:.\Generated_Source\PSoC4/CyFlash.c **** * You may use this file only in accordance with the license, terms, conditions,
  18:.\Generated_Source\PSoC4/CyFlash.c **** * disclaimers, and limitations in the end user license agreement accompanying
  19:.\Generated_Source\PSoC4/CyFlash.c **** * the software package with which this file was provided.
  20:.\Generated_Source\PSoC4/CyFlash.c **** *******************************************************************************/
  21:.\Generated_Source\PSoC4/CyFlash.c **** 
  22:.\Generated_Source\PSoC4/CyFlash.c **** #include "CyFlash.h"
  23:.\Generated_Source\PSoC4/CyFlash.c **** 
  24:.\Generated_Source\PSoC4/CyFlash.c **** 
  25:.\Generated_Source\PSoC4/CyFlash.c **** /*******************************************************************************
  26:.\Generated_Source\PSoC4/CyFlash.c **** * Function Name: CySysFlashWriteRow
  27:.\Generated_Source\PSoC4/CyFlash.c **** ********************************************************************************
  28:.\Generated_Source\PSoC4/CyFlash.c **** *
  29:.\Generated_Source\PSoC4/CyFlash.c **** * Summary:
  30:.\Generated_Source\PSoC4/CyFlash.c **** *  Writes a row of Flash.
  31:.\Generated_Source\PSoC4/CyFlash.c **** *
  32:.\Generated_Source\PSoC4/CyFlash.c **** * Parameters:
ARM GAS  C:\Users\vrnk\AppData\Local\Temp\ccpl2bp6.s 			page 2


  33:.\Generated_Source\PSoC4/CyFlash.c **** *  uint16 rowNum:
  34:.\Generated_Source\PSoC4/CyFlash.c **** *   Row number. Each row is 128 bytes so a 32KB flash memory will have a valid
  35:.\Generated_Source\PSoC4/CyFlash.c **** *   range of [0-255].
  36:.\Generated_Source\PSoC4/CyFlash.c **** *
  37:.\Generated_Source\PSoC4/CyFlash.c **** *  uint8* rowData:
  38:.\Generated_Source\PSoC4/CyFlash.c **** *   Array of bytes to write.
  39:.\Generated_Source\PSoC4/CyFlash.c **** *
  40:.\Generated_Source\PSoC4/CyFlash.c **** * Return:
  41:.\Generated_Source\PSoC4/CyFlash.c **** *  Status
  42:.\Generated_Source\PSoC4/CyFlash.c **** *     Value             Description
  43:.\Generated_Source\PSoC4/CyFlash.c **** *    CYRET_SUCCESS     Successful
  44:.\Generated_Source\PSoC4/CyFlash.c **** *    CYRET_LOCKED      Flash writing already in use
  45:.\Generated_Source\PSoC4/CyFlash.c **** *    CYRET_CANCELED    Command not accepted
  46:.\Generated_Source\PSoC4/CyFlash.c **** *    CYRET_BAD_PARAM   One or more invalid parameters
  47:.\Generated_Source\PSoC4/CyFlash.c **** *    Other non-zero    Failure
  48:.\Generated_Source\PSoC4/CyFlash.c **** *
  49:.\Generated_Source\PSoC4/CyFlash.c **** *******************************************************************************/
  50:.\Generated_Source\PSoC4/CyFlash.c **** cystatus CySysFlashWriteRow(uint32 rowNum, const uint8 rowData[])
  51:.\Generated_Source\PSoC4/CyFlash.c **** {
  26              		.loc 1 51 0
  27              		.cfi_startproc
  28              	.LVL0:
  29 0000 F0B5     		push	{r4, r5, r6, r7, lr}
  30              	.LCFI0:
  31              		.cfi_def_cfa_offset 20
  32              		.cfi_offset 4, -20
  33              		.cfi_offset 5, -16
  34              		.cfi_offset 6, -12
  35              		.cfi_offset 7, -8
  36              		.cfi_offset 14, -4
  52:.\Generated_Source\PSoC4/CyFlash.c ****     volatile cystatus retValue = CYRET_SUCCESS;
  37              		.loc 1 52 0
  38 0002 0023     		mov	r3, #0
  51:.\Generated_Source\PSoC4/CyFlash.c **** {
  39              		.loc 1 51 0
  40 0004 A7B0     		sub	sp, sp, #156
  41              	.LCFI1:
  42              		.cfi_def_cfa_offset 176
  51:.\Generated_Source\PSoC4/CyFlash.c **** {
  43              		.loc 1 51 0
  44 0006 071C     		mov	r7, r0
  45              		.loc 1 52 0
  46 0008 0193     		str	r3, [sp, #4]
  47              	.LVL1:
  53:.\Generated_Source\PSoC4/CyFlash.c ****     volatile uint32   *ptr;
  54:.\Generated_Source\PSoC4/CyFlash.c ****     volatile uint32   cpuValue;
  55:.\Generated_Source\PSoC4/CyFlash.c ****     volatile uint32   localData[(CY_FLASH_SIZEOF_ROW + CY_FLASH_SRAM_ROM_DATA)/4u];
  56:.\Generated_Source\PSoC4/CyFlash.c ****     uint8  interruptState;
  57:.\Generated_Source\PSoC4/CyFlash.c **** 
  58:.\Generated_Source\PSoC4/CyFlash.c ****     #if(CY_PSOC4A)
  59:.\Generated_Source\PSoC4/CyFlash.c ****         volatile uint32   imoConfigReg;
  60:.\Generated_Source\PSoC4/CyFlash.c ****     #endif
  61:.\Generated_Source\PSoC4/CyFlash.c **** 
  62:.\Generated_Source\PSoC4/CyFlash.c ****     if ((rowNum < CY_FLASH_NUMBER_ROWS) && (rowData != 0u))
  48              		.loc 1 62 0
  49 000a FF28     		cmp	r0, #255
  50 000c 45D8     		bhi	.L2
ARM GAS  C:\Users\vrnk\AppData\Local\Temp\ccpl2bp6.s 			page 3


  51              		.loc 1 62 0 is_stmt 0 discriminator 1
  52 000e 9942     		cmp	r1, r3
  53 0010 43D0     		beq	.L2
  54              	.LVL2:
  63:.\Generated_Source\PSoC4/CyFlash.c ****     {
  64:.\Generated_Source\PSoC4/CyFlash.c ****         /* First load the data. Then invoke Write row command. */
  65:.\Generated_Source\PSoC4/CyFlash.c ****         ptr = &localData[CY_FLASH_SRAM_ROM_KEY1];
  66:.\Generated_Source\PSoC4/CyFlash.c **** 
  67:.\Generated_Source\PSoC4/CyFlash.c ****         CY_FLASH_CPUSS_SYSARG_REG = (uint32)ptr;
  68:.\Generated_Source\PSoC4/CyFlash.c **** 
  69:.\Generated_Source\PSoC4/CyFlash.c ****         #if(CY_FLASH_NUMBER_ROWS > 255u)
  70:.\Generated_Source\PSoC4/CyFlash.c ****             localData[CY_FLASH_SRAM_ROM_KEY1] = CY_FLASH_SROM_LOAD_CMD | (uint32)((rowNum & 0x100u)
  55              		.loc 1 70 0 is_stmt 1
  56 0012 244A     		ldr	r2, .L21
  67:.\Generated_Source\PSoC4/CyFlash.c ****         CY_FLASH_CPUSS_SYSARG_REG = (uint32)ptr;
  57              		.loc 1 67 0
  58 0014 244C     		ldr	r4, .L21+4
  65:.\Generated_Source\PSoC4/CyFlash.c ****         ptr = &localData[CY_FLASH_SRAM_ROM_KEY1];
  59              		.loc 1 65 0
  60 0016 04AE     		add	r6, sp, #16
  61              	.LVL3:
  67:.\Generated_Source\PSoC4/CyFlash.c ****         CY_FLASH_CPUSS_SYSARG_REG = (uint32)ptr;
  62              		.loc 1 67 0
  63 0018 2660     		str	r6, [r4]
  71:.\Generated_Source\PSoC4/CyFlash.c ****         #else
  72:.\Generated_Source\PSoC4/CyFlash.c ****             localData[CY_FLASH_SRAM_ROM_KEY1] = CY_FLASH_SROM_LOAD_CMD;
  73:.\Generated_Source\PSoC4/CyFlash.c ****         #endif /* (CY_FLASH_SIZEOF_ROW > 255) */
  74:.\Generated_Source\PSoC4/CyFlash.c **** 
  75:.\Generated_Source\PSoC4/CyFlash.c ****         localData[CY_FLASH_SRAM_ROM_PARAM2/4u] = ((uint32)(CYDEV_FLS_ROW_SIZE - 1u));
  64              		.loc 1 75 0
  65 001a 7F25     		mov	r5, #127
  70:.\Generated_Source\PSoC4/CyFlash.c ****             localData[CY_FLASH_SRAM_ROM_KEY1] = CY_FLASH_SROM_LOAD_CMD | (uint32)((rowNum & 0x100u)
  66              		.loc 1 70 0
  67 001c 0492     		str	r2, [sp, #16]
  76:.\Generated_Source\PSoC4/CyFlash.c **** 
  77:.\Generated_Source\PSoC4/CyFlash.c ****         /* Copy row data from 8bit to 32bit array with shift for CPUSS commands */
  78:.\Generated_Source\PSoC4/CyFlash.c ****         (void)memcpy((void *)&localData[CY_FLASH_SRAM_ROM_DATA/4u], rowData, CYDEV_FLS_ROW_SIZE);
  68              		.loc 1 78 0
  69 001e 06A8     		add	r0, sp, #24
  70              	.LVL4:
  71 0020 8022     		mov	r2, #128
  75:.\Generated_Source\PSoC4/CyFlash.c ****         localData[CY_FLASH_SRAM_ROM_PARAM2/4u] = ((uint32)(CYDEV_FLS_ROW_SIZE - 1u));
  72              		.loc 1 75 0
  73 0022 7560     		str	r5, [r6, #4]
  74              		.loc 1 78 0
  75 0024 FFF7FEFF 		bl	memcpy
  76              	.LVL5:
  79:.\Generated_Source\PSoC4/CyFlash.c **** 
  80:.\Generated_Source\PSoC4/CyFlash.c ****         /* Perform sysreq load data, opcode 0x80000004h */
  81:.\Generated_Source\PSoC4/CyFlash.c ****         CY_FLASH_CPUSS_SYSREQ_REG = CY_FLASH_LOAD_BYTE_OPCODE | CY_FLASH_CPUSS_REQ_START;
  77              		.loc 1 81 0
  78 0028 204D     		ldr	r5, .L21+8
  79 002a 2149     		ldr	r1, .L21+12
  80 002c 2960     		str	r1, [r5]
  81              	.L3:
  82:.\Generated_Source\PSoC4/CyFlash.c **** 
  83:.\Generated_Source\PSoC4/CyFlash.c ****         while((CY_FLASH_CPUSS_SYSREQ_REG & CY_FLASH_CPUSS_REQ_START) == CY_FLASH_CPUSS_REQ_START)
ARM GAS  C:\Users\vrnk\AppData\Local\Temp\ccpl2bp6.s 			page 4


  82              		.loc 1 83 0 discriminator 1
  83 002e 2B68     		ldr	r3, [r5]
  84 0030 002B     		cmp	r3, #0
  85 0032 FCDB     		blt	.L3
  84:.\Generated_Source\PSoC4/CyFlash.c ****         {
  85:.\Generated_Source\PSoC4/CyFlash.c ****             /* Wait till the CY_FLASH_CPUSS_REQ_START bit goes low */
  86:.\Generated_Source\PSoC4/CyFlash.c ****         }
  87:.\Generated_Source\PSoC4/CyFlash.c **** 
  88:.\Generated_Source\PSoC4/CyFlash.c ****         /* Check if the value is written to the SRAM_BASE */
  89:.\Generated_Source\PSoC4/CyFlash.c ****         cpuValue = CY_FLASH_CPUSS_SYSARG_REG;
  86              		.loc 1 89 0
  87 0034 2068     		ldr	r0, [r4]
  88              	.LVL6:
  90:.\Generated_Source\PSoC4/CyFlash.c ****         if (cpuValue == CY_FLASH_SROM_CMD_RETURN_SUCC)
  89              		.loc 1 90 0
  90 0036 A021     		mov	r1, #160
  89:.\Generated_Source\PSoC4/CyFlash.c ****         cpuValue = CY_FLASH_CPUSS_SYSARG_REG;
  91              		.loc 1 89 0
  92 0038 0290     		str	r0, [sp, #8]
  93              		.loc 1 90 0
  94 003a 029A     		ldr	r2, [sp, #8]
  95 003c 0B06     		lsl	r3, r1, #24
  96 003e 9A42     		cmp	r2, r3
  97 0040 01D1     		bne	.L4
  91:.\Generated_Source\PSoC4/CyFlash.c ****         {
  92:.\Generated_Source\PSoC4/CyFlash.c ****             retValue = CYRET_SUCCESS;
  98              		.loc 1 92 0
  99 0042 0020     		mov	r0, #0
 100 0044 04E0     		b	.L18
 101              	.LVL7:
 102              	.L4:
  93:.\Generated_Source\PSoC4/CyFlash.c ****         }
  94:.\Generated_Source\PSoC4/CyFlash.c ****         else if((cpuValue & CY_FLASH_SROM_CMD_RETURN_MASK) == CY_FLASH_SROM_CMD_RETURN_MASK)
 103              		.loc 1 94 0
 104 0046 0298     		ldr	r0, [sp, #8]
 105 0048 020F     		lsr	r2, r0, #28
 106 004a 0F2A     		cmp	r2, #15
 107 004c 02D1     		bne	.L13
  95:.\Generated_Source\PSoC4/CyFlash.c ****         {
  96:.\Generated_Source\PSoC4/CyFlash.c ****             /* Error value, cant proceed */
  97:.\Generated_Source\PSoC4/CyFlash.c ****             retValue = CYRET_CANCELED;
 108              		.loc 1 97 0
 109 004e 0920     		mov	r0, #9
 110              	.L18:
 111 0050 0190     		str	r0, [sp, #4]
 112 0052 03E0     		b	.L5
 113              	.L13:
  98:.\Generated_Source\PSoC4/CyFlash.c ****         }
  99:.\Generated_Source\PSoC4/CyFlash.c ****         else
 100:.\Generated_Source\PSoC4/CyFlash.c ****         {
 101:.\Generated_Source\PSoC4/CyFlash.c ****             while((CY_FLASH_CPUSS_SYSARG_REG & CY_FLASH_SROM_CMD_RETURN_MASK) != CY_FLASH_SROM_CMD_
 114              		.loc 1 101 0
 115 0054 2168     		ldr	r1, [r4]
 116 0056 0B0F     		lsr	r3, r1, #28
 117 0058 0A2B     		cmp	r3, #10
 118 005a FBD1     		bne	.L13
 119              	.L5:
ARM GAS  C:\Users\vrnk\AppData\Local\Temp\ccpl2bp6.s 			page 5


 102:.\Generated_Source\PSoC4/CyFlash.c ****             {
 103:.\Generated_Source\PSoC4/CyFlash.c ****                 /* Wait till the request is completed */
 104:.\Generated_Source\PSoC4/CyFlash.c ****             }
 105:.\Generated_Source\PSoC4/CyFlash.c ****         }
 106:.\Generated_Source\PSoC4/CyFlash.c **** 
 107:.\Generated_Source\PSoC4/CyFlash.c ****         if(retValue == CYRET_SUCCESS)
 120              		.loc 1 107 0
 121 005c 019A     		ldr	r2, [sp, #4]
 122 005e 002A     		cmp	r2, #0
 123 0060 1DD1     		bne	.L8
 108:.\Generated_Source\PSoC4/CyFlash.c ****         {
 109:.\Generated_Source\PSoC4/CyFlash.c ****             ptr = &localData[CY_FLASH_SRAM_ROM_KEY1/4u];
 110:.\Generated_Source\PSoC4/CyFlash.c ****             CY_FLASH_CPUSS_SYSARG_REG = (uint32)ptr;
 124              		.loc 1 110 0
 125 0062 2660     		str	r6, [r4]
 111:.\Generated_Source\PSoC4/CyFlash.c **** 
 112:.\Generated_Source\PSoC4/CyFlash.c ****             /* Write row command to SROM */
 113:.\Generated_Source\PSoC4/CyFlash.c ****             localData[CY_FLASH_SRAM_ROM_KEY1/4u] =  (uint32)(rowNum << 16u) |
 114:.\Generated_Source\PSoC4/CyFlash.c ****                                                     (uint32)(CY_FLASH_SROM_KEY2_WRITE << 8u) |
 126              		.loc 1 114 0
 127 0064 134E     		ldr	r6, .L21+16
 128              	.LVL8:
 113:.\Generated_Source\PSoC4/CyFlash.c ****             localData[CY_FLASH_SRAM_ROM_KEY1/4u] =  (uint32)(rowNum << 16u) |
 129              		.loc 1 113 0
 130 0066 3F04     		lsl	r7, r7, #16
 131              	.LVL9:
 132              		.loc 1 114 0
 133 0068 3743     		orr	r7, r6
 113:.\Generated_Source\PSoC4/CyFlash.c ****             localData[CY_FLASH_SRAM_ROM_KEY1/4u] =  (uint32)(rowNum << 16u) |
 134              		.loc 1 113 0
 135 006a 0497     		str	r7, [sp, #16]
 115:.\Generated_Source\PSoC4/CyFlash.c ****                                                     CY_FLASH_SROM_KEY1;
 116:.\Generated_Source\PSoC4/CyFlash.c **** 
 117:.\Generated_Source\PSoC4/CyFlash.c ****             /* Mask all exceptions to guarantee that IMO configuration will be changed
 118:.\Generated_Source\PSoC4/CyFlash.c ****             * in the atomic way. It will not affect syscall execution (flash row write)
 119:.\Generated_Source\PSoC4/CyFlash.c ****             * since it is executed in the NMI context.
 120:.\Generated_Source\PSoC4/CyFlash.c ****             */
 121:.\Generated_Source\PSoC4/CyFlash.c ****             interruptState = CyEnterCriticalSection();
 136              		.loc 1 121 0
 137 006c FFF7FEFF 		bl	CyEnterCriticalSection
 138              	.LVL10:
 122:.\Generated_Source\PSoC4/CyFlash.c **** 
 123:.\Generated_Source\PSoC4/CyFlash.c ****             #if(CY_PSOC4A)
 124:.\Generated_Source\PSoC4/CyFlash.c ****                 /* Preserve IMO configuration that could be changed
 125:.\Generated_Source\PSoC4/CyFlash.c ****                 * during syscall execution (Cypress ID #150448).
 126:.\Generated_Source\PSoC4/CyFlash.c ****                 */
 127:.\Generated_Source\PSoC4/CyFlash.c ****                 imoConfigReg = CY_SYS_CLK_IMO_CONFIG_REG;
 139              		.loc 1 127 0
 140 0070 1149     		ldr	r1, .L21+20
 128:.\Generated_Source\PSoC4/CyFlash.c ****             #endif
 129:.\Generated_Source\PSoC4/CyFlash.c **** 
 130:.\Generated_Source\PSoC4/CyFlash.c ****             /* Perform sysreq for Write row, opcode 0x80000005 */
 131:.\Generated_Source\PSoC4/CyFlash.c ****             CY_FLASH_CPUSS_SYSREQ_REG = CY_FLASH_WRITE_ROW_OPCODE | CY_FLASH_CPUSS_REQ_START;
 141              		.loc 1 131 0
 142 0072 124A     		ldr	r2, .L21+24
 127:.\Generated_Source\PSoC4/CyFlash.c ****                 imoConfigReg = CY_SYS_CLK_IMO_CONFIG_REG;
 143              		.loc 1 127 0
ARM GAS  C:\Users\vrnk\AppData\Local\Temp\ccpl2bp6.s 			page 6


 144 0074 0B68     		ldr	r3, [r1]
 145              	.LVL11:
 146 0076 0393     		str	r3, [sp, #12]
 147              		.loc 1 131 0
 148 0078 2A60     		str	r2, [r5]
 149              	.L9:
 132:.\Generated_Source\PSoC4/CyFlash.c **** 
 133:.\Generated_Source\PSoC4/CyFlash.c ****             while((CY_FLASH_CPUSS_SYSREQ_REG & CY_FLASH_CPUSS_REQ_START) == CY_FLASH_CPUSS_REQ_STAR
 150              		.loc 1 133 0 discriminator 1
 151 007a 2F68     		ldr	r7, [r5]
 152 007c 002F     		cmp	r7, #0
 153 007e FCDB     		blt	.L9
 134:.\Generated_Source\PSoC4/CyFlash.c ****             {
 135:.\Generated_Source\PSoC4/CyFlash.c ****                 /* Wait till the CY_FLASH_CPUSS_REQ_START bit goes low */
 136:.\Generated_Source\PSoC4/CyFlash.c ****             }
 137:.\Generated_Source\PSoC4/CyFlash.c **** 
 138:.\Generated_Source\PSoC4/CyFlash.c ****             #if(CY_PSOC4A)
 139:.\Generated_Source\PSoC4/CyFlash.c ****                 /* Restore IMO configuration */
 140:.\Generated_Source\PSoC4/CyFlash.c ****                 CY_SYS_CLK_IMO_CONFIG_REG = imoConfigReg;
 154              		.loc 1 140 0
 155 0080 039D     		ldr	r5, [sp, #12]
 141:.\Generated_Source\PSoC4/CyFlash.c ****             #endif
 142:.\Generated_Source\PSoC4/CyFlash.c **** 
 143:.\Generated_Source\PSoC4/CyFlash.c ****             CyExitCriticalSection(interruptState);
 144:.\Generated_Source\PSoC4/CyFlash.c **** 
 145:.\Generated_Source\PSoC4/CyFlash.c ****             cpuValue = CY_FLASH_CPUSS_SYSARG_REG;
 146:.\Generated_Source\PSoC4/CyFlash.c ****             if (cpuValue != CY_FLASH_SROM_CMD_RETURN_SUCC)
 156              		.loc 1 146 0
 157 0082 A026     		mov	r6, #160
 140:.\Generated_Source\PSoC4/CyFlash.c ****                 CY_SYS_CLK_IMO_CONFIG_REG = imoConfigReg;
 158              		.loc 1 140 0
 159 0084 0D60     		str	r5, [r1]
 143:.\Generated_Source\PSoC4/CyFlash.c ****             CyExitCriticalSection(interruptState);
 160              		.loc 1 143 0
 161 0086 FFF7FEFF 		bl	CyExitCriticalSection
 162              	.LVL12:
 145:.\Generated_Source\PSoC4/CyFlash.c ****             cpuValue = CY_FLASH_CPUSS_SYSARG_REG;
 163              		.loc 1 145 0
 164 008a 2468     		ldr	r4, [r4]
 165              	.LVL13:
 166              		.loc 1 146 0
 167 008c 3106     		lsl	r1, r6, #24
 145:.\Generated_Source\PSoC4/CyFlash.c ****             cpuValue = CY_FLASH_CPUSS_SYSARG_REG;
 168              		.loc 1 145 0
 169 008e 0294     		str	r4, [sp, #8]
 170              		.loc 1 146 0
 171 0090 0298     		ldr	r0, [sp, #8]
 172 0092 8842     		cmp	r0, r1
 173 0094 03D0     		beq	.L8
 147:.\Generated_Source\PSoC4/CyFlash.c ****             {
 148:.\Generated_Source\PSoC4/CyFlash.c ****                 retValue = cpuValue;
 174              		.loc 1 148 0
 175 0096 0298     		ldr	r0, [sp, #8]
 176              	.LVL14:
 177 0098 00E0     		b	.L19
 178              	.LVL15:
 179              	.L2:
ARM GAS  C:\Users\vrnk\AppData\Local\Temp\ccpl2bp6.s 			page 7


 149:.\Generated_Source\PSoC4/CyFlash.c ****             }
 150:.\Generated_Source\PSoC4/CyFlash.c ****         }
 151:.\Generated_Source\PSoC4/CyFlash.c ****     }
 152:.\Generated_Source\PSoC4/CyFlash.c ****     else
 153:.\Generated_Source\PSoC4/CyFlash.c ****     {
 154:.\Generated_Source\PSoC4/CyFlash.c ****         retValue = CYRET_BAD_PARAM;
 180              		.loc 1 154 0
 181 009a 0120     		mov	r0, #1
 182              	.LVL16:
 183              	.L19:
 184 009c 0190     		str	r0, [sp, #4]
 185              	.LVL17:
 186              	.L8:
 155:.\Generated_Source\PSoC4/CyFlash.c ****     }
 156:.\Generated_Source\PSoC4/CyFlash.c **** 
 157:.\Generated_Source\PSoC4/CyFlash.c ****     return (retValue);
 187              		.loc 1 157 0
 188 009e 0198     		ldr	r0, [sp, #4]
 158:.\Generated_Source\PSoC4/CyFlash.c **** }
 189              		.loc 1 158 0
 190 00a0 27B0     		add	sp, sp, #156
 191              		@ sp needed for prologue
 192 00a2 F0BD     		pop	{r4, r5, r6, r7, pc}
 193              	.L22:
 194              		.align	2
 195              	.L21:
 196 00a4 B6D70000 		.word	55222
 197 00a8 08000040 		.word	1073741832
 198 00ac 04000040 		.word	1073741828
 199 00b0 04000080 		.word	-2147483644
 200 00b4 B6D80000 		.word	55478
 201 00b8 08010B40 		.word	1074462984
 202 00bc 05000080 		.word	-2147483643
 203              		.cfi_endproc
 204              	.LFE0:
 205              		.size	CySysFlashWriteRow, .-CySysFlashWriteRow
 206              		.section	.text.CySysFlashSetWaitCycles,"ax",%progbits
 207              		.align	1
 208              		.global	CySysFlashSetWaitCycles
 209              		.code	16
 210              		.thumb_func
 211              		.type	CySysFlashSetWaitCycles, %function
 212              	CySysFlashSetWaitCycles:
 213              	.LFB1:
 159:.\Generated_Source\PSoC4/CyFlash.c **** 
 160:.\Generated_Source\PSoC4/CyFlash.c **** #if(CY_PSOC4A)
 161:.\Generated_Source\PSoC4/CyFlash.c **** 
 162:.\Generated_Source\PSoC4/CyFlash.c ****     /*******************************************************************************
 163:.\Generated_Source\PSoC4/CyFlash.c ****     * Function Name: CySysFlashSetWaitCycles
 164:.\Generated_Source\PSoC4/CyFlash.c ****     ********************************************************************************
 165:.\Generated_Source\PSoC4/CyFlash.c ****     *
 166:.\Generated_Source\PSoC4/CyFlash.c ****     * Summary:
 167:.\Generated_Source\PSoC4/CyFlash.c ****     *  Sets the number of clock cycles the cache will wait before it samples data
 168:.\Generated_Source\PSoC4/CyFlash.c ****     *  coming back from Flash. This function must be called before increasing SYSCLK
 169:.\Generated_Source\PSoC4/CyFlash.c ****     *  clock frequency. It can optionally be called after lowering SYSCLK clock
 170:.\Generated_Source\PSoC4/CyFlash.c ****     *  frequency in order to improve CPU performance.
 171:.\Generated_Source\PSoC4/CyFlash.c ****     *
ARM GAS  C:\Users\vrnk\AppData\Local\Temp\ccpl2bp6.s 			page 8


 172:.\Generated_Source\PSoC4/CyFlash.c ****     * Parameters:
 173:.\Generated_Source\PSoC4/CyFlash.c ****     *  freq: Valid range [3-48].  Frequency for operation of the IMO.
 174:.\Generated_Source\PSoC4/CyFlash.c ****     *  Note: Invalid frequency will be ignored.
 175:.\Generated_Source\PSoC4/CyFlash.c ****     *
 176:.\Generated_Source\PSoC4/CyFlash.c ****     * Return:
 177:.\Generated_Source\PSoC4/CyFlash.c ****     *  None
 178:.\Generated_Source\PSoC4/CyFlash.c ****     *
 179:.\Generated_Source\PSoC4/CyFlash.c ****     *******************************************************************************/
 180:.\Generated_Source\PSoC4/CyFlash.c ****     void CySysFlashSetWaitCycles(uint32 freq)
 181:.\Generated_Source\PSoC4/CyFlash.c ****     {
 214              		.loc 1 181 0
 215              		.cfi_startproc
 216              	.LVL18:
 217 0000 08B5     		push	{r3, lr}
 218              	.LCFI2:
 219              		.cfi_def_cfa_offset 8
 220              		.cfi_offset 3, -8
 221              		.cfi_offset 14, -4
 182:.\Generated_Source\PSoC4/CyFlash.c ****         if ((freq >= CY_SYS_CLK_IMO_MIN_FREQ_MHZ) && (freq <= CY_SYS_CLK_IMO_MAX_FREQ_MHZ))
 222              		.loc 1 182 0
 223 0002 C31E     		sub	r3, r0, #3
 224 0004 2D2B     		cmp	r3, #45
 225 0006 0BD8     		bhi	.L24
 226 0008 074B     		ldr	r3, .L28
 183:.\Generated_Source\PSoC4/CyFlash.c ****         {
 184:.\Generated_Source\PSoC4/CyFlash.c ****             if ( freq <= CY_FLASH_SYSCLK_BOUNDARY_MHZ )
 185:.\Generated_Source\PSoC4/CyFlash.c ****             {
 186:.\Generated_Source\PSoC4/CyFlash.c ****                 CY_SYS_CLK_SELECT_REG &= (uint32)(~CY_FLASH_WAIT_STATE_EN);
 227              		.loc 1 186 0
 228 000a 1968     		ldr	r1, [r3]
 184:.\Generated_Source\PSoC4/CyFlash.c ****             if ( freq <= CY_FLASH_SYSCLK_BOUNDARY_MHZ )
 229              		.loc 1 184 0
 230 000c 1828     		cmp	r0, #24
 231 000e 02D8     		bhi	.L25
 232              		.loc 1 186 0
 233 0010 0648     		ldr	r0, .L28+4
 234              	.LVL19:
 235 0012 0840     		and	r0, r1
 236 0014 02E0     		b	.L27
 237              	.LVL20:
 238              	.L25:
 187:.\Generated_Source\PSoC4/CyFlash.c ****             }
 188:.\Generated_Source\PSoC4/CyFlash.c ****             else
 189:.\Generated_Source\PSoC4/CyFlash.c ****             {
 190:.\Generated_Source\PSoC4/CyFlash.c ****                 CY_SYS_CLK_SELECT_REG |= CY_FLASH_WAIT_STATE_EN;
 239              		.loc 1 190 0
 240 0016 8022     		mov	r2, #128
 241 0018 D002     		lsl	r0, r2, #11
 242              	.LVL21:
 243 001a 0843     		orr	r0, r1
 244              	.L27:
 245 001c 1860     		str	r0, [r3]
 246 001e 02E0     		b	.L23
 247              	.LVL22:
 248              	.L24:
 191:.\Generated_Source\PSoC4/CyFlash.c ****             }
 192:.\Generated_Source\PSoC4/CyFlash.c ****         }
ARM GAS  C:\Users\vrnk\AppData\Local\Temp\ccpl2bp6.s 			page 9


 193:.\Generated_Source\PSoC4/CyFlash.c ****         else
 194:.\Generated_Source\PSoC4/CyFlash.c ****         {
 195:.\Generated_Source\PSoC4/CyFlash.c ****             /* Halt CPU in debug mode if frequency is invalid */
 196:.\Generated_Source\PSoC4/CyFlash.c ****             CYASSERT(0u != 0u);
 249              		.loc 1 196 0 discriminator 1
 250 0020 0020     		mov	r0, #0
 251              	.LVL23:
 252 0022 FFF7FEFF 		bl	CyHalt
 253              	.LVL24:
 254              	.L23:
 197:.\Generated_Source\PSoC4/CyFlash.c ****         }
 198:.\Generated_Source\PSoC4/CyFlash.c ****     }
 255              		.loc 1 198 0
 256              		@ sp needed for prologue
 257 0026 08BD     		pop	{r3, pc}
 258              	.L29:
 259              		.align	2
 260              	.L28:
 261 0028 00010B40 		.word	1074462976
 262 002c FFFFFBFF 		.word	-262145
 263              		.cfi_endproc
 264              	.LFE1:
 265              		.size	CySysFlashSetWaitCycles, .-CySysFlashSetWaitCycles
 266              		.text
 267              	.Letext0:
 268              		.file 2 ".\\Generated_Source\\PSoC4\\cytypes.h"
 269              		.file 3 ".\\Generated_Source\\PSoC4\\CyLib.h"