ARM GAS  C:\Users\vrnk\AppData\Local\Temp\cchVr3qk.s 			page 1


   1              		.cpu cortex-m0
   2              		.fpu softvfp
   3              		.eabi_attribute 20, 1
   4              		.eabi_attribute 21, 1
   5              		.eabi_attribute 23, 3
   6              		.eabi_attribute 24, 1
   7              		.eabi_attribute 25, 1
   8              		.eabi_attribute 26, 1
   9              		.eabi_attribute 30, 4
  10              		.eabi_attribute 34, 0
  11              		.eabi_attribute 18, 4
  12              		.code	16
  13              		.file	"CyLib.c"
  14              		.text
  15              	.Ltext0:
  16              		.cfi_sections	.debug_frame
  17              		.section	.text.CySysClkImoStart,"ax",%progbits
  18              		.align	1
  19              		.global	CySysClkImoStart
  20              		.code	16
  21              		.thumb_func
  22              		.type	CySysClkImoStart, %function
  23              	CySysClkImoStart:
  24              	.LFB0:
  25              		.file 1 ".\\Generated_Source\\PSoC4\\CyLib.c"
   1:.\Generated_Source\PSoC4/CyLib.c **** /*******************************************************************************
   2:.\Generated_Source\PSoC4/CyLib.c **** * File Name: CyLib.c
   3:.\Generated_Source\PSoC4/CyLib.c **** * Version 4.0
   4:.\Generated_Source\PSoC4/CyLib.c **** *
   5:.\Generated_Source\PSoC4/CyLib.c **** *  Description:
   6:.\Generated_Source\PSoC4/CyLib.c **** *   Provides system API for the clocking, interrupts and watchdog timer.
   7:.\Generated_Source\PSoC4/CyLib.c **** *
   8:.\Generated_Source\PSoC4/CyLib.c **** *  Note:
   9:.\Generated_Source\PSoC4/CyLib.c **** *   Documentation of the API's in this file is located in the
  10:.\Generated_Source\PSoC4/CyLib.c **** *   System Reference Guide provided with PSoC Creator.
  11:.\Generated_Source\PSoC4/CyLib.c **** *
  12:.\Generated_Source\PSoC4/CyLib.c **** ********************************************************************************
  13:.\Generated_Source\PSoC4/CyLib.c **** * Copyright 2010-2013, Cypress Semiconductor Corporation.  All rights reserved.
  14:.\Generated_Source\PSoC4/CyLib.c **** * You may use this file only in accordance with the license, terms, conditions,
  15:.\Generated_Source\PSoC4/CyLib.c **** * disclaimers, and limitations in the end user license agreement accompanying
  16:.\Generated_Source\PSoC4/CyLib.c **** * the software package with which this file was provided.
  17:.\Generated_Source\PSoC4/CyLib.c **** *******************************************************************************/
  18:.\Generated_Source\PSoC4/CyLib.c **** 
  19:.\Generated_Source\PSoC4/CyLib.c **** #include "CyLib.h"
  20:.\Generated_Source\PSoC4/CyLib.c **** 
  21:.\Generated_Source\PSoC4/CyLib.c **** 
  22:.\Generated_Source\PSoC4/CyLib.c **** /* Do not use these definitions directly in your application */
  23:.\Generated_Source\PSoC4/CyLib.c **** uint32 cydelayFreqHz  = CYDEV_BCLK__SYSCLK__HZ;
  24:.\Generated_Source\PSoC4/CyLib.c **** uint32 cydelayFreqKhz = (CYDEV_BCLK__SYSCLK__HZ + CY_DELAY_1K_MINUS_1_THRESHOLD) / CY_DELAY_1K_THRE
  25:.\Generated_Source\PSoC4/CyLib.c **** uint8  cydelayFreqMhz = (uint8)((CYDEV_BCLK__SYSCLK__HZ + CY_DELAY_1M_MINUS_1_THRESHOLD) / CY_DELAY
  26:.\Generated_Source\PSoC4/CyLib.c **** uint32 cydelay32kMs   = CY_DELAY_MS_OVERFLOW * ((CYDEV_BCLK__SYSCLK__HZ + CY_DELAY_1K_MINUS_1_THRES
  27:.\Generated_Source\PSoC4/CyLib.c ****                         CY_DELAY_1K_THRESHOLD);
  28:.\Generated_Source\PSoC4/CyLib.c **** 
  29:.\Generated_Source\PSoC4/CyLib.c **** 
  30:.\Generated_Source\PSoC4/CyLib.c **** /*******************************************************************************
  31:.\Generated_Source\PSoC4/CyLib.c **** * Function Name: CySysClkImoStart
  32:.\Generated_Source\PSoC4/CyLib.c **** ********************************************************************************
ARM GAS  C:\Users\vrnk\AppData\Local\Temp\cchVr3qk.s 			page 2


  33:.\Generated_Source\PSoC4/CyLib.c **** *
  34:.\Generated_Source\PSoC4/CyLib.c **** * Summary:
  35:.\Generated_Source\PSoC4/CyLib.c **** *  Enables the IMO.
  36:.\Generated_Source\PSoC4/CyLib.c **** *
  37:.\Generated_Source\PSoC4/CyLib.c **** * Parameters:
  38:.\Generated_Source\PSoC4/CyLib.c **** *  None
  39:.\Generated_Source\PSoC4/CyLib.c **** *
  40:.\Generated_Source\PSoC4/CyLib.c **** * Return:
  41:.\Generated_Source\PSoC4/CyLib.c **** *  None
  42:.\Generated_Source\PSoC4/CyLib.c **** *
  43:.\Generated_Source\PSoC4/CyLib.c **** *******************************************************************************/
  44:.\Generated_Source\PSoC4/CyLib.c **** void CySysClkImoStart(void)
  45:.\Generated_Source\PSoC4/CyLib.c **** {
  26              		.loc 1 45 0
  27              		.cfi_startproc
  46:.\Generated_Source\PSoC4/CyLib.c ****     CY_SYS_CLK_IMO_CONFIG_REG |= CY_SYS_CLK_IMO_CONFIG_ENABLE;
  28              		.loc 1 46 0
  29 0000 034B     		ldr	r3, .L2
  30 0002 8022     		mov	r2, #128
  31 0004 1968     		ldr	r1, [r3]
  32 0006 1006     		lsl	r0, r2, #24
  33 0008 0843     		orr	r0, r1
  34 000a 1860     		str	r0, [r3]
  47:.\Generated_Source\PSoC4/CyLib.c **** }
  35              		.loc 1 47 0
  36              		@ sp needed for prologue
  37 000c 7047     		bx	lr
  38              	.L3:
  39 000e C046     		.align	2
  40              	.L2:
  41 0010 08010B40 		.word	1074462984
  42              		.cfi_endproc
  43              	.LFE0:
  44              		.size	CySysClkImoStart, .-CySysClkImoStart
  45              		.section	.text.CySysClkImoStop,"ax",%progbits
  46              		.align	1
  47              		.global	CySysClkImoStop
  48              		.code	16
  49              		.thumb_func
  50              		.type	CySysClkImoStop, %function
  51              	CySysClkImoStop:
  52              	.LFB1:
  48:.\Generated_Source\PSoC4/CyLib.c **** 
  49:.\Generated_Source\PSoC4/CyLib.c **** 
  50:.\Generated_Source\PSoC4/CyLib.c **** /*******************************************************************************
  51:.\Generated_Source\PSoC4/CyLib.c **** * Function Name: CySysClkImoStop
  52:.\Generated_Source\PSoC4/CyLib.c **** ********************************************************************************
  53:.\Generated_Source\PSoC4/CyLib.c **** *
  54:.\Generated_Source\PSoC4/CyLib.c **** * Summary:
  55:.\Generated_Source\PSoC4/CyLib.c **** *  Disables the IMO.
  56:.\Generated_Source\PSoC4/CyLib.c **** *
  57:.\Generated_Source\PSoC4/CyLib.c **** * Parameters:
  58:.\Generated_Source\PSoC4/CyLib.c **** *  None
  59:.\Generated_Source\PSoC4/CyLib.c **** *
  60:.\Generated_Source\PSoC4/CyLib.c **** * Return:
  61:.\Generated_Source\PSoC4/CyLib.c **** *  None
  62:.\Generated_Source\PSoC4/CyLib.c **** *
ARM GAS  C:\Users\vrnk\AppData\Local\Temp\cchVr3qk.s 			page 3


  63:.\Generated_Source\PSoC4/CyLib.c **** *******************************************************************************/
  64:.\Generated_Source\PSoC4/CyLib.c **** void CySysClkImoStop(void)
  65:.\Generated_Source\PSoC4/CyLib.c **** {
  53              		.loc 1 65 0
  54              		.cfi_startproc
  66:.\Generated_Source\PSoC4/CyLib.c ****     CY_SYS_CLK_IMO_CONFIG_REG &= ( uint32 ) ( ~( uint32 )CY_SYS_CLK_IMO_CONFIG_ENABLE);
  55              		.loc 1 66 0
  56 0000 024B     		ldr	r3, .L5
  67:.\Generated_Source\PSoC4/CyLib.c **** }
  57              		.loc 1 67 0
  58              		@ sp needed for prologue
  66:.\Generated_Source\PSoC4/CyLib.c ****     CY_SYS_CLK_IMO_CONFIG_REG &= ( uint32 ) ( ~( uint32 )CY_SYS_CLK_IMO_CONFIG_ENABLE);
  59              		.loc 1 66 0
  60 0002 1A68     		ldr	r2, [r3]
  61 0004 5000     		lsl	r0, r2, #1
  62 0006 4108     		lsr	r1, r0, #1
  63 0008 1960     		str	r1, [r3]
  64              		.loc 1 67 0
  65 000a 7047     		bx	lr
  66              	.L6:
  67              		.align	2
  68              	.L5:
  69 000c 08010B40 		.word	1074462984
  70              		.cfi_endproc
  71              	.LFE1:
  72              		.size	CySysClkImoStop, .-CySysClkImoStop
  73              		.section	.text.CySysClkIloStart,"ax",%progbits
  74              		.align	1
  75              		.global	CySysClkIloStart
  76              		.code	16
  77              		.thumb_func
  78              		.type	CySysClkIloStart, %function
  79              	CySysClkIloStart:
  80              	.LFB2:
  68:.\Generated_Source\PSoC4/CyLib.c **** 
  69:.\Generated_Source\PSoC4/CyLib.c **** 
  70:.\Generated_Source\PSoC4/CyLib.c **** /*******************************************************************************
  71:.\Generated_Source\PSoC4/CyLib.c **** * Function Name: CySysClkIloStart
  72:.\Generated_Source\PSoC4/CyLib.c **** ********************************************************************************
  73:.\Generated_Source\PSoC4/CyLib.c **** *
  74:.\Generated_Source\PSoC4/CyLib.c **** * Summary:
  75:.\Generated_Source\PSoC4/CyLib.c **** *  Enables the ILO.
  76:.\Generated_Source\PSoC4/CyLib.c **** *
  77:.\Generated_Source\PSoC4/CyLib.c **** * Parameters:
  78:.\Generated_Source\PSoC4/CyLib.c **** *  None
  79:.\Generated_Source\PSoC4/CyLib.c **** *
  80:.\Generated_Source\PSoC4/CyLib.c **** * Return:
  81:.\Generated_Source\PSoC4/CyLib.c **** *  None
  82:.\Generated_Source\PSoC4/CyLib.c **** *
  83:.\Generated_Source\PSoC4/CyLib.c **** *******************************************************************************/
  84:.\Generated_Source\PSoC4/CyLib.c **** void CySysClkIloStart(void)
  85:.\Generated_Source\PSoC4/CyLib.c **** {
  81              		.loc 1 85 0
  82              		.cfi_startproc
  86:.\Generated_Source\PSoC4/CyLib.c ****     CY_SYS_CLK_ILO_CONFIG_REG |= CY_SYS_CLK_ILO_CONFIG_ENABLE;
  83              		.loc 1 86 0
  84 0000 034B     		ldr	r3, .L8
ARM GAS  C:\Users\vrnk\AppData\Local\Temp\cchVr3qk.s 			page 4


  85 0002 8022     		mov	r2, #128
  86 0004 1968     		ldr	r1, [r3]
  87 0006 1006     		lsl	r0, r2, #24
  88 0008 0843     		orr	r0, r1
  89 000a 1860     		str	r0, [r3]
  87:.\Generated_Source\PSoC4/CyLib.c **** }
  90              		.loc 1 87 0
  91              		@ sp needed for prologue
  92 000c 7047     		bx	lr
  93              	.L9:
  94 000e C046     		.align	2
  95              	.L8:
  96 0010 04010B40 		.word	1074462980
  97              		.cfi_endproc
  98              	.LFE2:
  99              		.size	CySysClkIloStart, .-CySysClkIloStart
 100              		.section	.text.CySysClkIloStop,"ax",%progbits
 101              		.align	1
 102              		.global	CySysClkIloStop
 103              		.code	16
 104              		.thumb_func
 105              		.type	CySysClkIloStop, %function
 106              	CySysClkIloStop:
 107              	.LFB3:
  88:.\Generated_Source\PSoC4/CyLib.c **** 
  89:.\Generated_Source\PSoC4/CyLib.c **** 
  90:.\Generated_Source\PSoC4/CyLib.c **** /*******************************************************************************
  91:.\Generated_Source\PSoC4/CyLib.c **** * Function Name: CySysClkIloStop
  92:.\Generated_Source\PSoC4/CyLib.c **** ********************************************************************************
  93:.\Generated_Source\PSoC4/CyLib.c **** *
  94:.\Generated_Source\PSoC4/CyLib.c **** * Summary:
  95:.\Generated_Source\PSoC4/CyLib.c **** *  Disables the ILO.
  96:.\Generated_Source\PSoC4/CyLib.c **** *
  97:.\Generated_Source\PSoC4/CyLib.c **** * Parameters:
  98:.\Generated_Source\PSoC4/CyLib.c **** *  None
  99:.\Generated_Source\PSoC4/CyLib.c **** *
 100:.\Generated_Source\PSoC4/CyLib.c **** * Return:
 101:.\Generated_Source\PSoC4/CyLib.c **** *  None
 102:.\Generated_Source\PSoC4/CyLib.c **** *
 103:.\Generated_Source\PSoC4/CyLib.c **** * Side Effects:
 104:.\Generated_Source\PSoC4/CyLib.c **** *  This function will have no effect if WDT is locked (CySysWdtLock() is
 105:.\Generated_Source\PSoC4/CyLib.c **** *  called). Call CySysWdtUnlock() to unlock WDT and be able to stop ILO.
 106:.\Generated_Source\PSoC4/CyLib.c **** *  Note that ILO is required for WDT's operation.
 107:.\Generated_Source\PSoC4/CyLib.c **** *
 108:.\Generated_Source\PSoC4/CyLib.c **** *******************************************************************************/
 109:.\Generated_Source\PSoC4/CyLib.c **** void CySysClkIloStop(void)
 110:.\Generated_Source\PSoC4/CyLib.c **** {
 108              		.loc 1 110 0
 109              		.cfi_startproc
 111:.\Generated_Source\PSoC4/CyLib.c ****     CY_SYS_CLK_ILO_CONFIG_REG &= ( uint32 ) ( ~( uint32 )CY_SYS_CLK_ILO_CONFIG_ENABLE);
 110              		.loc 1 111 0
 111 0000 024B     		ldr	r3, .L11
 112:.\Generated_Source\PSoC4/CyLib.c **** }
 112              		.loc 1 112 0
 113              		@ sp needed for prologue
 111:.\Generated_Source\PSoC4/CyLib.c ****     CY_SYS_CLK_ILO_CONFIG_REG &= ( uint32 ) ( ~( uint32 )CY_SYS_CLK_ILO_CONFIG_ENABLE);
 114              		.loc 1 111 0
ARM GAS  C:\Users\vrnk\AppData\Local\Temp\cchVr3qk.s 			page 5


 115 0002 1A68     		ldr	r2, [r3]
 116 0004 5000     		lsl	r0, r2, #1
 117 0006 4108     		lsr	r1, r0, #1
 118 0008 1960     		str	r1, [r3]
 119              		.loc 1 112 0
 120 000a 7047     		bx	lr
 121              	.L12:
 122              		.align	2
 123              	.L11:
 124 000c 04010B40 		.word	1074462980
 125              		.cfi_endproc
 126              	.LFE3:
 127              		.size	CySysClkIloStop, .-CySysClkIloStop
 128              		.section	.text.CySysClkWriteHfclkDirect,"ax",%progbits
 129              		.align	1
 130              		.global	CySysClkWriteHfclkDirect
 131              		.code	16
 132              		.thumb_func
 133              		.type	CySysClkWriteHfclkDirect, %function
 134              	CySysClkWriteHfclkDirect:
 135              	.LFB4:
 113:.\Generated_Source\PSoC4/CyLib.c **** 
 114:.\Generated_Source\PSoC4/CyLib.c **** 
 115:.\Generated_Source\PSoC4/CyLib.c **** #if(CY_PSOC4A)
 116:.\Generated_Source\PSoC4/CyLib.c **** 
 117:.\Generated_Source\PSoC4/CyLib.c ****     /*******************************************************************************
 118:.\Generated_Source\PSoC4/CyLib.c ****     * Function Name: CySysClkWriteHfclkDirect
 119:.\Generated_Source\PSoC4/CyLib.c ****     ********************************************************************************
 120:.\Generated_Source\PSoC4/CyLib.c ****     *
 121:.\Generated_Source\PSoC4/CyLib.c ****     * Summary:
 122:.\Generated_Source\PSoC4/CyLib.c ****     *  Selects the direct source for the HFCLK.
 123:.\Generated_Source\PSoC4/CyLib.c ****     *
 124:.\Generated_Source\PSoC4/CyLib.c ****     * Parameters:
 125:.\Generated_Source\PSoC4/CyLib.c ****     *  clkSelect: One of the available HFCLK direct sources:
 126:.\Generated_Source\PSoC4/CyLib.c ****     *   Value        Define                    Source
 127:.\Generated_Source\PSoC4/CyLib.c ****     *    0            CY_SYS_CLK_HFCLK_IMO      IMO
 128:.\Generated_Source\PSoC4/CyLib.c ****     *    1            CY_SYS_CLK_HFCLK_EXTCLK   External clock pin
 129:.\Generated_Source\PSoC4/CyLib.c ****     *
 130:.\Generated_Source\PSoC4/CyLib.c ****     * Return:
 131:.\Generated_Source\PSoC4/CyLib.c ****     *  None
 132:.\Generated_Source\PSoC4/CyLib.c ****     *
 133:.\Generated_Source\PSoC4/CyLib.c ****     * Side Effects:
 134:.\Generated_Source\PSoC4/CyLib.c ****     *  The new source must be running and stable before calling this function.
 135:.\Generated_Source\PSoC4/CyLib.c ****     *  Direct source is default option for HFCLK.
 136:.\Generated_Source\PSoC4/CyLib.c ****     *
 137:.\Generated_Source\PSoC4/CyLib.c ****     *  If the SYSCLK clock frequency increases during device operation, call
 138:.\Generated_Source\PSoC4/CyLib.c ****     *  CySysFlashSetWaitCycles() with the appropriate parameter to adjust the number
 139:.\Generated_Source\PSoC4/CyLib.c ****     *  of clock cycles cache will wait before sampling data coming back from Flash.
 140:.\Generated_Source\PSoC4/CyLib.c ****     *  If the SYSCLK clock frequency decreases, you can call CyFlash_SetWaitCycles()
 141:.\Generated_Source\PSoC4/CyLib.c ****     *  to improve CPU performance. See CySysFlashSetWaitCycles() for more
 142:.\Generated_Source\PSoC4/CyLib.c ****     *  information.
 143:.\Generated_Source\PSoC4/CyLib.c ****     *
 144:.\Generated_Source\PSoC4/CyLib.c ****     *******************************************************************************/
 145:.\Generated_Source\PSoC4/CyLib.c ****     void CySysClkWriteHfclkDirect(uint32 clkSelect)
 146:.\Generated_Source\PSoC4/CyLib.c ****     {
 136              		.loc 1 146 0
 137              		.cfi_startproc
ARM GAS  C:\Users\vrnk\AppData\Local\Temp\cchVr3qk.s 			page 6


 138              	.LVL0:
 147:.\Generated_Source\PSoC4/CyLib.c ****         CY_SYS_CLK_SELECT_REG = ((CY_SYS_CLK_SELECT_REG & (( uint32 ) ~(( uint32 )CY_SYS_CLK_SELECT
 139              		.loc 1 147 0
 140 0000 044B     		ldr	r3, .L14
 148:.\Generated_Source\PSoC4/CyLib.c ****                             (( uint32 ) ( ( uint32 )clkSelect & ( uint32 )CY_SYS_CLK_SELECT_DIRECT_
 141              		.loc 1 148 0
 142 0002 0121     		mov	r1, #1
 147:.\Generated_Source\PSoC4/CyLib.c ****         CY_SYS_CLK_SELECT_REG = ((CY_SYS_CLK_SELECT_REG & (( uint32 ) ~(( uint32 )CY_SYS_CLK_SELECT
 143              		.loc 1 147 0
 144 0004 1A68     		ldr	r2, [r3]
 145              		.loc 1 148 0
 146 0006 0840     		and	r0, r1
 147              	.LVL1:
 147:.\Generated_Source\PSoC4/CyLib.c ****         CY_SYS_CLK_SELECT_REG = ((CY_SYS_CLK_SELECT_REG & (( uint32 ) ~(( uint32 )CY_SYS_CLK_SELECT
 148              		.loc 1 147 0
 149 0008 0721     		mov	r1, #7
 150 000a 8A43     		bic	r2, r1
 151 000c 1043     		orr	r0, r2
 152 000e 1860     		str	r0, [r3]
 149:.\Generated_Source\PSoC4/CyLib.c ****     }
 153              		.loc 1 149 0
 154              		@ sp needed for prologue
 155 0010 7047     		bx	lr
 156              	.L15:
 157 0012 C046     		.align	2
 158              	.L14:
 159 0014 00010B40 		.word	1074462976
 160              		.cfi_endproc
 161              	.LFE4:
 162              		.size	CySysClkWriteHfclkDirect, .-CySysClkWriteHfclkDirect
 163              		.section	.text.CySysClkWriteSysclkDiv,"ax",%progbits
 164              		.align	1
 165              		.global	CySysClkWriteSysclkDiv
 166              		.code	16
 167              		.thumb_func
 168              		.type	CySysClkWriteSysclkDiv, %function
 169              	CySysClkWriteSysclkDiv:
 170              	.LFB5:
 150:.\Generated_Source\PSoC4/CyLib.c **** 
 151:.\Generated_Source\PSoC4/CyLib.c **** 
 152:.\Generated_Source\PSoC4/CyLib.c ****     /*******************************************************************************
 153:.\Generated_Source\PSoC4/CyLib.c ****     * Function Name: CySysClkWriteSysclkDiv
 154:.\Generated_Source\PSoC4/CyLib.c ****     ********************************************************************************
 155:.\Generated_Source\PSoC4/CyLib.c ****     *
 156:.\Generated_Source\PSoC4/CyLib.c ****     * Summary:
 157:.\Generated_Source\PSoC4/CyLib.c ****     *  Selects SYSCLK from HFCLK pre-scaler value.
 158:.\Generated_Source\PSoC4/CyLib.c ****     *
 159:.\Generated_Source\PSoC4/CyLib.c ****     * Parameters:
 160:.\Generated_Source\PSoC4/CyLib.c ****     *  divider: Power of 2 prescaler selection
 161:.\Generated_Source\PSoC4/CyLib.c ****     *
 162:.\Generated_Source\PSoC4/CyLib.c ****     *   Define                        Description
 163:.\Generated_Source\PSoC4/CyLib.c ****     *   CY_SYS_CLK_SYSCLK_DIV1        SYSCLK = HFCLK / 1
 164:.\Generated_Source\PSoC4/CyLib.c ****     *   CY_SYS_CLK_SYSCLK_DIV2        SYSCLK = HFCLK / 2
 165:.\Generated_Source\PSoC4/CyLib.c ****     *   CY_SYS_CLK_SYSCLK_DIV4        SYSCLK = HFCLK / 4
 166:.\Generated_Source\PSoC4/CyLib.c ****     *   CY_SYS_CLK_SYSCLK_DIV8        SYSCLK = HFCLK / 8
 167:.\Generated_Source\PSoC4/CyLib.c ****     *   CY_SYS_CLK_SYSCLK_DIV16       SYSCLK = HFCLK / 16
 168:.\Generated_Source\PSoC4/CyLib.c ****     *   CY_SYS_CLK_SYSCLK_DIV32       SYSCLK = HFCLK / 32
ARM GAS  C:\Users\vrnk\AppData\Local\Temp\cchVr3qk.s 			page 7


 169:.\Generated_Source\PSoC4/CyLib.c ****     *   CY_SYS_CLK_SYSCLK_DIV64       SYSCLK = HFCLK / 64
 170:.\Generated_Source\PSoC4/CyLib.c ****     *   CY_SYS_CLK_SYSCLK_DIV128      SYSCLK = HFCLK / 128
 171:.\Generated_Source\PSoC4/CyLib.c ****     *
 172:.\Generated_Source\PSoC4/CyLib.c ****     * Return:
 173:.\Generated_Source\PSoC4/CyLib.c ****     *  None
 174:.\Generated_Source\PSoC4/CyLib.c ****     *
 175:.\Generated_Source\PSoC4/CyLib.c ****     * Side Effects:
 176:.\Generated_Source\PSoC4/CyLib.c ****     *  If the SYSCLK clock frequency increases during device operation, call
 177:.\Generated_Source\PSoC4/CyLib.c ****     *  CySysFlashSetWaitCycles() with the appropriate parameter to adjust the number
 178:.\Generated_Source\PSoC4/CyLib.c ****     *  of clock cycles cache will wait before sampling data coming back from Flash.
 179:.\Generated_Source\PSoC4/CyLib.c ****     *  If the SYSCLK clock frequency decreases, you can call CyFlash_SetWaitCycles()
 180:.\Generated_Source\PSoC4/CyLib.c ****     *  to improve CPU performance. See CySysFlashSetWaitCycles() for more
 181:.\Generated_Source\PSoC4/CyLib.c ****     *  information.
 182:.\Generated_Source\PSoC4/CyLib.c ****     *
 183:.\Generated_Source\PSoC4/CyLib.c ****     *******************************************************************************/
 184:.\Generated_Source\PSoC4/CyLib.c ****     void CySysClkWriteSysclkDiv(uint32 divider)
 185:.\Generated_Source\PSoC4/CyLib.c ****     {
 171              		.loc 1 185 0
 172              		.cfi_startproc
 173              	.LVL2:
 186:.\Generated_Source\PSoC4/CyLib.c ****         CY_SYS_CLK_SELECT_REG = ((uint32)(((uint32)divider & CY_SYS_CLK_SELECT_SYSCLK_DIV_MASK) <<
 187:.\Generated_Source\PSoC4/CyLib.c ****                                         CY_SYS_CLK_SELECT_SYSCLK_DIV_SHIFT)) |
 188:.\Generated_Source\PSoC4/CyLib.c ****                                 (CY_SYS_CLK_SELECT_REG & ((uint32)(~(uint32)(CY_SYS_CLK_SELECT_SYSC
 174              		.loc 1 188 0
 175 0000 054B     		ldr	r3, .L17
 185:.\Generated_Source\PSoC4/CyLib.c ****     {
 176              		.loc 1 185 0
 177 0002 10B5     		push	{r4, lr}
 178              	.LCFI0:
 179              		.cfi_def_cfa_offset 8
 180              		.cfi_offset 4, -8
 181              		.cfi_offset 14, -4
 186:.\Generated_Source\PSoC4/CyLib.c ****         CY_SYS_CLK_SELECT_REG = ((uint32)(((uint32)divider & CY_SYS_CLK_SELECT_SYSCLK_DIV_MASK) <<
 182              		.loc 1 186 0
 183 0004 0722     		mov	r2, #7
 184              		.loc 1 188 0
 185 0006 1C68     		ldr	r4, [r3]
 186:.\Generated_Source\PSoC4/CyLib.c ****         CY_SYS_CLK_SELECT_REG = ((uint32)(((uint32)divider & CY_SYS_CLK_SELECT_SYSCLK_DIV_MASK) <<
 186              		.loc 1 186 0
 187 0008 1040     		and	r0, r2
 188              	.LVL3:
 189              		.loc 1 188 0
 190 000a 0449     		ldr	r1, .L17+4
 186:.\Generated_Source\PSoC4/CyLib.c ****         CY_SYS_CLK_SELECT_REG = ((uint32)(((uint32)divider & CY_SYS_CLK_SELECT_SYSCLK_DIV_MASK) <<
 191              		.loc 1 186 0
 192 000c C204     		lsl	r2, r0, #19
 193              		.loc 1 188 0
 194 000e 201C     		mov	r0, r4
 195 0010 0840     		and	r0, r1
 187:.\Generated_Source\PSoC4/CyLib.c ****                                         CY_SYS_CLK_SELECT_SYSCLK_DIV_SHIFT)) |
 196              		.loc 1 187 0
 197 0012 1043     		orr	r0, r2
 186:.\Generated_Source\PSoC4/CyLib.c ****         CY_SYS_CLK_SELECT_REG = ((uint32)(((uint32)divider & CY_SYS_CLK_SELECT_SYSCLK_DIV_MASK) <<
 198              		.loc 1 186 0
 199 0014 1860     		str	r0, [r3]
 189:.\Generated_Source\PSoC4/CyLib.c ****                                         CY_SYS_CLK_SELECT_SYSCLK_DIV_SHIFT))));
 190:.\Generated_Source\PSoC4/CyLib.c ****     }
ARM GAS  C:\Users\vrnk\AppData\Local\Temp\cchVr3qk.s 			page 8


 200              		.loc 1 190 0
 201              		@ sp needed for prologue
 202 0016 10BD     		pop	{r4, pc}
 203              	.L18:
 204              		.align	2
 205              	.L17:
 206 0018 00010B40 		.word	1074462976
 207 001c FFFFC7FF 		.word	-3670017
 208              		.cfi_endproc
 209              	.LFE5:
 210              		.size	CySysClkWriteSysclkDiv, .-CySysClkWriteSysclkDiv
 211              		.section	.text.CySysWdtLock,"ax",%progbits
 212              		.align	1
 213              		.global	CySysWdtLock
 214              		.code	16
 215              		.thumb_func
 216              		.type	CySysWdtLock, %function
 217              	CySysWdtLock:
 218              	.LFB7:
 191:.\Generated_Source\PSoC4/CyLib.c **** 
 192:.\Generated_Source\PSoC4/CyLib.c **** 
 193:.\Generated_Source\PSoC4/CyLib.c ****     /*******************************************************************************
 194:.\Generated_Source\PSoC4/CyLib.c ****     * Function Name: CySysClkWriteImoFreq
 195:.\Generated_Source\PSoC4/CyLib.c ****     ********************************************************************************
 196:.\Generated_Source\PSoC4/CyLib.c ****     *
 197:.\Generated_Source\PSoC4/CyLib.c ****     * Summary:
 198:.\Generated_Source\PSoC4/CyLib.c ****     *  Sets the frequency of the IMO.
 199:.\Generated_Source\PSoC4/CyLib.c ****     *
 200:.\Generated_Source\PSoC4/CyLib.c ****     * Parameters:
 201:.\Generated_Source\PSoC4/CyLib.c ****     *  freq: Valid range [3-48].  Frequency for operation of the IMO.
 202:.\Generated_Source\PSoC4/CyLib.c ****     *  Note: Invalid frequency will be ignored.
 203:.\Generated_Source\PSoC4/CyLib.c ****     *
 204:.\Generated_Source\PSoC4/CyLib.c ****     * Return:
 205:.\Generated_Source\PSoC4/CyLib.c ****     *  None
 206:.\Generated_Source\PSoC4/CyLib.c ****     *
 207:.\Generated_Source\PSoC4/CyLib.c ****     * Side Effects:
 208:.\Generated_Source\PSoC4/CyLib.c ****     *  If the SYSCLK clock frequency increases during device operation, call
 209:.\Generated_Source\PSoC4/CyLib.c ****     *  CySysFlashSetWaitCycles() with the appropriate parameter to adjust the number
 210:.\Generated_Source\PSoC4/CyLib.c ****     *  of clock cycles cache will wait before sampling data coming back from Flash.
 211:.\Generated_Source\PSoC4/CyLib.c ****     *  If the SYSCLK clock frequency decreases, you can call CyFlash_SetWaitCycles()
 212:.\Generated_Source\PSoC4/CyLib.c ****     *  to improve CPU performance. See CySysFlashSetWaitCycles() for more
 213:.\Generated_Source\PSoC4/CyLib.c ****     *  information.
 214:.\Generated_Source\PSoC4/CyLib.c ****     *
 215:.\Generated_Source\PSoC4/CyLib.c ****     *******************************************************************************/
 216:.\Generated_Source\PSoC4/CyLib.c ****     void CySysClkWriteImoFreq(uint32 freq)
 217:.\Generated_Source\PSoC4/CyLib.c ****     {
 218:.\Generated_Source\PSoC4/CyLib.c ****         uint8  bgTrim4;
 219:.\Generated_Source\PSoC4/CyLib.c ****         uint8  bgTrim5;
 220:.\Generated_Source\PSoC4/CyLib.c ****         uint32 currentFreq = CY_SYS_CLK_IMO_MAX_FREQ_MHZ;
 221:.\Generated_Source\PSoC4/CyLib.c ****         uint8  interruptState;
 222:.\Generated_Source\PSoC4/CyLib.c ****         uint32 i;
 223:.\Generated_Source\PSoC4/CyLib.c **** 
 224:.\Generated_Source\PSoC4/CyLib.c ****         /* Convertion between CySysClkWriteImoFreq() parameter and register's value */
 225:.\Generated_Source\PSoC4/CyLib.c ****         static const uint8 cyImoFreqMhz2Reg[CY_SYS_CLK_IMO_FREQ_TABLE_SIZE] = {
 226:.\Generated_Source\PSoC4/CyLib.c ****             /*  3 MHz */ 0x03u,  /*  4 MHz */ 0x04u,  /*  5 MHz */ 0x05u,  /*  6 MHz */ 0x06u,
 227:.\Generated_Source\PSoC4/CyLib.c ****             /*  7 MHz */ 0x07u,  /*  8 MHz */ 0x08u,  /*  9 MHz */ 0x09u,  /* 10 MHz */ 0x0Au,
 228:.\Generated_Source\PSoC4/CyLib.c ****             /* 11 MHz */ 0x0Bu,  /* 12 MHz */ 0x0Cu,  /* 13 MHz */ 0x0Eu,  /* 14 MHz */ 0x0Fu,
ARM GAS  C:\Users\vrnk\AppData\Local\Temp\cchVr3qk.s 			page 9


 229:.\Generated_Source\PSoC4/CyLib.c ****             /* 15 MHz */ 0x10u,  /* 16 MHz */ 0x11u,  /* 17 MHz */ 0x12u,  /* 18 MHz */ 0x13u,
 230:.\Generated_Source\PSoC4/CyLib.c ****             /* 19 MHz */ 0x14u,  /* 20 MHz */ 0x15u,  /* 21 MHz */ 0x16u,  /* 22 MHz */ 0x17u,
 231:.\Generated_Source\PSoC4/CyLib.c ****             /* 23 MHz */ 0x18u,  /* 24 MHz */ 0x19u,  /* 25 MHz */ 0x1Bu,  /* 26 MHz */ 0x1Cu,
 232:.\Generated_Source\PSoC4/CyLib.c ****             /* 27 MHz */ 0x1Du,  /* 28 MHz */ 0x1Eu,  /* 29 MHz */ 0x1Fu,  /* 30 MHz */ 0x20u,
 233:.\Generated_Source\PSoC4/CyLib.c ****             /* 31 MHz */ 0x21u,  /* 32 MHz */ 0x22u,  /* 33 MHz */ 0x23u,  /* 34 MHz */ 0x25u,
 234:.\Generated_Source\PSoC4/CyLib.c ****             /* 35 MHz */ 0x26u,  /* 36 MHz */ 0x27u,  /* 37 MHz */ 0x28u,  /* 38 MHz */ 0x29u,
 235:.\Generated_Source\PSoC4/CyLib.c ****             /* 39 MHz */ 0x2Au,  /* 40 MHz */ 0x2Bu,  /* 41 MHz */ 0x2Eu,  /* 42 MHz */ 0x2Fu,
 236:.\Generated_Source\PSoC4/CyLib.c ****             /* 43 MHz */ 0x30u,  /* 44 MHz */ 0x31u,  /* 45 MHz */ 0x32u,  /* 46 MHz */ 0x33u,
 237:.\Generated_Source\PSoC4/CyLib.c ****             /* 47 MHz */ 0x34u,  /* 48 MHz */ 0x35u };
 238:.\Generated_Source\PSoC4/CyLib.c **** 
 239:.\Generated_Source\PSoC4/CyLib.c **** 
 240:.\Generated_Source\PSoC4/CyLib.c ****         if ((freq >= CY_SYS_CLK_IMO_MIN_FREQ_MHZ) && (freq <= CY_SYS_CLK_IMO_MAX_FREQ_MHZ))
 241:.\Generated_Source\PSoC4/CyLib.c ****         {
 242:.\Generated_Source\PSoC4/CyLib.c ****             interruptState = CyEnterCriticalSection();
 243:.\Generated_Source\PSoC4/CyLib.c **** 
 244:.\Generated_Source\PSoC4/CyLib.c ****             /* Get current IMO frequency */
 245:.\Generated_Source\PSoC4/CyLib.c ****             for (i = 0u; i < CY_SYS_CLK_IMO_FREQ_TABLE_SIZE; i++)
 246:.\Generated_Source\PSoC4/CyLib.c ****             {
 247:.\Generated_Source\PSoC4/CyLib.c ****                 if (cyImoFreqMhz2Reg[i] == (CY_SYS_CLK_IMO_TRIM2_REG & CY_SYS_CLK_IMO_FREQ_BITS_MAS
 248:.\Generated_Source\PSoC4/CyLib.c ****                 {
 249:.\Generated_Source\PSoC4/CyLib.c ****                     currentFreq = i + CY_SYS_CLK_IMO_FREQ_TABLE_OFFSET;
 250:.\Generated_Source\PSoC4/CyLib.c ****                     break;
 251:.\Generated_Source\PSoC4/CyLib.c ****                 }
 252:.\Generated_Source\PSoC4/CyLib.c ****             }
 253:.\Generated_Source\PSoC4/CyLib.c **** 
 254:.\Generated_Source\PSoC4/CyLib.c ****             if(freq <= CY_SFLASH_IMO_MAXF0_REG)
 255:.\Generated_Source\PSoC4/CyLib.c ****             {
 256:.\Generated_Source\PSoC4/CyLib.c ****                 bgTrim4 = CY_SFLASH_IMO_ABS0_REG;
 257:.\Generated_Source\PSoC4/CyLib.c ****                 bgTrim5 = CY_SFLASH_IMO_TMPCO0_REG;
 258:.\Generated_Source\PSoC4/CyLib.c ****             }
 259:.\Generated_Source\PSoC4/CyLib.c ****             else if(freq <= CY_SFLASH_IMO_MAXF1_REG)
 260:.\Generated_Source\PSoC4/CyLib.c ****             {
 261:.\Generated_Source\PSoC4/CyLib.c ****                 bgTrim4 = CY_SFLASH_IMO_ABS1_REG;
 262:.\Generated_Source\PSoC4/CyLib.c ****                 bgTrim5 = CY_SFLASH_IMO_TMPCO1_REG;
 263:.\Generated_Source\PSoC4/CyLib.c ****             }
 264:.\Generated_Source\PSoC4/CyLib.c ****             else if(freq <= CY_SFLASH_IMO_MAXF2_REG)
 265:.\Generated_Source\PSoC4/CyLib.c ****             {
 266:.\Generated_Source\PSoC4/CyLib.c ****                 bgTrim4 = CY_SFLASH_IMO_ABS2_REG;
 267:.\Generated_Source\PSoC4/CyLib.c ****                 bgTrim5 = CY_SFLASH_IMO_TMPCO2_REG;
 268:.\Generated_Source\PSoC4/CyLib.c ****             }
 269:.\Generated_Source\PSoC4/CyLib.c ****             else if(freq <= CY_SFLASH_IMO_MAXF3_REG)
 270:.\Generated_Source\PSoC4/CyLib.c ****             {
 271:.\Generated_Source\PSoC4/CyLib.c ****                 bgTrim4 = CY_SFLASH_IMO_ABS3_REG;
 272:.\Generated_Source\PSoC4/CyLib.c ****                 bgTrim5 = CY_SFLASH_IMO_TMPCO3_REG;
 273:.\Generated_Source\PSoC4/CyLib.c ****             }
 274:.\Generated_Source\PSoC4/CyLib.c ****             else
 275:.\Generated_Source\PSoC4/CyLib.c ****             {
 276:.\Generated_Source\PSoC4/CyLib.c ****                 bgTrim4 = CY_SFLASH_IMO_ABS4_REG;
 277:.\Generated_Source\PSoC4/CyLib.c ****                 bgTrim5 = CY_SFLASH_IMO_TMPCO4_REG;
 278:.\Generated_Source\PSoC4/CyLib.c ****             }
 279:.\Generated_Source\PSoC4/CyLib.c **** 
 280:.\Generated_Source\PSoC4/CyLib.c **** 
 281:.\Generated_Source\PSoC4/CyLib.c ****             /***************************************************************************
 282:.\Generated_Source\PSoC4/CyLib.c ****             * The IMO can have a different trim per frequency. To avoid possible corner
 283:.\Generated_Source\PSoC4/CyLib.c ****             * cases where a trim change can exceed the maximum frequency, the trim must
 284:.\Generated_Source\PSoC4/CyLib.c ****             * be applied at a frequency that is low enough.
 285:.\Generated_Source\PSoC4/CyLib.c ****             ***************************************************************************/
ARM GAS  C:\Users\vrnk\AppData\Local\Temp\cchVr3qk.s 			page 10


 286:.\Generated_Source\PSoC4/CyLib.c ****             if ((currentFreq >= CY_SYS_CLK_IMO_BOUNDARY_FREQ_MHZ) && (freq >= CY_SYS_CLK_IMO_BOUNDA
 287:.\Generated_Source\PSoC4/CyLib.c ****             {
 288:.\Generated_Source\PSoC4/CyLib.c ****                 /* Set boundary IMO frequency: safe for IMO above 48 MHZ trimming */
 289:.\Generated_Source\PSoC4/CyLib.c ****                 CY_SYS_CLK_IMO_TRIM2_REG = (uint32) cyImoFreqMhz2Reg[CY_SYS_CLK_IMO_TEMP_FREQ_MHZ -
 290:.\Generated_Source\PSoC4/CyLib.c ****                                                                      CY_SYS_CLK_IMO_FREQ_TABLE_OFFS
 291:.\Generated_Source\PSoC4/CyLib.c **** 
 292:.\Generated_Source\PSoC4/CyLib.c ****                 CyDelayCycles(CY_SYS_CLK_IMO_FREQ_TIMEOUT_CYCLES);
 293:.\Generated_Source\PSoC4/CyLib.c **** 
 294:.\Generated_Source\PSoC4/CyLib.c ****                 currentFreq = CY_SYS_CLK_IMO_TEMP_FREQ_MHZ;
 295:.\Generated_Source\PSoC4/CyLib.c ****             }
 296:.\Generated_Source\PSoC4/CyLib.c **** 
 297:.\Generated_Source\PSoC4/CyLib.c **** 
 298:.\Generated_Source\PSoC4/CyLib.c ****             /***************************************************************************
 299:.\Generated_Source\PSoC4/CyLib.c ****             * Trim change need to allowed to settle (within 5us) before the Freq can be
 300:.\Generated_Source\PSoC4/CyLib.c ****             * changed to the new frequency.
 301:.\Generated_Source\PSoC4/CyLib.c ****             ***************************************************************************/
 302:.\Generated_Source\PSoC4/CyLib.c ****             if (freq > currentFreq)
 303:.\Generated_Source\PSoC4/CyLib.c ****             {
 304:.\Generated_Source\PSoC4/CyLib.c ****                 /* Set trims for the new IMO frequency */
 305:.\Generated_Source\PSoC4/CyLib.c ****                 CY_SYS_CLK_IMO_TRIM1_REG = (uint32) CY_SFLASH_IMO_TRIM_REG(freq - CY_SYS_CLK_IMO_FR
 306:.\Generated_Source\PSoC4/CyLib.c ****                 CY_PWR_BG_TRIM4_REG  = bgTrim4;
 307:.\Generated_Source\PSoC4/CyLib.c ****                 CY_PWR_BG_TRIM5_REG  = bgTrim5;
 308:.\Generated_Source\PSoC4/CyLib.c ****                 CyDelayUs(CY_SYS_CLK_IMO_TRIM_TIMEOUT_US);
 309:.\Generated_Source\PSoC4/CyLib.c **** 
 310:.\Generated_Source\PSoC4/CyLib.c ****                 /* Set new IMO frequency */
 311:.\Generated_Source\PSoC4/CyLib.c ****                 CY_SYS_CLK_IMO_TRIM2_REG = cyImoFreqMhz2Reg[freq - CY_SYS_CLK_IMO_FREQ_TABLE_OFFSET
 312:.\Generated_Source\PSoC4/CyLib.c ****                 CyDelayCycles(CY_SYS_CLK_IMO_FREQ_TIMEOUT_CYCLES);
 313:.\Generated_Source\PSoC4/CyLib.c ****             }
 314:.\Generated_Source\PSoC4/CyLib.c ****             else
 315:.\Generated_Source\PSoC4/CyLib.c ****             {
 316:.\Generated_Source\PSoC4/CyLib.c ****                 /* Set new IMO frequency */
 317:.\Generated_Source\PSoC4/CyLib.c ****                 CY_SYS_CLK_IMO_TRIM2_REG = cyImoFreqMhz2Reg[freq - CY_SYS_CLK_IMO_FREQ_TABLE_OFFSET
 318:.\Generated_Source\PSoC4/CyLib.c ****                 CyDelayCycles(CY_SYS_CLK_IMO_FREQ_TIMEOUT_CYCLES);
 319:.\Generated_Source\PSoC4/CyLib.c **** 
 320:.\Generated_Source\PSoC4/CyLib.c ****                 /* Set trims for the new IMO frequency */
 321:.\Generated_Source\PSoC4/CyLib.c ****                 CY_SYS_CLK_IMO_TRIM1_REG = CY_SFLASH_IMO_TRIM_REG(freq - CY_SYS_CLK_IMO_FREQ_TABLE_
 322:.\Generated_Source\PSoC4/CyLib.c ****                 CY_PWR_BG_TRIM4_REG  = bgTrim4;
 323:.\Generated_Source\PSoC4/CyLib.c ****                 CY_PWR_BG_TRIM5_REG  = bgTrim5;
 324:.\Generated_Source\PSoC4/CyLib.c ****                 CyDelayUs(CY_SYS_CLK_IMO_TRIM_TIMEOUT_US);
 325:.\Generated_Source\PSoC4/CyLib.c ****             }
 326:.\Generated_Source\PSoC4/CyLib.c **** 
 327:.\Generated_Source\PSoC4/CyLib.c ****             CyExitCriticalSection(interruptState);
 328:.\Generated_Source\PSoC4/CyLib.c ****         }
 329:.\Generated_Source\PSoC4/CyLib.c ****         else
 330:.\Generated_Source\PSoC4/CyLib.c ****         {
 331:.\Generated_Source\PSoC4/CyLib.c ****             /* Halt CPU in debug mode if new frequency is invalid */
 332:.\Generated_Source\PSoC4/CyLib.c ****             CYASSERT(0u != 0u);
 333:.\Generated_Source\PSoC4/CyLib.c ****         }
 334:.\Generated_Source\PSoC4/CyLib.c ****     }
 335:.\Generated_Source\PSoC4/CyLib.c **** 
 336:.\Generated_Source\PSoC4/CyLib.c **** 
 337:.\Generated_Source\PSoC4/CyLib.c ****     /*******************************************************************************
 338:.\Generated_Source\PSoC4/CyLib.c ****     * Function Name: CySysWdtLock
 339:.\Generated_Source\PSoC4/CyLib.c ****     ********************************************************************************
 340:.\Generated_Source\PSoC4/CyLib.c ****     *
 341:.\Generated_Source\PSoC4/CyLib.c ****     * Summary:
 342:.\Generated_Source\PSoC4/CyLib.c ****     *  Locks out configuration changes to the Watchdog timer registers and ILO
ARM GAS  C:\Users\vrnk\AppData\Local\Temp\cchVr3qk.s 			page 11


 343:.\Generated_Source\PSoC4/CyLib.c ****     *  config register.
 344:.\Generated_Source\PSoC4/CyLib.c ****     *
 345:.\Generated_Source\PSoC4/CyLib.c ****     * Parameters:
 346:.\Generated_Source\PSoC4/CyLib.c ****     *  None
 347:.\Generated_Source\PSoC4/CyLib.c ****     *
 348:.\Generated_Source\PSoC4/CyLib.c ****     * Return:
 349:.\Generated_Source\PSoC4/CyLib.c ****     *  None
 350:.\Generated_Source\PSoC4/CyLib.c ****     *
 351:.\Generated_Source\PSoC4/CyLib.c ****     * Side effects:
 352:.\Generated_Source\PSoC4/CyLib.c ****     *  This API enables ILO, if it was disabled.
 353:.\Generated_Source\PSoC4/CyLib.c ****     *  After this API was called, ILO clock can't be disabled untill calling of
 354:.\Generated_Source\PSoC4/CyLib.c ****     *  CySysWdtUnlock().
 355:.\Generated_Source\PSoC4/CyLib.c ****     *
 356:.\Generated_Source\PSoC4/CyLib.c ****     *******************************************************************************/
 357:.\Generated_Source\PSoC4/CyLib.c ****     void CySysWdtLock(void)
 358:.\Generated_Source\PSoC4/CyLib.c ****     {
 219              		.loc 1 358 0
 220              		.cfi_startproc
 221 0000 10B5     		push	{r4, lr}
 222              	.LCFI1:
 223              		.cfi_def_cfa_offset 8
 224              		.cfi_offset 4, -8
 225              		.cfi_offset 14, -4
 359:.\Generated_Source\PSoC4/CyLib.c ****         uint8 interruptState;
 360:.\Generated_Source\PSoC4/CyLib.c ****         interruptState = CyEnterCriticalSection();
 226              		.loc 1 360 0
 227 0002 FFF7FEFF 		bl	CyEnterCriticalSection
 228              	.LVL4:
 361:.\Generated_Source\PSoC4/CyLib.c **** 
 362:.\Generated_Source\PSoC4/CyLib.c ****         /* Configuring the WDT involves passing control signals between clock domains,
 363:.\Generated_Source\PSoC4/CyLib.c ****         * which requires the ILO to be enabled.
 364:.\Generated_Source\PSoC4/CyLib.c ****         */
 365:.\Generated_Source\PSoC4/CyLib.c ****         if (0u == (CY_SYS_CLK_ILO_CONFIG_REG & CY_SYS_CLK_ILO_CONFIG_ENABLE))
 229              		.loc 1 365 0
 230 0006 084B     		ldr	r3, .L22
 360:.\Generated_Source\PSoC4/CyLib.c ****         interruptState = CyEnterCriticalSection();
 231              		.loc 1 360 0
 232 0008 041C     		mov	r4, r0
 233              	.LVL5:
 234              		.loc 1 365 0
 235 000a 1868     		ldr	r0, [r3]
 236              	.LVL6:
 237 000c 0028     		cmp	r0, #0
 238 000e 01DB     		blt	.L20
 366:.\Generated_Source\PSoC4/CyLib.c ****         {
 367:.\Generated_Source\PSoC4/CyLib.c ****             CySysClkIloStart();
 239              		.loc 1 367 0
 240 0010 FFF7FEFF 		bl	CySysClkIloStart
 241              	.LVL7:
 242              	.L20:
 368:.\Generated_Source\PSoC4/CyLib.c ****         }
 369:.\Generated_Source\PSoC4/CyLib.c **** 
 370:.\Generated_Source\PSoC4/CyLib.c ****         /* CLK_SELECT register's bits 15:14 are WDT_LOCK */
 371:.\Generated_Source\PSoC4/CyLib.c ****         CY_SYS_CLK_SELECT_REG = (CY_SYS_CLK_SELECT_REG & (uint32)(~CY_SYS_WDT_CLK_LOCK_BITS_MASK)) 
 243              		.loc 1 371 0
 244 0014 054B     		ldr	r3, .L22+4
 245 0016 C022     		mov	r2, #192
ARM GAS  C:\Users\vrnk\AppData\Local\Temp\cchVr3qk.s 			page 12


 246 0018 1968     		ldr	r1, [r3]
 247 001a 1002     		lsl	r0, r2, #8
 248 001c 0843     		orr	r0, r1
 249 001e 1860     		str	r0, [r3]
 372:.\Generated_Source\PSoC4/CyLib.c ****                  CY_SYS_WDT_CLK_LOCK_BITS_MASK;
 373:.\Generated_Source\PSoC4/CyLib.c **** 
 374:.\Generated_Source\PSoC4/CyLib.c ****         CyExitCriticalSection(interruptState);
 250              		.loc 1 374 0
 251 0020 201C     		mov	r0, r4
 252 0022 FFF7FEFF 		bl	CyExitCriticalSection
 253              	.LVL8:
 375:.\Generated_Source\PSoC4/CyLib.c ****     }
 254              		.loc 1 375 0
 255              		@ sp needed for prologue
 256              	.LVL9:
 257 0026 10BD     		pop	{r4, pc}
 258              	.L23:
 259              		.align	2
 260              	.L22:
 261 0028 04010B40 		.word	1074462980
 262 002c 00010B40 		.word	1074462976
 263              		.cfi_endproc
 264              	.LFE7:
 265              		.size	CySysWdtLock, .-CySysWdtLock
 266              		.section	.text.CySysWdtUnlock,"ax",%progbits
 267              		.align	1
 268              		.global	CySysWdtUnlock
 269              		.code	16
 270              		.thumb_func
 271              		.type	CySysWdtUnlock, %function
 272              	CySysWdtUnlock:
 273              	.LFB8:
 376:.\Generated_Source\PSoC4/CyLib.c **** 
 377:.\Generated_Source\PSoC4/CyLib.c **** 
 378:.\Generated_Source\PSoC4/CyLib.c ****     /*******************************************************************************
 379:.\Generated_Source\PSoC4/CyLib.c ****     * Function Name: CySysWdtUnlock
 380:.\Generated_Source\PSoC4/CyLib.c ****     ********************************************************************************
 381:.\Generated_Source\PSoC4/CyLib.c ****     *
 382:.\Generated_Source\PSoC4/CyLib.c ****     * Summary:
 383:.\Generated_Source\PSoC4/CyLib.c ****     *  Unlocks the Watchdog Timer configuration register.
 384:.\Generated_Source\PSoC4/CyLib.c ****     *
 385:.\Generated_Source\PSoC4/CyLib.c ****     * Parameters:
 386:.\Generated_Source\PSoC4/CyLib.c ****     *  None
 387:.\Generated_Source\PSoC4/CyLib.c ****     *
 388:.\Generated_Source\PSoC4/CyLib.c ****     * Return:
 389:.\Generated_Source\PSoC4/CyLib.c ****     *  None
 390:.\Generated_Source\PSoC4/CyLib.c ****     *
 391:.\Generated_Source\PSoC4/CyLib.c ****     * Side effects:
 392:.\Generated_Source\PSoC4/CyLib.c ****     *  This API enables ILO, if it was disabled.
 393:.\Generated_Source\PSoC4/CyLib.c ****     *
 394:.\Generated_Source\PSoC4/CyLib.c ****     *******************************************************************************/
 395:.\Generated_Source\PSoC4/CyLib.c ****     void CySysWdtUnlock(void)
 396:.\Generated_Source\PSoC4/CyLib.c ****     {
 274              		.loc 1 396 0
 275              		.cfi_startproc
 276 0000 10B5     		push	{r4, lr}
 277              	.LCFI2:
ARM GAS  C:\Users\vrnk\AppData\Local\Temp\cchVr3qk.s 			page 13


 278              		.cfi_def_cfa_offset 8
 279              		.cfi_offset 4, -8
 280              		.cfi_offset 14, -4
 397:.\Generated_Source\PSoC4/CyLib.c ****         uint8 interruptState;
 398:.\Generated_Source\PSoC4/CyLib.c ****         interruptState = CyEnterCriticalSection();
 281              		.loc 1 398 0
 282 0002 FFF7FEFF 		bl	CyEnterCriticalSection
 283              	.LVL10:
 399:.\Generated_Source\PSoC4/CyLib.c **** 
 400:.\Generated_Source\PSoC4/CyLib.c ****         /* Configuring the WDT involves passing control signals between clock domains,
 401:.\Generated_Source\PSoC4/CyLib.c ****         * which requires the ILO to be enabled.
 402:.\Generated_Source\PSoC4/CyLib.c ****         */
 403:.\Generated_Source\PSoC4/CyLib.c ****         if (0u == (CY_SYS_CLK_ILO_CONFIG_REG & CY_SYS_CLK_ILO_CONFIG_ENABLE))
 284              		.loc 1 403 0
 285 0006 0C4B     		ldr	r3, .L26
 398:.\Generated_Source\PSoC4/CyLib.c ****         interruptState = CyEnterCriticalSection();
 286              		.loc 1 398 0
 287 0008 041C     		mov	r4, r0
 288              	.LVL11:
 289              		.loc 1 403 0
 290 000a 1868     		ldr	r0, [r3]
 291              	.LVL12:
 292 000c 0028     		cmp	r0, #0
 293 000e 01DB     		blt	.L25
 404:.\Generated_Source\PSoC4/CyLib.c ****         {
 405:.\Generated_Source\PSoC4/CyLib.c ****             CySysClkIloStart();
 294              		.loc 1 405 0
 295 0010 FFF7FEFF 		bl	CySysClkIloStart
 296              	.LVL13:
 297              	.L25:
 406:.\Generated_Source\PSoC4/CyLib.c ****         }
 407:.\Generated_Source\PSoC4/CyLib.c **** 
 408:.\Generated_Source\PSoC4/CyLib.c ****         /* Removing WDT lock requires two writes */
 409:.\Generated_Source\PSoC4/CyLib.c ****         CY_SYS_CLK_SELECT_REG = ((CY_SYS_CLK_SELECT_REG & (uint32)(~CY_SYS_WDT_CLK_LOCK_BITS_MASK))
 298              		.loc 1 409 0
 299 0014 094B     		ldr	r3, .L26+4
 300 0016 0A4A     		ldr	r2, .L26+8
 301 0018 1968     		ldr	r1, [r3]
 302 001a 8020     		mov	r0, #128
 303 001c 1140     		and	r1, r2
 304 001e C001     		lsl	r0, r0, #7
 305 0020 0143     		orr	r1, r0
 306 0022 1960     		str	r1, [r3]
 410:.\Generated_Source\PSoC4/CyLib.c ****                 CY_SYS_WDT_CLK_LOCK_BIT0);
 411:.\Generated_Source\PSoC4/CyLib.c **** 
 412:.\Generated_Source\PSoC4/CyLib.c ****         CY_SYS_CLK_SELECT_REG = ((CY_SYS_CLK_SELECT_REG & (uint32)(~CY_SYS_WDT_CLK_LOCK_BITS_MASK))
 307              		.loc 1 412 0
 308 0024 1968     		ldr	r1, [r3]
 309 0026 8020     		mov	r0, #128
 310 0028 0A40     		and	r2, r1
 311 002a 0102     		lsl	r1, r0, #8
 312 002c 0A43     		orr	r2, r1
 313 002e 1A60     		str	r2, [r3]
 413:.\Generated_Source\PSoC4/CyLib.c ****                 CY_SYS_WDT_CLK_LOCK_BIT1);
 414:.\Generated_Source\PSoC4/CyLib.c **** 
 415:.\Generated_Source\PSoC4/CyLib.c ****         CyExitCriticalSection(interruptState);
 314              		.loc 1 415 0
ARM GAS  C:\Users\vrnk\AppData\Local\Temp\cchVr3qk.s 			page 14


 315 0030 201C     		mov	r0, r4
 316 0032 FFF7FEFF 		bl	CyExitCriticalSection
 317              	.LVL14:
 416:.\Generated_Source\PSoC4/CyLib.c ****     }
 318              		.loc 1 416 0
 319              		@ sp needed for prologue
 320              	.LVL15:
 321 0036 10BD     		pop	{r4, pc}
 322              	.L27:
 323              		.align	2
 324              	.L26:
 325 0038 04010B40 		.word	1074462980
 326 003c 00010B40 		.word	1074462976
 327 0040 FF3FFFFF 		.word	-49153
 328              		.cfi_endproc
 329              	.LFE8:
 330              		.size	CySysWdtUnlock, .-CySysWdtUnlock
 331              		.section	.text.CySysWdtReadEnabledStatus,"ax",%progbits
 332              		.align	1
 333              		.global	CySysWdtReadEnabledStatus
 334              		.code	16
 335              		.thumb_func
 336              		.type	CySysWdtReadEnabledStatus, %function
 337              	CySysWdtReadEnabledStatus:
 338              	.LFB9:
 417:.\Generated_Source\PSoC4/CyLib.c **** 
 418:.\Generated_Source\PSoC4/CyLib.c **** 
 419:.\Generated_Source\PSoC4/CyLib.c ****     /*******************************************************************************
 420:.\Generated_Source\PSoC4/CyLib.c ****     * Function Name: CySysWdtReadEnabledStatus
 421:.\Generated_Source\PSoC4/CyLib.c ****     ********************************************************************************
 422:.\Generated_Source\PSoC4/CyLib.c ****     *
 423:.\Generated_Source\PSoC4/CyLib.c ****     * Summary:
 424:.\Generated_Source\PSoC4/CyLib.c ****     *  Reads the enabled staus of one of the three WDT counters.
 425:.\Generated_Source\PSoC4/CyLib.c ****     *
 426:.\Generated_Source\PSoC4/CyLib.c ****     * Parameters:
 427:.\Generated_Source\PSoC4/CyLib.c ****     *  counterNum: Valid range [0-2].  Number of the WDT counter.
 428:.\Generated_Source\PSoC4/CyLib.c ****     *
 429:.\Generated_Source\PSoC4/CyLib.c ****     * Return:
 430:.\Generated_Source\PSoC4/CyLib.c ****     *  Status of WDT counter:
 431:.\Generated_Source\PSoC4/CyLib.c ****     *   0 - counter is disabled
 432:.\Generated_Source\PSoC4/CyLib.c ****     *   1 - counter is enabled
 433:.\Generated_Source\PSoC4/CyLib.c ****     *
 434:.\Generated_Source\PSoC4/CyLib.c ****     * Side Effects:
 435:.\Generated_Source\PSoC4/CyLib.c ****     *  This API returns actual WDT counter status from status register.
 436:.\Generated_Source\PSoC4/CyLib.c ****     *  It may take up to 3 LFCLK cycles since WDT counter was enabled for WDT status
 437:.\Generated_Source\PSoC4/CyLib.c ****     *  register to contain actual data.
 438:.\Generated_Source\PSoC4/CyLib.c ****     *
 439:.\Generated_Source\PSoC4/CyLib.c ****     *******************************************************************************/
 440:.\Generated_Source\PSoC4/CyLib.c ****     uint32 CySysWdtReadEnabledStatus(uint32 counterNum)
 441:.\Generated_Source\PSoC4/CyLib.c ****     {
 339              		.loc 1 441 0
 340              		.cfi_startproc
 341              	.LVL16:
 342 0000 00B5     		push	{lr}
 343              	.LCFI3:
 344              		.cfi_def_cfa_offset 4
 345              		.cfi_offset 14, -4
ARM GAS  C:\Users\vrnk\AppData\Local\Temp\cchVr3qk.s 			page 15


 442:.\Generated_Source\PSoC4/CyLib.c ****         CYASSERT(counterNum < CY_SYS_WDT_COUNTERS_MAX);
 346              		.loc 1 442 0
 347 0002 0228     		cmp	r0, #2
 348 0004 00D9     		bls	.L29
 349              	.LVL17:
 350              	.LBB34:
 351              	.LBB35:
 443:.\Generated_Source\PSoC4/CyLib.c ****         return ((CY_SYS_WDT_CONTROL_REG >> ((CY_SYS_WDT_CNT_SHIFT * counterNum) + CY_SYS_WDT_CNT_ST
 444:.\Generated_Source\PSoC4/CyLib.c ****     }
 445:.\Generated_Source\PSoC4/CyLib.c **** 
 446:.\Generated_Source\PSoC4/CyLib.c **** 
 447:.\Generated_Source\PSoC4/CyLib.c ****     /*******************************************************************************
 448:.\Generated_Source\PSoC4/CyLib.c ****     * Function Name: CySysWdtWriteMode
 449:.\Generated_Source\PSoC4/CyLib.c ****     ********************************************************************************
 450:.\Generated_Source\PSoC4/CyLib.c ****     *
 451:.\Generated_Source\PSoC4/CyLib.c ****     * Summary:
 452:.\Generated_Source\PSoC4/CyLib.c ****     *   Writes the mode of one of the three WDT counters.
 453:.\Generated_Source\PSoC4/CyLib.c ****     *
 454:.\Generated_Source\PSoC4/CyLib.c ****     * Parameters:
 455:.\Generated_Source\PSoC4/CyLib.c ****     *   counterNum: Valid range [0-2].  Number of the WDT counter.
 456:.\Generated_Source\PSoC4/CyLib.c ****     *   mode:       Mode of operation for the counter
 457:.\Generated_Source\PSoC4/CyLib.c ****     *       Define                   Mode
 458:.\Generated_Source\PSoC4/CyLib.c ****     *    CY_SYS_WDT_MODE_NONE       Free running
 459:.\Generated_Source\PSoC4/CyLib.c ****     *    CY_SYS_WDT_MODE_INT        Interrupt generated on match for counter 0
 460:.\Generated_Source\PSoC4/CyLib.c ****     *                               and 1, and on bit toggle for counter 2.
 461:.\Generated_Source\PSoC4/CyLib.c ****     *    CY_SYS_WDT_MODE_RESET      Reset on match (valid for counter 0 and 1
 462:.\Generated_Source\PSoC4/CyLib.c ****     *                               only)
 463:.\Generated_Source\PSoC4/CyLib.c ****     *    CY_SYS_WDT_MODE_INT_RESET  Generate an interrupt.  Generate a reset on
 464:.\Generated_Source\PSoC4/CyLib.c ****     *                                    the 3rd unhandled interrupt.
 465:.\Generated_Source\PSoC4/CyLib.c ****     *                                    (valid for counter 0 and 1 only)
 466:.\Generated_Source\PSoC4/CyLib.c ****     * Return:
 467:.\Generated_Source\PSoC4/CyLib.c ****     *   None
 468:.\Generated_Source\PSoC4/CyLib.c ****     *
 469:.\Generated_Source\PSoC4/CyLib.c ****     * Side Effects:
 470:.\Generated_Source\PSoC4/CyLib.c ****     *   WDT counter counterNum should be disabled to set mode. Othetwise function
 471:.\Generated_Source\PSoC4/CyLib.c ****     *   call will have no effect.
 472:.\Generated_Source\PSoC4/CyLib.c ****     *   This API enables ILO, if it was disabled.
 473:.\Generated_Source\PSoC4/CyLib.c ****     *
 474:.\Generated_Source\PSoC4/CyLib.c ****     *******************************************************************************/
 475:.\Generated_Source\PSoC4/CyLib.c ****     void CySysWdtWriteMode(uint32 counterNum, uint32 mode)
 476:.\Generated_Source\PSoC4/CyLib.c ****     {
 477:.\Generated_Source\PSoC4/CyLib.c ****         uint32 configRegValue;
 478:.\Generated_Source\PSoC4/CyLib.c **** 
 479:.\Generated_Source\PSoC4/CyLib.c ****         CYASSERT(counterNum < CY_SYS_WDT_COUNTERS_MAX);
 480:.\Generated_Source\PSoC4/CyLib.c **** 
 481:.\Generated_Source\PSoC4/CyLib.c ****         /* Configuring the WDT involves passing control signals between clock domains,
 482:.\Generated_Source\PSoC4/CyLib.c ****         * which requires the ILO to be enabled.
 483:.\Generated_Source\PSoC4/CyLib.c ****         */
 484:.\Generated_Source\PSoC4/CyLib.c ****         if (0u == (CY_SYS_CLK_ILO_CONFIG_REG & CY_SYS_CLK_ILO_CONFIG_ENABLE))
 485:.\Generated_Source\PSoC4/CyLib.c ****         {
 486:.\Generated_Source\PSoC4/CyLib.c ****             CySysClkIloStart();
 487:.\Generated_Source\PSoC4/CyLib.c ****         }
 488:.\Generated_Source\PSoC4/CyLib.c **** 
 489:.\Generated_Source\PSoC4/CyLib.c ****         if(0u == CySysWdtReadEnabledStatus(counterNum))
 490:.\Generated_Source\PSoC4/CyLib.c ****         {
 491:.\Generated_Source\PSoC4/CyLib.c ****             configRegValue = CY_SYS_WDT_CONFIG_REG &
 492:.\Generated_Source\PSoC4/CyLib.c ****                                 (uint32)~((uint32)(CY_SYS_WDT_MODE_MASK << (counterNum * CY_SYS_WDT
ARM GAS  C:\Users\vrnk\AppData\Local\Temp\cchVr3qk.s 			page 16


 493:.\Generated_Source\PSoC4/CyLib.c ****             configRegValue |= (uint32)((mode & CY_SYS_WDT_MODE_MASK) << (counterNum * CY_SYS_WDT_CN
 494:.\Generated_Source\PSoC4/CyLib.c ****             CY_SYS_WDT_CONFIG_REG = configRegValue;
 495:.\Generated_Source\PSoC4/CyLib.c ****         }
 496:.\Generated_Source\PSoC4/CyLib.c ****     }
 497:.\Generated_Source\PSoC4/CyLib.c **** 
 498:.\Generated_Source\PSoC4/CyLib.c **** 
 499:.\Generated_Source\PSoC4/CyLib.c ****     /*******************************************************************************
 500:.\Generated_Source\PSoC4/CyLib.c ****     * Function Name: CySysWdtReadMode
 501:.\Generated_Source\PSoC4/CyLib.c ****     ********************************************************************************
 502:.\Generated_Source\PSoC4/CyLib.c ****     *
 503:.\Generated_Source\PSoC4/CyLib.c ****     * Summary:
 504:.\Generated_Source\PSoC4/CyLib.c ****     *  Reads the mode of one of the three WDT counters.
 505:.\Generated_Source\PSoC4/CyLib.c ****     *
 506:.\Generated_Source\PSoC4/CyLib.c ****     * Parameters:
 507:.\Generated_Source\PSoC4/CyLib.c ****     *  counterNum: Valid range [0-2].  Number of the WDT counter.
 508:.\Generated_Source\PSoC4/CyLib.c ****     *
 509:.\Generated_Source\PSoC4/CyLib.c ****     * Return:
 510:.\Generated_Source\PSoC4/CyLib.c ****     *  Mode of the counter.  Same enumerated values as mode parameter used in
 511:.\Generated_Source\PSoC4/CyLib.c ****     *  CySysWdtWriteMode().
 512:.\Generated_Source\PSoC4/CyLib.c ****     *
 513:.\Generated_Source\PSoC4/CyLib.c ****     *******************************************************************************/
 514:.\Generated_Source\PSoC4/CyLib.c ****     uint32 CySysWdtReadMode(uint32 counterNum)
 515:.\Generated_Source\PSoC4/CyLib.c ****     {
 516:.\Generated_Source\PSoC4/CyLib.c ****         return ((CY_SYS_WDT_CONFIG_REG >> (counterNum * CY_SYS_WDT_CNT_SHIFT)) & CY_SYS_WDT_MODE_MA
 517:.\Generated_Source\PSoC4/CyLib.c ****     }
 518:.\Generated_Source\PSoC4/CyLib.c **** 
 519:.\Generated_Source\PSoC4/CyLib.c **** 
 520:.\Generated_Source\PSoC4/CyLib.c ****     /*******************************************************************************
 521:.\Generated_Source\PSoC4/CyLib.c ****     * Function Name: CySysWdtWriteClearOnMatch
 522:.\Generated_Source\PSoC4/CyLib.c ****     ********************************************************************************
 523:.\Generated_Source\PSoC4/CyLib.c ****     *
 524:.\Generated_Source\PSoC4/CyLib.c ****     * Summary:
 525:.\Generated_Source\PSoC4/CyLib.c ****     *  Configures the WDT counter clear on a match setting.  If configured to clear
 526:.\Generated_Source\PSoC4/CyLib.c ****     *  on match the counter will count from 0 to the MatchValue giving it a
 527:.\Generated_Source\PSoC4/CyLib.c ****     *  period of (MatchValue + 1).
 528:.\Generated_Source\PSoC4/CyLib.c ****     *
 529:.\Generated_Source\PSoC4/CyLib.c ****     * Parameters:
 530:.\Generated_Source\PSoC4/CyLib.c ****     *  counterNum:
 531:.\Generated_Source\PSoC4/CyLib.c ****     *   Valid range [0-1].  Number of the WDT counter.  Match values are not
 532:.\Generated_Source\PSoC4/CyLib.c ****     *   supported by counter 2.
 533:.\Generated_Source\PSoC4/CyLib.c ****     *
 534:.\Generated_Source\PSoC4/CyLib.c ****     * enable:
 535:.\Generated_Source\PSoC4/CyLib.c ****     *   0 to disable, 1 to enable
 536:.\Generated_Source\PSoC4/CyLib.c ****     *
 537:.\Generated_Source\PSoC4/CyLib.c ****     * Return:
 538:.\Generated_Source\PSoC4/CyLib.c ****     *   None
 539:.\Generated_Source\PSoC4/CyLib.c ****     *
 540:.\Generated_Source\PSoC4/CyLib.c ****     * Side Effects:
 541:.\Generated_Source\PSoC4/CyLib.c ****     *   WDT counter counterNum should be disabled. Othetwise function
 542:.\Generated_Source\PSoC4/CyLib.c ****     *   call will have no effect.
 543:.\Generated_Source\PSoC4/CyLib.c ****     *   This API enables ILO, if it was disabled.
 544:.\Generated_Source\PSoC4/CyLib.c ****     *
 545:.\Generated_Source\PSoC4/CyLib.c ****     *
 546:.\Generated_Source\PSoC4/CyLib.c ****     *******************************************************************************/
 547:.\Generated_Source\PSoC4/CyLib.c ****     void CySysWdtWriteClearOnMatch(uint32 counterNum, uint32 enable)
 548:.\Generated_Source\PSoC4/CyLib.c ****     {
 549:.\Generated_Source\PSoC4/CyLib.c ****         CYASSERT((counterNum == CY_SYS_WDT_COUNTER0) ||
ARM GAS  C:\Users\vrnk\AppData\Local\Temp\cchVr3qk.s 			page 17


 550:.\Generated_Source\PSoC4/CyLib.c ****                                              (counterNum == CY_SYS_WDT_COUNTER1));
 551:.\Generated_Source\PSoC4/CyLib.c **** 
 552:.\Generated_Source\PSoC4/CyLib.c ****         /* Configuring the WDT involves passing control signals between clock domains,
 553:.\Generated_Source\PSoC4/CyLib.c ****         * which requires the ILO to be enabled.
 554:.\Generated_Source\PSoC4/CyLib.c ****         */
 555:.\Generated_Source\PSoC4/CyLib.c ****         if (0u == (CY_SYS_CLK_ILO_CONFIG_REG & CY_SYS_CLK_ILO_CONFIG_ENABLE))
 556:.\Generated_Source\PSoC4/CyLib.c ****         {
 557:.\Generated_Source\PSoC4/CyLib.c ****             CySysClkIloStart();
 558:.\Generated_Source\PSoC4/CyLib.c ****         }
 559:.\Generated_Source\PSoC4/CyLib.c **** 
 560:.\Generated_Source\PSoC4/CyLib.c ****         if(0u == CySysWdtReadEnabledStatus(counterNum))
 561:.\Generated_Source\PSoC4/CyLib.c ****         {
 562:.\Generated_Source\PSoC4/CyLib.c ****             CY_SYS_WDT_CONFIG_REG |= (uint32)(enable << ((counterNum * CY_SYS_WDT_CNT_SHIFT) +
 563:.\Generated_Source\PSoC4/CyLib.c ****                                                             CY_SYS_WDT_CNT_MATCH_CLR_SHIFT));
 564:.\Generated_Source\PSoC4/CyLib.c ****         }
 565:.\Generated_Source\PSoC4/CyLib.c ****     }
 566:.\Generated_Source\PSoC4/CyLib.c **** 
 567:.\Generated_Source\PSoC4/CyLib.c **** 
 568:.\Generated_Source\PSoC4/CyLib.c ****     /*******************************************************************************
 569:.\Generated_Source\PSoC4/CyLib.c ****     * Function Name: CySysWdtReadClearOnMatch
 570:.\Generated_Source\PSoC4/CyLib.c ****     ********************************************************************************
 571:.\Generated_Source\PSoC4/CyLib.c ****     *
 572:.\Generated_Source\PSoC4/CyLib.c ****     * Summary:
 573:.\Generated_Source\PSoC4/CyLib.c ****     *  Reads the clear on match setting for the specified counter.
 574:.\Generated_Source\PSoC4/CyLib.c ****     *
 575:.\Generated_Source\PSoC4/CyLib.c ****     * Parameters:
 576:.\Generated_Source\PSoC4/CyLib.c ****     *   counterNum: Valid range [0-1].  Number of the WDT counter.  Match values are
 577:.\Generated_Source\PSoC4/CyLib.c ****     *               not supported by counter 2.
 578:.\Generated_Source\PSoC4/CyLib.c ****     *
 579:.\Generated_Source\PSoC4/CyLib.c ****     * Return:
 580:.\Generated_Source\PSoC4/CyLib.c ****     *   Clear on Match status: 1 if enabled, 0 if disabled
 581:.\Generated_Source\PSoC4/CyLib.c ****     *
 582:.\Generated_Source\PSoC4/CyLib.c ****     *******************************************************************************/
 583:.\Generated_Source\PSoC4/CyLib.c ****     uint32 CySysWdtReadClearOnMatch(uint32 counterNum)
 584:.\Generated_Source\PSoC4/CyLib.c ****     {
 585:.\Generated_Source\PSoC4/CyLib.c ****         CYASSERT((counterNum == CY_SYS_WDT_COUNTER0) ||
 586:.\Generated_Source\PSoC4/CyLib.c ****                                              (counterNum == CY_SYS_WDT_COUNTER1));
 587:.\Generated_Source\PSoC4/CyLib.c **** 
 588:.\Generated_Source\PSoC4/CyLib.c ****         return (uint32)((CY_SYS_WDT_CONFIG_REG >>
 589:.\Generated_Source\PSoC4/CyLib.c ****                             ((counterNum * CY_SYS_WDT_CNT_SHIFT) + CY_SYS_WDT_CNT_MATCH_CLR_SHIFT))
 590:.\Generated_Source\PSoC4/CyLib.c ****     }
 591:.\Generated_Source\PSoC4/CyLib.c **** 
 592:.\Generated_Source\PSoC4/CyLib.c **** 
 593:.\Generated_Source\PSoC4/CyLib.c ****     /*******************************************************************************
 594:.\Generated_Source\PSoC4/CyLib.c ****     * Function Name: CySysWdtEnable
 595:.\Generated_Source\PSoC4/CyLib.c ****     ********************************************************************************
 596:.\Generated_Source\PSoC4/CyLib.c ****     *
 597:.\Generated_Source\PSoC4/CyLib.c ****     * Summary:
 598:.\Generated_Source\PSoC4/CyLib.c ****     *  Enables the specified WDT counters.  All counters specified in the mask are
 599:.\Generated_Source\PSoC4/CyLib.c ****     *  enabled.
 600:.\Generated_Source\PSoC4/CyLib.c ****     *
 601:.\Generated_Source\PSoC4/CyLib.c ****     * Parameters:
 602:.\Generated_Source\PSoC4/CyLib.c ****     *  counterMask: Mask of all counters to enable
 603:.\Generated_Source\PSoC4/CyLib.c ****     *       Define                       Counter
 604:.\Generated_Source\PSoC4/CyLib.c ****     *      CY_SYS_WDT_COUNTER0_MASK      0
 605:.\Generated_Source\PSoC4/CyLib.c ****     *      CY_SYS_WDT_COUNTER1_MASK      1
 606:.\Generated_Source\PSoC4/CyLib.c ****     *      CY_SYS_WDT_COUNTER2_MASK      2
ARM GAS  C:\Users\vrnk\AppData\Local\Temp\cchVr3qk.s 			page 18


 607:.\Generated_Source\PSoC4/CyLib.c ****     *
 608:.\Generated_Source\PSoC4/CyLib.c ****     * Return:
 609:.\Generated_Source\PSoC4/CyLib.c ****     *  None
 610:.\Generated_Source\PSoC4/CyLib.c ****     *
 611:.\Generated_Source\PSoC4/CyLib.c ****     * Side Effects:
 612:.\Generated_Source\PSoC4/CyLib.c ****     *  Enabling or disabling a WDT requires 3 LF Clock cycles to come into effect.
 613:.\Generated_Source\PSoC4/CyLib.c ****     *  This API enables ILO, if it was disabled.
 614:.\Generated_Source\PSoC4/CyLib.c ****     *
 615:.\Generated_Source\PSoC4/CyLib.c ****     *******************************************************************************/
 616:.\Generated_Source\PSoC4/CyLib.c ****     void CySysWdtEnable(uint32 counterMask)
 617:.\Generated_Source\PSoC4/CyLib.c ****     {
 618:.\Generated_Source\PSoC4/CyLib.c ****         /* Configuring the WDT involves passing control signals between clock domains,
 619:.\Generated_Source\PSoC4/CyLib.c ****         * which requires the ILO to be enabled.
 620:.\Generated_Source\PSoC4/CyLib.c ****         */
 621:.\Generated_Source\PSoC4/CyLib.c ****         if (0u == (CY_SYS_CLK_ILO_CONFIG_REG & CY_SYS_CLK_ILO_CONFIG_ENABLE))
 622:.\Generated_Source\PSoC4/CyLib.c ****         {
 623:.\Generated_Source\PSoC4/CyLib.c ****             CySysClkIloStart();
 624:.\Generated_Source\PSoC4/CyLib.c ****         }
 625:.\Generated_Source\PSoC4/CyLib.c **** 
 626:.\Generated_Source\PSoC4/CyLib.c ****         CY_SYS_WDT_CONTROL_REG |= counterMask;
 627:.\Generated_Source\PSoC4/CyLib.c ****     }
 628:.\Generated_Source\PSoC4/CyLib.c **** 
 629:.\Generated_Source\PSoC4/CyLib.c **** 
 630:.\Generated_Source\PSoC4/CyLib.c ****     /*******************************************************************************
 631:.\Generated_Source\PSoC4/CyLib.c ****     * Function Name: CySysWdtDisable
 632:.\Generated_Source\PSoC4/CyLib.c ****     ********************************************************************************
 633:.\Generated_Source\PSoC4/CyLib.c ****     *
 634:.\Generated_Source\PSoC4/CyLib.c ****     * Summary:
 635:.\Generated_Source\PSoC4/CyLib.c ****     *  Disables the specified WDT counters.  All counters specified in the mask are
 636:.\Generated_Source\PSoC4/CyLib.c ****     *  disabled.
 637:.\Generated_Source\PSoC4/CyLib.c ****     *
 638:.\Generated_Source\PSoC4/CyLib.c ****     * Parameters:
 639:.\Generated_Source\PSoC4/CyLib.c ****     *  uint32 counterMask: Mask of all counters to disable
 640:.\Generated_Source\PSoC4/CyLib.c ****     *    Define                       Counter
 641:.\Generated_Source\PSoC4/CyLib.c ****     *   CY_SYS_WDT_COUNTER0_MASK      0
 642:.\Generated_Source\PSoC4/CyLib.c ****     *   CY_SYS_WDT_COUNTER1_MASK      1
 643:.\Generated_Source\PSoC4/CyLib.c ****     *   CY_SYS_WDT_COUNTER2_MASK      2
 644:.\Generated_Source\PSoC4/CyLib.c ****     *
 645:.\Generated_Source\PSoC4/CyLib.c ****     * Return:
 646:.\Generated_Source\PSoC4/CyLib.c ****     *   None
 647:.\Generated_Source\PSoC4/CyLib.c ****     *
 648:.\Generated_Source\PSoC4/CyLib.c ****     * Side Effects:
 649:.\Generated_Source\PSoC4/CyLib.c ****     *  Enabling or disabling a WDT requires 3 LF Clock cycles to come into effect.
 650:.\Generated_Source\PSoC4/CyLib.c ****     *  This API enables ILO, if it was disabled.
 651:.\Generated_Source\PSoC4/CyLib.c ****     *
 652:.\Generated_Source\PSoC4/CyLib.c ****     *******************************************************************************/
 653:.\Generated_Source\PSoC4/CyLib.c ****     void CySysWdtDisable(uint32 counterMask)
 654:.\Generated_Source\PSoC4/CyLib.c ****     {
 655:.\Generated_Source\PSoC4/CyLib.c ****         /* Configuring the WDT involves passing control signals between clock domains,
 656:.\Generated_Source\PSoC4/CyLib.c ****         * which requires the ILO to be enabled.
 657:.\Generated_Source\PSoC4/CyLib.c ****         */
 658:.\Generated_Source\PSoC4/CyLib.c ****         if (0u == (CY_SYS_CLK_ILO_CONFIG_REG & CY_SYS_CLK_ILO_CONFIG_ENABLE))
 659:.\Generated_Source\PSoC4/CyLib.c ****         {
 660:.\Generated_Source\PSoC4/CyLib.c ****             CySysClkIloStart();
 661:.\Generated_Source\PSoC4/CyLib.c ****         }
 662:.\Generated_Source\PSoC4/CyLib.c **** 
 663:.\Generated_Source\PSoC4/CyLib.c ****         CY_SYS_WDT_CONTROL_REG &= ~counterMask;
ARM GAS  C:\Users\vrnk\AppData\Local\Temp\cchVr3qk.s 			page 19


 664:.\Generated_Source\PSoC4/CyLib.c ****     }
 665:.\Generated_Source\PSoC4/CyLib.c **** 
 666:.\Generated_Source\PSoC4/CyLib.c **** 
 667:.\Generated_Source\PSoC4/CyLib.c ****     /*******************************************************************************
 668:.\Generated_Source\PSoC4/CyLib.c ****     * Function Name: CySysWdtWriteCascade
 669:.\Generated_Source\PSoC4/CyLib.c ****     ********************************************************************************
 670:.\Generated_Source\PSoC4/CyLib.c ****     *
 671:.\Generated_Source\PSoC4/CyLib.c ****     * Summary:
 672:.\Generated_Source\PSoC4/CyLib.c ****     *   Writes the two WDT cascade values based on the combination of mask values
 673:.\Generated_Source\PSoC4/CyLib.c ****     *   specified.
 674:.\Generated_Source\PSoC4/CyLib.c ****     *
 675:.\Generated_Source\PSoC4/CyLib.c ****     * Parameters:
 676:.\Generated_Source\PSoC4/CyLib.c ****     *   cascadeMask: Mask value used to set or clear the cascade values.
 677:.\Generated_Source\PSoC4/CyLib.c ****     *   Define                     Cascade
 678:.\Generated_Source\PSoC4/CyLib.c ****     *   CY_SYS_WDT_CASCADE_NONE    Neither
 679:.\Generated_Source\PSoC4/CyLib.c ****     *   CY_SYS_WDT_CASCADE_01      Cascade 01
 680:.\Generated_Source\PSoC4/CyLib.c ****     *   CY_SYS_WDT_CASCADE_12      Cascade 12
 681:.\Generated_Source\PSoC4/CyLib.c ****     *
 682:.\Generated_Source\PSoC4/CyLib.c ****     * Return:
 683:.\Generated_Source\PSoC4/CyLib.c ****     *   None
 684:.\Generated_Source\PSoC4/CyLib.c ****     *
 685:.\Generated_Source\PSoC4/CyLib.c ****     * Side effects:
 686:.\Generated_Source\PSoC4/CyLib.c ****     *   If only one cascasde mask is specified, the second cascade is disabled.
 687:.\Generated_Source\PSoC4/CyLib.c ****     *   To set both cascade modes two defines should be ORed:
 688:.\Generated_Source\PSoC4/CyLib.c ****     *    (CY_SYS_WDT_CASCADE_01 | CY_SYS_WDT_CASCADE_12)
 689:.\Generated_Source\PSoC4/CyLib.c ****     *   This API enables ILO, if it was disabled.
 690:.\Generated_Source\PSoC4/CyLib.c ****     *
 691:.\Generated_Source\PSoC4/CyLib.c ****     *******************************************************************************/
 692:.\Generated_Source\PSoC4/CyLib.c ****     void CySysWdtWriteCascade(uint32 cascadeMask)
 693:.\Generated_Source\PSoC4/CyLib.c ****     {
 694:.\Generated_Source\PSoC4/CyLib.c ****         uint32 configRegValue;
 695:.\Generated_Source\PSoC4/CyLib.c ****         uint32 countersEnableStatus;
 696:.\Generated_Source\PSoC4/CyLib.c **** 
 697:.\Generated_Source\PSoC4/CyLib.c ****         countersEnableStatus = CySysWdtReadEnabledStatus(CY_SYS_WDT_COUNTER0) |
 698:.\Generated_Source\PSoC4/CyLib.c ****                             CySysWdtReadEnabledStatus(CY_SYS_WDT_COUNTER1) |
 699:.\Generated_Source\PSoC4/CyLib.c ****                             CySysWdtReadEnabledStatus(CY_SYS_WDT_COUNTER2);
 700:.\Generated_Source\PSoC4/CyLib.c **** 
 701:.\Generated_Source\PSoC4/CyLib.c ****         if (0u == countersEnableStatus)
 702:.\Generated_Source\PSoC4/CyLib.c ****         {
 703:.\Generated_Source\PSoC4/CyLib.c ****             /* Configuring the WDT involves passing control signals between clock domains,
 704:.\Generated_Source\PSoC4/CyLib.c ****             * which requires the ILO to be enabled.
 705:.\Generated_Source\PSoC4/CyLib.c ****             */
 706:.\Generated_Source\PSoC4/CyLib.c ****             if (0u == (CY_SYS_CLK_ILO_CONFIG_REG & CY_SYS_CLK_ILO_CONFIG_ENABLE))
 707:.\Generated_Source\PSoC4/CyLib.c ****             {
 708:.\Generated_Source\PSoC4/CyLib.c ****                 CySysClkIloStart();
 709:.\Generated_Source\PSoC4/CyLib.c ****             }
 710:.\Generated_Source\PSoC4/CyLib.c **** 
 711:.\Generated_Source\PSoC4/CyLib.c ****             configRegValue = CY_SYS_WDT_CONFIG_REG;
 712:.\Generated_Source\PSoC4/CyLib.c ****             configRegValue &= ((uint32)(~(CY_SYS_WDT_CASCADE_01|CY_SYS_WDT_CASCADE_12)));
 713:.\Generated_Source\PSoC4/CyLib.c ****             configRegValue |= cascadeMask;
 714:.\Generated_Source\PSoC4/CyLib.c ****             CY_SYS_WDT_CONFIG_REG = configRegValue;
 715:.\Generated_Source\PSoC4/CyLib.c ****         }
 716:.\Generated_Source\PSoC4/CyLib.c ****     }
 717:.\Generated_Source\PSoC4/CyLib.c **** 
 718:.\Generated_Source\PSoC4/CyLib.c **** 
 719:.\Generated_Source\PSoC4/CyLib.c ****     /*******************************************************************************
 720:.\Generated_Source\PSoC4/CyLib.c ****     * Function Name: CySysWdtReadCascade
ARM GAS  C:\Users\vrnk\AppData\Local\Temp\cchVr3qk.s 			page 20


 721:.\Generated_Source\PSoC4/CyLib.c ****     ********************************************************************************
 722:.\Generated_Source\PSoC4/CyLib.c ****     *
 723:.\Generated_Source\PSoC4/CyLib.c ****     * Summary:
 724:.\Generated_Source\PSoC4/CyLib.c ****     *   Reads the two WDT cascade values returning a mask of the bits set.
 725:.\Generated_Source\PSoC4/CyLib.c ****     *
 726:.\Generated_Source\PSoC4/CyLib.c ****     * Parameters:
 727:.\Generated_Source\PSoC4/CyLib.c ****     *   None
 728:.\Generated_Source\PSoC4/CyLib.c ****     *
 729:.\Generated_Source\PSoC4/CyLib.c ****     * Return:
 730:.\Generated_Source\PSoC4/CyLib.c ****     *   Mask of cascade values set.
 731:.\Generated_Source\PSoC4/CyLib.c ****     *   Define                     Cascade
 732:.\Generated_Source\PSoC4/CyLib.c ****     *   CY_SYS_WDT_CASCADE_NONE    Neither
 733:.\Generated_Source\PSoC4/CyLib.c ****     *   CY_SYS_WDT_CASCADE_01      Cascade 01
 734:.\Generated_Source\PSoC4/CyLib.c ****     *   CY_SYS_WDT_CASCADE_12      Cascade 12
 735:.\Generated_Source\PSoC4/CyLib.c ****     *
 736:.\Generated_Source\PSoC4/CyLib.c ****     *******************************************************************************/
 737:.\Generated_Source\PSoC4/CyLib.c ****     uint32 CySysWdtReadCascade(void)
 738:.\Generated_Source\PSoC4/CyLib.c ****     {
 739:.\Generated_Source\PSoC4/CyLib.c ****         return (CY_SYS_WDT_CONFIG_REG & (CY_SYS_WDT_CASCADE_01 | CY_SYS_WDT_CASCADE_12));
 740:.\Generated_Source\PSoC4/CyLib.c ****     }
 741:.\Generated_Source\PSoC4/CyLib.c **** 
 742:.\Generated_Source\PSoC4/CyLib.c **** 
 743:.\Generated_Source\PSoC4/CyLib.c ****     /*******************************************************************************
 744:.\Generated_Source\PSoC4/CyLib.c ****     * Function Name: CySysWdtWriteMatch
 745:.\Generated_Source\PSoC4/CyLib.c ****     ********************************************************************************
 746:.\Generated_Source\PSoC4/CyLib.c ****     *
 747:.\Generated_Source\PSoC4/CyLib.c ****     * Summary:
 748:.\Generated_Source\PSoC4/CyLib.c ****     *  Configures the WDT counter match comparison value.
 749:.\Generated_Source\PSoC4/CyLib.c ****     *
 750:.\Generated_Source\PSoC4/CyLib.c ****     * Parameters:
 751:.\Generated_Source\PSoC4/CyLib.c ****     *  counterNum:
 752:.\Generated_Source\PSoC4/CyLib.c ****     *   Valid range [0-1]. Number of the WDT counter. Match values are not
 753:.\Generated_Source\PSoC4/CyLib.c ****     *   supported by counter 2.
 754:.\Generated_Source\PSoC4/CyLib.c ****     *
 755:.\Generated_Source\PSoC4/CyLib.c ****     *  match:
 756:.\Generated_Source\PSoC4/CyLib.c ****     *   Valid range [0-65535]. Value to be used to match against the counter.
 757:.\Generated_Source\PSoC4/CyLib.c ****     *
 758:.\Generated_Source\PSoC4/CyLib.c ****     * Return:
 759:.\Generated_Source\PSoC4/CyLib.c ****     *   None
 760:.\Generated_Source\PSoC4/CyLib.c ****     *
 761:.\Generated_Source\PSoC4/CyLib.c ****     * Side effects:
 762:.\Generated_Source\PSoC4/CyLib.c ****     *   This API enables ILO, if it was disabled.
 763:.\Generated_Source\PSoC4/CyLib.c ****     *
 764:.\Generated_Source\PSoC4/CyLib.c ****     *******************************************************************************/
 765:.\Generated_Source\PSoC4/CyLib.c ****     void CySysWdtWriteMatch(uint32 counterNum, uint32 match)
 766:.\Generated_Source\PSoC4/CyLib.c ****     {
 767:.\Generated_Source\PSoC4/CyLib.c ****         uint32 regValue;
 768:.\Generated_Source\PSoC4/CyLib.c **** 
 769:.\Generated_Source\PSoC4/CyLib.c ****         CYASSERT((counterNum == CY_SYS_WDT_COUNTER0) ||
 770:.\Generated_Source\PSoC4/CyLib.c ****                                              (counterNum == CY_SYS_WDT_COUNTER1));
 771:.\Generated_Source\PSoC4/CyLib.c **** 
 772:.\Generated_Source\PSoC4/CyLib.c ****         /* Configuring the WDT involves passing control signals between clock domains,
 773:.\Generated_Source\PSoC4/CyLib.c ****         * which requires the ILO to be enabled.
 774:.\Generated_Source\PSoC4/CyLib.c ****         */
 775:.\Generated_Source\PSoC4/CyLib.c ****         if (0u == (CY_SYS_CLK_ILO_CONFIG_REG & CY_SYS_CLK_ILO_CONFIG_ENABLE))
 776:.\Generated_Source\PSoC4/CyLib.c ****         {
 777:.\Generated_Source\PSoC4/CyLib.c ****             CySysClkIloStart();
ARM GAS  C:\Users\vrnk\AppData\Local\Temp\cchVr3qk.s 			page 21


 778:.\Generated_Source\PSoC4/CyLib.c ****         }
 779:.\Generated_Source\PSoC4/CyLib.c **** 
 780:.\Generated_Source\PSoC4/CyLib.c ****         /* Delay ~ 3LFCK in order to male sure previos changes are applied */
 781:.\Generated_Source\PSoC4/CyLib.c ****         CyDelayUs(CY_SYS_WDT_3LFCLK_DELAY_US);
 782:.\Generated_Source\PSoC4/CyLib.c **** 
 783:.\Generated_Source\PSoC4/CyLib.c ****         regValue = CY_SYS_WDT_MATCH_REG;
 784:.\Generated_Source\PSoC4/CyLib.c ****         regValue &= (uint32)~((uint32)(CY_SYS_WDT_LOWER_16BITS_MASK << (counterNum * CY_SYS_WDT_CNT
 785:.\Generated_Source\PSoC4/CyLib.c ****         CY_SYS_WDT_MATCH_REG = (regValue | (match << (counterNum * CY_SYS_WDT_CNT_MATCH_SHIFT)));
 786:.\Generated_Source\PSoC4/CyLib.c ****     }
 787:.\Generated_Source\PSoC4/CyLib.c **** 
 788:.\Generated_Source\PSoC4/CyLib.c **** 
 789:.\Generated_Source\PSoC4/CyLib.c ****     /*******************************************************************************
 790:.\Generated_Source\PSoC4/CyLib.c ****     * Function Name: CySysWdtWriteToggleBit
 791:.\Generated_Source\PSoC4/CyLib.c ****     ********************************************************************************
 792:.\Generated_Source\PSoC4/CyLib.c ****     *
 793:.\Generated_Source\PSoC4/CyLib.c ****     * Summary:
 794:.\Generated_Source\PSoC4/CyLib.c ****     *  Configures which bit in the WDT counter 2 to monitor for a toggle.  When that
 795:.\Generated_Source\PSoC4/CyLib.c ****     *  bit toggles an interrupt is generated if the mode for counter 2 has
 796:.\Generated_Source\PSoC4/CyLib.c ****     *  interrupts enabled.
 797:.\Generated_Source\PSoC4/CyLib.c ****     *
 798:.\Generated_Source\PSoC4/CyLib.c ****     * Parameters:
 799:.\Generated_Source\PSoC4/CyLib.c ****     *  bit:
 800:.\Generated_Source\PSoC4/CyLib.c ****     *   Valid range [0-31].  Counter 2 bit to monitor for a toggle.
 801:.\Generated_Source\PSoC4/CyLib.c ****     *
 802:.\Generated_Source\PSoC4/CyLib.c ****     * Return:
 803:.\Generated_Source\PSoC4/CyLib.c ****     *   None
 804:.\Generated_Source\PSoC4/CyLib.c ****     *
 805:.\Generated_Source\PSoC4/CyLib.c ****     * Side effects:
 806:.\Generated_Source\PSoC4/CyLib.c ****     *   WDT counter 2 should be disabled. Othetwise function
 807:.\Generated_Source\PSoC4/CyLib.c ****     *   call will have no effect.
 808:.\Generated_Source\PSoC4/CyLib.c ****     *   This API enables ILO, if it was disabled.
 809:.\Generated_Source\PSoC4/CyLib.c ****     *
 810:.\Generated_Source\PSoC4/CyLib.c ****     *******************************************************************************/
 811:.\Generated_Source\PSoC4/CyLib.c ****     void CySysWdtWriteToggleBit(uint32 bits)
 812:.\Generated_Source\PSoC4/CyLib.c ****     {
 813:.\Generated_Source\PSoC4/CyLib.c ****         uint32 configRegValue;
 814:.\Generated_Source\PSoC4/CyLib.c **** 
 815:.\Generated_Source\PSoC4/CyLib.c ****         if (0u == CySysWdtReadEnabledStatus(CY_SYS_WDT_COUNTER2))
 816:.\Generated_Source\PSoC4/CyLib.c ****         {
 817:.\Generated_Source\PSoC4/CyLib.c ****             /* Configuring the WDT involves passing control signals between clock domains,
 818:.\Generated_Source\PSoC4/CyLib.c ****             * which requires the ILO to be enabled.
 819:.\Generated_Source\PSoC4/CyLib.c ****             */
 820:.\Generated_Source\PSoC4/CyLib.c ****             if (0u == (CY_SYS_CLK_ILO_CONFIG_REG & CY_SYS_CLK_ILO_CONFIG_ENABLE))
 821:.\Generated_Source\PSoC4/CyLib.c ****             {
 822:.\Generated_Source\PSoC4/CyLib.c ****                 CySysClkIloStart();
 823:.\Generated_Source\PSoC4/CyLib.c ****             }
 824:.\Generated_Source\PSoC4/CyLib.c **** 
 825:.\Generated_Source\PSoC4/CyLib.c ****             configRegValue = CY_SYS_WDT_CONFIG_REG;
 826:.\Generated_Source\PSoC4/CyLib.c ****             configRegValue &= (uint32)(~((uint32)(CY_SYS_WDT_CONFIG_BITS2_MASK << CY_SYS_WDT_CONFIG
 827:.\Generated_Source\PSoC4/CyLib.c ****             configRegValue |= ((bits & CY_SYS_WDT_CONFIG_BITS2_MASK) << CY_SYS_WDT_CONFIG_BITS2_POS
 828:.\Generated_Source\PSoC4/CyLib.c ****             CY_SYS_WDT_CONFIG_REG = configRegValue;
 829:.\Generated_Source\PSoC4/CyLib.c ****         }
 830:.\Generated_Source\PSoC4/CyLib.c ****     }
 831:.\Generated_Source\PSoC4/CyLib.c **** 
 832:.\Generated_Source\PSoC4/CyLib.c **** 
 833:.\Generated_Source\PSoC4/CyLib.c ****     /*******************************************************************************
 834:.\Generated_Source\PSoC4/CyLib.c ****     * Function Name: CySysWdtReadToggleBit
ARM GAS  C:\Users\vrnk\AppData\Local\Temp\cchVr3qk.s 			page 22


 835:.\Generated_Source\PSoC4/CyLib.c ****     ********************************************************************************
 836:.\Generated_Source\PSoC4/CyLib.c ****     *
 837:.\Generated_Source\PSoC4/CyLib.c ****     * Summary:
 838:.\Generated_Source\PSoC4/CyLib.c ****     *  Reads which bit in the WDT counter 2 is monitored for a toggle.
 839:.\Generated_Source\PSoC4/CyLib.c ****     *
 840:.\Generated_Source\PSoC4/CyLib.c ****     * Parameters:
 841:.\Generated_Source\PSoC4/CyLib.c ****     *  None
 842:.\Generated_Source\PSoC4/CyLib.c ****     *
 843:.\Generated_Source\PSoC4/CyLib.c ****     * Return:
 844:.\Generated_Source\PSoC4/CyLib.c ****     *  Bit that is monitored (range of 0 to 31)
 845:.\Generated_Source\PSoC4/CyLib.c ****     *
 846:.\Generated_Source\PSoC4/CyLib.c ****     *******************************************************************************/
 847:.\Generated_Source\PSoC4/CyLib.c ****     uint32 CySysWdtReadToggleBit(void)
 848:.\Generated_Source\PSoC4/CyLib.c ****     {
 849:.\Generated_Source\PSoC4/CyLib.c ****         return ((CY_SYS_WDT_CONFIG_REG >> CY_SYS_WDT_CONFIG_BITS2_POS) & CY_SYS_WDT_CONFIG_BITS2_MA
 850:.\Generated_Source\PSoC4/CyLib.c ****     }
 851:.\Generated_Source\PSoC4/CyLib.c **** 
 852:.\Generated_Source\PSoC4/CyLib.c **** 
 853:.\Generated_Source\PSoC4/CyLib.c ****     /*******************************************************************************
 854:.\Generated_Source\PSoC4/CyLib.c ****     * Function Name: CySysWdtReadMatch
 855:.\Generated_Source\PSoC4/CyLib.c ****     ********************************************************************************
 856:.\Generated_Source\PSoC4/CyLib.c ****     *
 857:.\Generated_Source\PSoC4/CyLib.c ****     * Summary:
 858:.\Generated_Source\PSoC4/CyLib.c ****     *  Reads the WDT counter match comparison value.
 859:.\Generated_Source\PSoC4/CyLib.c ****     *
 860:.\Generated_Source\PSoC4/CyLib.c ****     * Parameters:
 861:.\Generated_Source\PSoC4/CyLib.c ****     *  counterNum: Valid range [0-1].  Number of the WDT counter.  Match values
 862:.\Generated_Source\PSoC4/CyLib.c ****     *               are not supported by counter 2.
 863:.\Generated_Source\PSoC4/CyLib.c ****     *
 864:.\Generated_Source\PSoC4/CyLib.c ****     * Return:
 865:.\Generated_Source\PSoC4/CyLib.c ****     *  Counter match value
 866:.\Generated_Source\PSoC4/CyLib.c ****     *
 867:.\Generated_Source\PSoC4/CyLib.c ****     *******************************************************************************/
 868:.\Generated_Source\PSoC4/CyLib.c ****     uint32 CySysWdtReadMatch(uint32 counterNum)
 869:.\Generated_Source\PSoC4/CyLib.c ****     {
 870:.\Generated_Source\PSoC4/CyLib.c ****         CYASSERT((counterNum == CY_SYS_WDT_COUNTER0) ||
 871:.\Generated_Source\PSoC4/CyLib.c ****                                              (counterNum == CY_SYS_WDT_COUNTER1));
 872:.\Generated_Source\PSoC4/CyLib.c ****         return ((uint32)(CY_SYS_WDT_MATCH_REG >> (counterNum * CY_SYS_WDT_CNT_MATCH_SHIFT)) & CY_SY
 873:.\Generated_Source\PSoC4/CyLib.c ****     }
 874:.\Generated_Source\PSoC4/CyLib.c **** 
 875:.\Generated_Source\PSoC4/CyLib.c **** 
 876:.\Generated_Source\PSoC4/CyLib.c ****     /*******************************************************************************
 877:.\Generated_Source\PSoC4/CyLib.c ****     * Function Name: CySysWdtReadCount
 878:.\Generated_Source\PSoC4/CyLib.c ****     ********************************************************************************
 879:.\Generated_Source\PSoC4/CyLib.c ****     *
 880:.\Generated_Source\PSoC4/CyLib.c ****     * Summary:
 881:.\Generated_Source\PSoC4/CyLib.c ****     *  Reads the current WDT counter value.
 882:.\Generated_Source\PSoC4/CyLib.c ****     *
 883:.\Generated_Source\PSoC4/CyLib.c ****     * Parameters:
 884:.\Generated_Source\PSoC4/CyLib.c ****     *  counterNum: Valid range [0-2].  Number of the WDT counter.
 885:.\Generated_Source\PSoC4/CyLib.c ****     *
 886:.\Generated_Source\PSoC4/CyLib.c ****     * Return:
 887:.\Generated_Source\PSoC4/CyLib.c ****     *  Live counter value.  Counter 0 and 1 are 16 bit counters and counter
 888:.\Generated_Source\PSoC4/CyLib.c ****     *  2 is a 32 bit counter.
 889:.\Generated_Source\PSoC4/CyLib.c ****     *
 890:.\Generated_Source\PSoC4/CyLib.c ****     *******************************************************************************/
 891:.\Generated_Source\PSoC4/CyLib.c ****     uint32 CySysWdtReadCount(uint32 counterNum)
ARM GAS  C:\Users\vrnk\AppData\Local\Temp\cchVr3qk.s 			page 23


 892:.\Generated_Source\PSoC4/CyLib.c ****     {
 893:.\Generated_Source\PSoC4/CyLib.c ****         uint32 regValue = 0u;
 894:.\Generated_Source\PSoC4/CyLib.c **** 
 895:.\Generated_Source\PSoC4/CyLib.c ****         switch(counterNum)
 896:.\Generated_Source\PSoC4/CyLib.c ****         {
 897:.\Generated_Source\PSoC4/CyLib.c ****             /* WDT Counter 0 */
 898:.\Generated_Source\PSoC4/CyLib.c ****             case 0u:
 899:.\Generated_Source\PSoC4/CyLib.c ****                 regValue = CY_SYS_WDT_CTRLOW_REG & CY_SYS_WDT_LOWER_16BITS_MASK;
 900:.\Generated_Source\PSoC4/CyLib.c ****             break;
 901:.\Generated_Source\PSoC4/CyLib.c **** 
 902:.\Generated_Source\PSoC4/CyLib.c ****             /* WDT Counter 1 */
 903:.\Generated_Source\PSoC4/CyLib.c ****             case 1u:
 904:.\Generated_Source\PSoC4/CyLib.c ****                 regValue = (CY_SYS_WDT_CTRLOW_REG >> CY_SYS_WDT_CNT_MATCH_SHIFT) & CY_SYS_WDT_LOWER
 905:.\Generated_Source\PSoC4/CyLib.c ****             break;
 906:.\Generated_Source\PSoC4/CyLib.c **** 
 907:.\Generated_Source\PSoC4/CyLib.c ****             /* WDT Counter 2 */
 908:.\Generated_Source\PSoC4/CyLib.c ****             case 2u:
 909:.\Generated_Source\PSoC4/CyLib.c ****                 regValue = CY_SYS_WDT_CTRHIGH_REG;
 910:.\Generated_Source\PSoC4/CyLib.c ****             break;
 911:.\Generated_Source\PSoC4/CyLib.c **** 
 912:.\Generated_Source\PSoC4/CyLib.c ****             default:
 913:.\Generated_Source\PSoC4/CyLib.c ****                 CYASSERT(0u != 0u);
 914:.\Generated_Source\PSoC4/CyLib.c ****             break;
 915:.\Generated_Source\PSoC4/CyLib.c ****         }
 916:.\Generated_Source\PSoC4/CyLib.c **** 
 917:.\Generated_Source\PSoC4/CyLib.c ****         return (regValue);
 918:.\Generated_Source\PSoC4/CyLib.c ****     }
 919:.\Generated_Source\PSoC4/CyLib.c **** 
 920:.\Generated_Source\PSoC4/CyLib.c **** 
 921:.\Generated_Source\PSoC4/CyLib.c ****     /*******************************************************************************
 922:.\Generated_Source\PSoC4/CyLib.c ****     * Function Name: CySysWdtGetInterruptSource
 923:.\Generated_Source\PSoC4/CyLib.c ****     ********************************************************************************
 924:.\Generated_Source\PSoC4/CyLib.c ****     *
 925:.\Generated_Source\PSoC4/CyLib.c ****     * Summary:
 926:.\Generated_Source\PSoC4/CyLib.c ****     *   Reads a mask containing all the WDT counters interrupts that are currently
 927:.\Generated_Source\PSoC4/CyLib.c ****     *   set by hardware, if corresponding mode is selected.
 928:.\Generated_Source\PSoC4/CyLib.c ****     *
 929:.\Generated_Source\PSoC4/CyLib.c ****     * Parameters:
 930:.\Generated_Source\PSoC4/CyLib.c ****     *   None
 931:.\Generated_Source\PSoC4/CyLib.c ****     *
 932:.\Generated_Source\PSoC4/CyLib.c ****     * Return:
 933:.\Generated_Source\PSoC4/CyLib.c ****     *   Mask of interrupts set.
 934:.\Generated_Source\PSoC4/CyLib.c ****     *   Define                    Counter
 935:.\Generated_Source\PSoC4/CyLib.c ****     *   CY_SYS_WDT_COUNTER0_INT    0
 936:.\Generated_Source\PSoC4/CyLib.c ****     *   CY_SYS_WDT_COUNTER1_INT    1
 937:.\Generated_Source\PSoC4/CyLib.c ****     *   CY_SYS_WDT_COUNTER2_INT    2
 938:.\Generated_Source\PSoC4/CyLib.c ****     *
 939:.\Generated_Source\PSoC4/CyLib.c ****     *******************************************************************************/
 940:.\Generated_Source\PSoC4/CyLib.c ****     uint32 CySysWdtGetInterruptSource(void)
 941:.\Generated_Source\PSoC4/CyLib.c ****     {
 942:.\Generated_Source\PSoC4/CyLib.c ****         return (CY_SYS_WDT_CONTROL_REG & (CY_SYS_WDT_COUNTER0_INT | CY_SYS_WDT_COUNTER1_INT | CY_SY
 943:.\Generated_Source\PSoC4/CyLib.c ****     }
 944:.\Generated_Source\PSoC4/CyLib.c **** 
 945:.\Generated_Source\PSoC4/CyLib.c **** 
 946:.\Generated_Source\PSoC4/CyLib.c ****     /*******************************************************************************
 947:.\Generated_Source\PSoC4/CyLib.c ****     * Function Name: CySysWdtClearInterrupt
 948:.\Generated_Source\PSoC4/CyLib.c ****     ********************************************************************************
ARM GAS  C:\Users\vrnk\AppData\Local\Temp\cchVr3qk.s 			page 24


 949:.\Generated_Source\PSoC4/CyLib.c ****     *
 950:.\Generated_Source\PSoC4/CyLib.c ****     * Summary:
 951:.\Generated_Source\PSoC4/CyLib.c ****     *   Clears all WDT counter interrupts set in the mask. Calling this API also
 952:.\Generated_Source\PSoC4/CyLib.c ****     *   prevents Reset from happening when counter mode is set to generate
 953:.\Generated_Source\PSoC4/CyLib.c ****     *   3 interrupts and then reset device.
 954:.\Generated_Source\PSoC4/CyLib.c ****     *   All WDT interrupts are to be cleared by firmware, otherwise interrupts will
 955:.\Generated_Source\PSoC4/CyLib.c ****     *   be generated continuously.
 956:.\Generated_Source\PSoC4/CyLib.c ****     *
 957:.\Generated_Source\PSoC4/CyLib.c ****     * Parameters:
 958:.\Generated_Source\PSoC4/CyLib.c ****     *   counterMask: Mask of all counters to enable
 959:.\Generated_Source\PSoC4/CyLib.c ****     *   Define                    Counter
 960:.\Generated_Source\PSoC4/CyLib.c ****     *   CY_SYS_WDT_COUNTER0_INT    0
 961:.\Generated_Source\PSoC4/CyLib.c ****     *   CY_SYS_WDT_COUNTER1_INT    1
 962:.\Generated_Source\PSoC4/CyLib.c ****     *   CY_SYS_WDT_COUNTER2_INT    2
 963:.\Generated_Source\PSoC4/CyLib.c ****     *
 964:.\Generated_Source\PSoC4/CyLib.c ****     * Return:
 965:.\Generated_Source\PSoC4/CyLib.c ****     *   None
 966:.\Generated_Source\PSoC4/CyLib.c ****     *
 967:.\Generated_Source\PSoC4/CyLib.c ****     * Side effects:
 968:.\Generated_Source\PSoC4/CyLib.c ****     *   This API enables ILO, if it was disabled and temporary removes Watchdog
 969:.\Generated_Source\PSoC4/CyLib.c ****     *   lock, if it was set, and restores lock state, after cleaning WDT interrupts,
 970:.\Generated_Source\PSoC4/CyLib.c ****     *   that are set in mask.
 971:.\Generated_Source\PSoC4/CyLib.c ****     *
 972:.\Generated_Source\PSoC4/CyLib.c ****     *******************************************************************************/
 973:.\Generated_Source\PSoC4/CyLib.c ****     void CySysWdtClearInterrupt(uint32 counterMask)
 974:.\Generated_Source\PSoC4/CyLib.c ****     {
 975:.\Generated_Source\PSoC4/CyLib.c ****         uint8 interruptState;
 976:.\Generated_Source\PSoC4/CyLib.c ****         uint32 wdtLockState;
 977:.\Generated_Source\PSoC4/CyLib.c **** 
 978:.\Generated_Source\PSoC4/CyLib.c ****         interruptState = CyEnterCriticalSection();
 979:.\Generated_Source\PSoC4/CyLib.c **** 
 980:.\Generated_Source\PSoC4/CyLib.c ****         /* Configuring the WDT involves passing control signals between clock domains,
 981:.\Generated_Source\PSoC4/CyLib.c ****         * which requires the ILO to be enabled.
 982:.\Generated_Source\PSoC4/CyLib.c ****         */
 983:.\Generated_Source\PSoC4/CyLib.c ****         if (0u == (CY_SYS_CLK_ILO_CONFIG_REG & CY_SYS_CLK_ILO_CONFIG_ENABLE))
 984:.\Generated_Source\PSoC4/CyLib.c ****         {
 985:.\Generated_Source\PSoC4/CyLib.c ****             CySysClkIloStart();
 986:.\Generated_Source\PSoC4/CyLib.c ****         }
 987:.\Generated_Source\PSoC4/CyLib.c **** 
 988:.\Generated_Source\PSoC4/CyLib.c ****         if ((CY_SYS_CLK_SELECT_REG & (uint32)(CY_SYS_WDT_CLK_LOCK_BITS_MASK)) == CY_SYS_WDT_CLK_LOC
 989:.\Generated_Source\PSoC4/CyLib.c ****         {
 990:.\Generated_Source\PSoC4/CyLib.c ****             wdtLockState = 1u;
 991:.\Generated_Source\PSoC4/CyLib.c **** 
 992:.\Generated_Source\PSoC4/CyLib.c ****             /* Removing WDT lock requires two writes */
 993:.\Generated_Source\PSoC4/CyLib.c ****             CY_SYS_CLK_SELECT_REG = ((CY_SYS_CLK_SELECT_REG & (uint32)(~CY_SYS_WDT_CLK_LOCK_BITS_MA
 994:.\Generated_Source\PSoC4/CyLib.c ****                     CY_SYS_WDT_CLK_LOCK_BIT0);
 995:.\Generated_Source\PSoC4/CyLib.c **** 
 996:.\Generated_Source\PSoC4/CyLib.c ****             CY_SYS_CLK_SELECT_REG = ((CY_SYS_CLK_SELECT_REG & (uint32)(~CY_SYS_WDT_CLK_LOCK_BITS_MA
 997:.\Generated_Source\PSoC4/CyLib.c ****                     CY_SYS_WDT_CLK_LOCK_BIT1);
 998:.\Generated_Source\PSoC4/CyLib.c ****         }
 999:.\Generated_Source\PSoC4/CyLib.c ****         else
1000:.\Generated_Source\PSoC4/CyLib.c ****         {
1001:.\Generated_Source\PSoC4/CyLib.c ****             wdtLockState = 0u;
1002:.\Generated_Source\PSoC4/CyLib.c ****         }
1003:.\Generated_Source\PSoC4/CyLib.c **** 
1004:.\Generated_Source\PSoC4/CyLib.c ****         /* Set the new WDT control register value */
1005:.\Generated_Source\PSoC4/CyLib.c ****         CY_SYS_WDT_CONTROL_REG |= (counterMask & (CY_SYS_WDT_COUNTER0_INT |
ARM GAS  C:\Users\vrnk\AppData\Local\Temp\cchVr3qk.s 			page 25


1006:.\Generated_Source\PSoC4/CyLib.c ****             CY_SYS_WDT_COUNTER1_INT | CY_SYS_WDT_COUNTER2_INT));
1007:.\Generated_Source\PSoC4/CyLib.c **** 
1008:.\Generated_Source\PSoC4/CyLib.c ****         if (1u == wdtLockState)
1009:.\Generated_Source\PSoC4/CyLib.c ****         {
1010:.\Generated_Source\PSoC4/CyLib.c ****             /* CLK_SELECT register's bits 15:14 are WDT_LOCK */
1011:.\Generated_Source\PSoC4/CyLib.c ****             CY_SYS_CLK_SELECT_REG = (CY_SYS_CLK_SELECT_REG & (uint32)(~CY_SYS_WDT_CLK_LOCK_BITS_MAS
1012:.\Generated_Source\PSoC4/CyLib.c ****                      CY_SYS_WDT_CLK_LOCK_BITS_MASK;
1013:.\Generated_Source\PSoC4/CyLib.c ****         }
1014:.\Generated_Source\PSoC4/CyLib.c **** 
1015:.\Generated_Source\PSoC4/CyLib.c ****         CyExitCriticalSection(interruptState);
1016:.\Generated_Source\PSoC4/CyLib.c ****     }
1017:.\Generated_Source\PSoC4/CyLib.c **** 
1018:.\Generated_Source\PSoC4/CyLib.c **** 
1019:.\Generated_Source\PSoC4/CyLib.c ****     /*******************************************************************************
1020:.\Generated_Source\PSoC4/CyLib.c ****     * Function Name: CySysWdtResetCounters
1021:.\Generated_Source\PSoC4/CyLib.c ****     ********************************************************************************
1022:.\Generated_Source\PSoC4/CyLib.c ****     *
1023:.\Generated_Source\PSoC4/CyLib.c ****     * Summary:
1024:.\Generated_Source\PSoC4/CyLib.c ****     *  Resets all WDT counters set in the mask.
1025:.\Generated_Source\PSoC4/CyLib.c ****     *
1026:.\Generated_Source\PSoC4/CyLib.c ****     * Parameters:
1027:.\Generated_Source\PSoC4/CyLib.c ****     *  counterMask: Mask of all counters to reset.
1028:.\Generated_Source\PSoC4/CyLib.c ****     *   Define                       Counter
1029:.\Generated_Source\PSoC4/CyLib.c ****     *   CY_SYS_WDT_COUNTER0_RESET    0
1030:.\Generated_Source\PSoC4/CyLib.c ****     *   CY_SYS_WDT_COUNTER1_RESET    1
1031:.\Generated_Source\PSoC4/CyLib.c ****     *   CY_SYS_WDT_COUNTER2_RESET    2
1032:.\Generated_Source\PSoC4/CyLib.c ****     *
1033:.\Generated_Source\PSoC4/CyLib.c ****     * Return:
1034:.\Generated_Source\PSoC4/CyLib.c ****     *   None
1035:.\Generated_Source\PSoC4/CyLib.c ****     *
1036:.\Generated_Source\PSoC4/CyLib.c ****     * Side effects:
1037:.\Generated_Source\PSoC4/CyLib.c ****     *   This API enables ILO, if it was disabled, this API call will not reset
1038:.\Generated_Source\PSoC4/CyLib.c ****     *   counter values, if Watchdog is locked.
1039:.\Generated_Source\PSoC4/CyLib.c ****     *
1040:.\Generated_Source\PSoC4/CyLib.c ****     *******************************************************************************/
1041:.\Generated_Source\PSoC4/CyLib.c ****     void CySysWdtResetCounters(uint32 countersMask)
1042:.\Generated_Source\PSoC4/CyLib.c ****     {
1043:.\Generated_Source\PSoC4/CyLib.c ****         /* Configuring the WDT involves passing control signals between clock domains,
1044:.\Generated_Source\PSoC4/CyLib.c ****         * which requires the ILO to be enabled.
1045:.\Generated_Source\PSoC4/CyLib.c ****         */
1046:.\Generated_Source\PSoC4/CyLib.c ****         if (0u == (CY_SYS_CLK_ILO_CONFIG_REG & CY_SYS_CLK_ILO_CONFIG_ENABLE))
1047:.\Generated_Source\PSoC4/CyLib.c ****         {
1048:.\Generated_Source\PSoC4/CyLib.c ****             CySysClkIloStart();
1049:.\Generated_Source\PSoC4/CyLib.c ****         }
1050:.\Generated_Source\PSoC4/CyLib.c **** 
1051:.\Generated_Source\PSoC4/CyLib.c ****         /* Set the new WDT reset value */
1052:.\Generated_Source\PSoC4/CyLib.c ****         CY_SYS_WDT_CONTROL_REG |= (countersMask & (CY_SYS_WDT_COUNTER0_RESET |
1053:.\Generated_Source\PSoC4/CyLib.c ****             CY_SYS_WDT_COUNTER1_RESET | CY_SYS_WDT_COUNTER2_RESET));
1054:.\Generated_Source\PSoC4/CyLib.c ****     }
1055:.\Generated_Source\PSoC4/CyLib.c **** 
1056:.\Generated_Source\PSoC4/CyLib.c **** #else
1057:.\Generated_Source\PSoC4/CyLib.c **** 
1058:.\Generated_Source\PSoC4/CyLib.c ****     /*******************************************************************************
1059:.\Generated_Source\PSoC4/CyLib.c ****     * Function Name: CySysClkWriteImoFreq
1060:.\Generated_Source\PSoC4/CyLib.c ****     ********************************************************************************
1061:.\Generated_Source\PSoC4/CyLib.c ****     *
1062:.\Generated_Source\PSoC4/CyLib.c ****     * Summary:
ARM GAS  C:\Users\vrnk\AppData\Local\Temp\cchVr3qk.s 			page 26


1063:.\Generated_Source\PSoC4/CyLib.c ****     *  Sets the frequency of the IMO.
1064:.\Generated_Source\PSoC4/CyLib.c ****     *
1065:.\Generated_Source\PSoC4/CyLib.c ****     * Parameters:
1066:.\Generated_Source\PSoC4/CyLib.c ****     *  freq: Valid range [24-48] with step size equal to 4.
1067:.\Generated_Source\PSoC4/CyLib.c ****     *        Frequency for operation of the IMO.
1068:.\Generated_Source\PSoC4/CyLib.c ****     *  Note: Invalid frequency will be ignored.
1069:.\Generated_Source\PSoC4/CyLib.c ****     *
1070:.\Generated_Source\PSoC4/CyLib.c ****     * Return:
1071:.\Generated_Source\PSoC4/CyLib.c ****     *  None
1072:.\Generated_Source\PSoC4/CyLib.c ****     *
1073:.\Generated_Source\PSoC4/CyLib.c ****     * Side Effects:
1074:.\Generated_Source\PSoC4/CyLib.c ****     *  If the SYSCLK clock frequency increases during device operation, call
1075:.\Generated_Source\PSoC4/CyLib.c ****     *  CySysFlashSetWaitCycles() with the appropriate parameter to adjust the number
1076:.\Generated_Source\PSoC4/CyLib.c ****     *  of clock cycles cache will wait before sampling data coming back from Flash.
1077:.\Generated_Source\PSoC4/CyLib.c ****     *  If the SYSCLK clock frequency decreases, you can call CyFlash_SetWaitCycles()
1078:.\Generated_Source\PSoC4/CyLib.c ****     *  to improve CPU performance. See CySysFlashSetWaitCycles() for more
1079:.\Generated_Source\PSoC4/CyLib.c ****     *  information.
1080:.\Generated_Source\PSoC4/CyLib.c ****     *
1081:.\Generated_Source\PSoC4/CyLib.c ****     *******************************************************************************/
1082:.\Generated_Source\PSoC4/CyLib.c ****     void CySysClkWriteImoFreq(uint32 freq)
1083:.\Generated_Source\PSoC4/CyLib.c ****     {
1084:.\Generated_Source\PSoC4/CyLib.c ****         uint8  interruptState;
1085:.\Generated_Source\PSoC4/CyLib.c **** 
1086:.\Generated_Source\PSoC4/CyLib.c ****         /* IMO frequency constrained to 24MHz-48MHz */
1087:.\Generated_Source\PSoC4/CyLib.c ****         if ((freq >= CY_SYS_CLK_IMO_MIN_FREQ_MHZ) &&
1088:.\Generated_Source\PSoC4/CyLib.c ****             (freq <= CY_SYS_CLK_IMO_MAX_FREQ_MHZ) &&
1089:.\Generated_Source\PSoC4/CyLib.c ****             ((freq & 3u) == 0u))
1090:.\Generated_Source\PSoC4/CyLib.c ****         {
1091:.\Generated_Source\PSoC4/CyLib.c ****             interruptState = CyEnterCriticalSection();
1092:.\Generated_Source\PSoC4/CyLib.c **** 
1093:.\Generated_Source\PSoC4/CyLib.c ****             CY_SYS_CLK_IMO_TRIM1_REG = 0u;
1094:.\Generated_Source\PSoC4/CyLib.c ****             CY_SYS_CLK_IMO_TRIM2_REG = 0u;
1095:.\Generated_Source\PSoC4/CyLib.c ****             CY_SYS_CLK_IMO_SELECT_REG = (freq - CY_SYS_CLK_IMO_MIN_FREQ_MHZ) >> 2u;
1096:.\Generated_Source\PSoC4/CyLib.c ****             CY_SYS_CLK_IMO_TRIM3_REG = CY_SFLASH_IMO_TCTRIM_REG(freq - CY_SYS_CLK_IMO_MIN_FREQ_MHZ)
1097:.\Generated_Source\PSoC4/CyLib.c ****             CY_SYS_CLK_IMO_TRIM1_REG = CY_SFLASH_IMO_TRIM_REG(freq - CY_SYS_CLK_IMO_MIN_FREQ_MHZ);
1098:.\Generated_Source\PSoC4/CyLib.c **** 
1099:.\Generated_Source\PSoC4/CyLib.c ****             CyExitCriticalSection(interruptState);
1100:.\Generated_Source\PSoC4/CyLib.c ****         }
1101:.\Generated_Source\PSoC4/CyLib.c ****         else
1102:.\Generated_Source\PSoC4/CyLib.c ****         {
1103:.\Generated_Source\PSoC4/CyLib.c ****             /* Halt CPU in debug mode if new frequency is invalid */
1104:.\Generated_Source\PSoC4/CyLib.c ****             CYASSERT(0u != 0u);
1105:.\Generated_Source\PSoC4/CyLib.c ****         }
1106:.\Generated_Source\PSoC4/CyLib.c ****     }
1107:.\Generated_Source\PSoC4/CyLib.c **** 
1108:.\Generated_Source\PSoC4/CyLib.c **** 
1109:.\Generated_Source\PSoC4/CyLib.c ****     /*******************************************************************************
1110:.\Generated_Source\PSoC4/CyLib.c ****     * Function Name: CySysWdtReadEnabledStatus
1111:.\Generated_Source\PSoC4/CyLib.c ****     ********************************************************************************
1112:.\Generated_Source\PSoC4/CyLib.c ****     *
1113:.\Generated_Source\PSoC4/CyLib.c ****     * Summary:
1114:.\Generated_Source\PSoC4/CyLib.c ****     *  Reads the enabled staus WDT counter.
1115:.\Generated_Source\PSoC4/CyLib.c ****     *
1116:.\Generated_Source\PSoC4/CyLib.c ****     * Parameters:
1117:.\Generated_Source\PSoC4/CyLib.c ****     *  None
1118:.\Generated_Source\PSoC4/CyLib.c ****     *
1119:.\Generated_Source\PSoC4/CyLib.c ****     * Return:
ARM GAS  C:\Users\vrnk\AppData\Local\Temp\cchVr3qk.s 			page 27


1120:.\Generated_Source\PSoC4/CyLib.c ****     *  Status of WDT counter:
1121:.\Generated_Source\PSoC4/CyLib.c ****     *   0 - counter is disabled
1122:.\Generated_Source\PSoC4/CyLib.c ****     *   1 - counter is enabled
1123:.\Generated_Source\PSoC4/CyLib.c ****     *
1124:.\Generated_Source\PSoC4/CyLib.c ****     * Side Effects:
1125:.\Generated_Source\PSoC4/CyLib.c ****     *  None
1126:.\Generated_Source\PSoC4/CyLib.c ****     *
1127:.\Generated_Source\PSoC4/CyLib.c ****     *******************************************************************************/
1128:.\Generated_Source\PSoC4/CyLib.c ****     uint32 CySysWdtReadEnabledStatus(void)
1129:.\Generated_Source\PSoC4/CyLib.c ****     {
1130:.\Generated_Source\PSoC4/CyLib.c ****         return ((CY_SYS_WDT_DISABLE_KEY_REG == CY_SYS_WDT_KEY) ? 0u : 1u);
1131:.\Generated_Source\PSoC4/CyLib.c ****     }
1132:.\Generated_Source\PSoC4/CyLib.c **** 
1133:.\Generated_Source\PSoC4/CyLib.c **** 
1134:.\Generated_Source\PSoC4/CyLib.c ****     /*******************************************************************************
1135:.\Generated_Source\PSoC4/CyLib.c ****     * Function Name: CySysWdtEnable
1136:.\Generated_Source\PSoC4/CyLib.c ****     ********************************************************************************
1137:.\Generated_Source\PSoC4/CyLib.c ****     *
1138:.\Generated_Source\PSoC4/CyLib.c ****     * Summary:
1139:.\Generated_Source\PSoC4/CyLib.c ****     *  Enables the WDT counter.
1140:.\Generated_Source\PSoC4/CyLib.c ****     *
1141:.\Generated_Source\PSoC4/CyLib.c ****     * Parameters:
1142:.\Generated_Source\PSoC4/CyLib.c ****     *  None
1143:.\Generated_Source\PSoC4/CyLib.c ****     *
1144:.\Generated_Source\PSoC4/CyLib.c ****     * Return:
1145:.\Generated_Source\PSoC4/CyLib.c ****     *  None
1146:.\Generated_Source\PSoC4/CyLib.c ****     *
1147:.\Generated_Source\PSoC4/CyLib.c ****     * Side Effects:
1148:.\Generated_Source\PSoC4/CyLib.c ****     *  This API enables ILO, if it was disabled.
1149:.\Generated_Source\PSoC4/CyLib.c ****     *
1150:.\Generated_Source\PSoC4/CyLib.c ****     *******************************************************************************/
1151:.\Generated_Source\PSoC4/CyLib.c ****     void CySysWdtEnable(void)
1152:.\Generated_Source\PSoC4/CyLib.c ****     {
1153:.\Generated_Source\PSoC4/CyLib.c ****         /* Configuring the WDT involves passing control signals between clock domains,
1154:.\Generated_Source\PSoC4/CyLib.c ****         * which requires the ILO to be enabled.
1155:.\Generated_Source\PSoC4/CyLib.c ****         */
1156:.\Generated_Source\PSoC4/CyLib.c ****         if (0u == (CY_SYS_CLK_ILO_CONFIG_REG & CY_SYS_CLK_ILO_CONFIG_ENABLE))
1157:.\Generated_Source\PSoC4/CyLib.c ****         {
1158:.\Generated_Source\PSoC4/CyLib.c ****             CySysClkIloStart();
1159:.\Generated_Source\PSoC4/CyLib.c ****         }
1160:.\Generated_Source\PSoC4/CyLib.c **** 
1161:.\Generated_Source\PSoC4/CyLib.c ****         CY_SYS_WDT_DISABLE_KEY_REG = 0u;
1162:.\Generated_Source\PSoC4/CyLib.c ****     }
1163:.\Generated_Source\PSoC4/CyLib.c **** 
1164:.\Generated_Source\PSoC4/CyLib.c **** 
1165:.\Generated_Source\PSoC4/CyLib.c ****     /*******************************************************************************
1166:.\Generated_Source\PSoC4/CyLib.c ****     * Function Name: CySysWdtDisable
1167:.\Generated_Source\PSoC4/CyLib.c ****     ********************************************************************************
1168:.\Generated_Source\PSoC4/CyLib.c ****     *
1169:.\Generated_Source\PSoC4/CyLib.c ****     * Summary:
1170:.\Generated_Source\PSoC4/CyLib.c ****     *  Disables the WDT counter.
1171:.\Generated_Source\PSoC4/CyLib.c ****     *
1172:.\Generated_Source\PSoC4/CyLib.c ****     * Parameters:
1173:.\Generated_Source\PSoC4/CyLib.c ****     *  None
1174:.\Generated_Source\PSoC4/CyLib.c ****     *
1175:.\Generated_Source\PSoC4/CyLib.c ****     * Return:
1176:.\Generated_Source\PSoC4/CyLib.c ****     *  None
ARM GAS  C:\Users\vrnk\AppData\Local\Temp\cchVr3qk.s 			page 28


1177:.\Generated_Source\PSoC4/CyLib.c ****     *
1178:.\Generated_Source\PSoC4/CyLib.c ****     * Side Effects:
1179:.\Generated_Source\PSoC4/CyLib.c ****     *  In order to disable ILO clock WDT counter should be disabled.
1180:.\Generated_Source\PSoC4/CyLib.c ****     *
1181:.\Generated_Source\PSoC4/CyLib.c ****     *******************************************************************************/
1182:.\Generated_Source\PSoC4/CyLib.c ****     void CySysWdtDisable(void)
1183:.\Generated_Source\PSoC4/CyLib.c ****     {
1184:.\Generated_Source\PSoC4/CyLib.c ****         CY_SYS_WDT_DISABLE_KEY_REG = CY_SYS_WDT_KEY;
1185:.\Generated_Source\PSoC4/CyLib.c ****     }
1186:.\Generated_Source\PSoC4/CyLib.c **** 
1187:.\Generated_Source\PSoC4/CyLib.c **** 
1188:.\Generated_Source\PSoC4/CyLib.c ****     /*******************************************************************************
1189:.\Generated_Source\PSoC4/CyLib.c ****     * Function Name: CySysWdtWriteMatch
1190:.\Generated_Source\PSoC4/CyLib.c ****     ********************************************************************************
1191:.\Generated_Source\PSoC4/CyLib.c ****     *
1192:.\Generated_Source\PSoC4/CyLib.c ****     * Summary:
1193:.\Generated_Source\PSoC4/CyLib.c ****     *  Configures the WDT counter match comparison value.
1194:.\Generated_Source\PSoC4/CyLib.c ****     *
1195:.\Generated_Source\PSoC4/CyLib.c ****     * Parameters:
1196:.\Generated_Source\PSoC4/CyLib.c ****     *  match:
1197:.\Generated_Source\PSoC4/CyLib.c ****     *   Valid range [0-65535]. Value to be used to match against the counter.
1198:.\Generated_Source\PSoC4/CyLib.c ****     *
1199:.\Generated_Source\PSoC4/CyLib.c ****     * Return:
1200:.\Generated_Source\PSoC4/CyLib.c ****     *  None
1201:.\Generated_Source\PSoC4/CyLib.c ****     *
1202:.\Generated_Source\PSoC4/CyLib.c ****     * Side Effects:
1203:.\Generated_Source\PSoC4/CyLib.c ****     *  This API enables ILO, if it was disabled.
1204:.\Generated_Source\PSoC4/CyLib.c ****     *
1205:.\Generated_Source\PSoC4/CyLib.c ****     *******************************************************************************/
1206:.\Generated_Source\PSoC4/CyLib.c ****     void CySysWdtWriteMatch(uint32 match)
1207:.\Generated_Source\PSoC4/CyLib.c ****     {
1208:.\Generated_Source\PSoC4/CyLib.c ****         /* Configuring the WDT involves passing control signals between clock domains,
1209:.\Generated_Source\PSoC4/CyLib.c ****         * which requires the ILO to be enabled.
1210:.\Generated_Source\PSoC4/CyLib.c ****         */
1211:.\Generated_Source\PSoC4/CyLib.c ****         if (0u == (CY_SYS_CLK_ILO_CONFIG_REG & CY_SYS_CLK_ILO_CONFIG_ENABLE))
1212:.\Generated_Source\PSoC4/CyLib.c ****         {
1213:.\Generated_Source\PSoC4/CyLib.c ****             CySysClkIloStart();
1214:.\Generated_Source\PSoC4/CyLib.c ****         }
1215:.\Generated_Source\PSoC4/CyLib.c **** 
1216:.\Generated_Source\PSoC4/CyLib.c ****         CY_SYS_WDT_MATCH_REG = (CY_SYS_WDT_MATCH_REG & (uint32)(~CY_SYS_WDT_MATCH_MASK)) | match;
1217:.\Generated_Source\PSoC4/CyLib.c ****     }
1218:.\Generated_Source\PSoC4/CyLib.c **** 
1219:.\Generated_Source\PSoC4/CyLib.c **** 
1220:.\Generated_Source\PSoC4/CyLib.c ****     /*******************************************************************************
1221:.\Generated_Source\PSoC4/CyLib.c ****     * Function Name: CySysWdtReadMatch
1222:.\Generated_Source\PSoC4/CyLib.c ****     ********************************************************************************
1223:.\Generated_Source\PSoC4/CyLib.c ****     *
1224:.\Generated_Source\PSoC4/CyLib.c ****     * Summary:
1225:.\Generated_Source\PSoC4/CyLib.c ****     *  Reads the WDT counter match comparison value.
1226:.\Generated_Source\PSoC4/CyLib.c ****     *
1227:.\Generated_Source\PSoC4/CyLib.c ****     * Parameters:
1228:.\Generated_Source\PSoC4/CyLib.c ****     *  None
1229:.\Generated_Source\PSoC4/CyLib.c ****     *
1230:.\Generated_Source\PSoC4/CyLib.c ****     * Return:
1231:.\Generated_Source\PSoC4/CyLib.c ****     *  Counter match value
1232:.\Generated_Source\PSoC4/CyLib.c ****     *
1233:.\Generated_Source\PSoC4/CyLib.c ****     * Side Effects:
ARM GAS  C:\Users\vrnk\AppData\Local\Temp\cchVr3qk.s 			page 29


1234:.\Generated_Source\PSoC4/CyLib.c ****     *  None
1235:.\Generated_Source\PSoC4/CyLib.c ****     *
1236:.\Generated_Source\PSoC4/CyLib.c ****     *******************************************************************************/
1237:.\Generated_Source\PSoC4/CyLib.c ****     uint32 CySysWdtReadMatch(void)
1238:.\Generated_Source\PSoC4/CyLib.c ****     {
1239:.\Generated_Source\PSoC4/CyLib.c ****         return (CY_SYS_WDT_MATCH_REG & CY_SYS_WDT_MATCH_MASK);
1240:.\Generated_Source\PSoC4/CyLib.c ****     }
1241:.\Generated_Source\PSoC4/CyLib.c **** 
1242:.\Generated_Source\PSoC4/CyLib.c **** 
1243:.\Generated_Source\PSoC4/CyLib.c ****     /*******************************************************************************
1244:.\Generated_Source\PSoC4/CyLib.c ****     * Function Name: CySysWdtReadCount
1245:.\Generated_Source\PSoC4/CyLib.c ****     ********************************************************************************
1246:.\Generated_Source\PSoC4/CyLib.c ****     *
1247:.\Generated_Source\PSoC4/CyLib.c ****     * Summary:
1248:.\Generated_Source\PSoC4/CyLib.c ****     *  Reads the current WDT counter value.
1249:.\Generated_Source\PSoC4/CyLib.c ****     *
1250:.\Generated_Source\PSoC4/CyLib.c ****     * Parameters:
1251:.\Generated_Source\PSoC4/CyLib.c ****     *  None
1252:.\Generated_Source\PSoC4/CyLib.c ****     *
1253:.\Generated_Source\PSoC4/CyLib.c ****     * Return:
1254:.\Generated_Source\PSoC4/CyLib.c ****     *  Live counter value
1255:.\Generated_Source\PSoC4/CyLib.c ****     *
1256:.\Generated_Source\PSoC4/CyLib.c ****     * Side Effects:
1257:.\Generated_Source\PSoC4/CyLib.c ****     *  None
1258:.\Generated_Source\PSoC4/CyLib.c ****     *
1259:.\Generated_Source\PSoC4/CyLib.c ****     *******************************************************************************/
1260:.\Generated_Source\PSoC4/CyLib.c ****     uint32 CySysWdtReadCount(void)
1261:.\Generated_Source\PSoC4/CyLib.c ****     {
1262:.\Generated_Source\PSoC4/CyLib.c ****         return ((uint32)CY_SYS_WDT_COUNTER_REG);
1263:.\Generated_Source\PSoC4/CyLib.c ****     }
1264:.\Generated_Source\PSoC4/CyLib.c **** 
1265:.\Generated_Source\PSoC4/CyLib.c **** 
1266:.\Generated_Source\PSoC4/CyLib.c ****     /*******************************************************************************
1267:.\Generated_Source\PSoC4/CyLib.c ****     * Function Name: CySysWdtWriteIgnoreBits
1268:.\Generated_Source\PSoC4/CyLib.c ****     ********************************************************************************
1269:.\Generated_Source\PSoC4/CyLib.c ****     *
1270:.\Generated_Source\PSoC4/CyLib.c ****     * Summary:
1271:.\Generated_Source\PSoC4/CyLib.c ****     *  Configures the number of MSB bits of the watchdog timer that are not
1272:.\Generated_Source\PSoC4/CyLib.c ****     *  checked against match.
1273:.\Generated_Source\PSoC4/CyLib.c ****     *
1274:.\Generated_Source\PSoC4/CyLib.c ****     * Parameters:
1275:.\Generated_Source\PSoC4/CyLib.c ****     *  bitsNum:
1276:.\Generated_Source\PSoC4/CyLib.c ****     *   Valid range [0-15]. Number of MSB bits.
1277:.\Generated_Source\PSoC4/CyLib.c ****     *
1278:.\Generated_Source\PSoC4/CyLib.c ****     * Return:
1279:.\Generated_Source\PSoC4/CyLib.c ****     *  None
1280:.\Generated_Source\PSoC4/CyLib.c ****     *
1281:.\Generated_Source\PSoC4/CyLib.c ****     * Side Effects:
1282:.\Generated_Source\PSoC4/CyLib.c ****     *  The value of bitsNum provides control over the time-to-reset of the watchdog
1283:.\Generated_Source\PSoC4/CyLib.c ****     *  (which happens after 3 successive matches).
1284:.\Generated_Source\PSoC4/CyLib.c ****     *
1285:.\Generated_Source\PSoC4/CyLib.c ****     *******************************************************************************/
1286:.\Generated_Source\PSoC4/CyLib.c ****     void CySysWdtWriteIgnoreBits(uint32 bitsNum)
1287:.\Generated_Source\PSoC4/CyLib.c ****     {
1288:.\Generated_Source\PSoC4/CyLib.c ****         bitsNum = ((uint32)(bitsNum << 16u) & CY_SYS_WDT_IGNORE_BITS_MASK);
1289:.\Generated_Source\PSoC4/CyLib.c ****         CY_SYS_WDT_MATCH_REG = (CY_SYS_WDT_MATCH_REG & (uint32)(~CY_SYS_WDT_IGNORE_BITS_MASK)) | bi
1290:.\Generated_Source\PSoC4/CyLib.c ****     }
ARM GAS  C:\Users\vrnk\AppData\Local\Temp\cchVr3qk.s 			page 30


1291:.\Generated_Source\PSoC4/CyLib.c **** 
1292:.\Generated_Source\PSoC4/CyLib.c **** 
1293:.\Generated_Source\PSoC4/CyLib.c ****     /*******************************************************************************
1294:.\Generated_Source\PSoC4/CyLib.c ****     * Function Name: CySysWdtReadIgnoreBits
1295:.\Generated_Source\PSoC4/CyLib.c ****     ********************************************************************************
1296:.\Generated_Source\PSoC4/CyLib.c ****     *
1297:.\Generated_Source\PSoC4/CyLib.c ****     * Summary:
1298:.\Generated_Source\PSoC4/CyLib.c ****     *  Reads the number of MSB bits of the watchdog timer that are not
1299:.\Generated_Source\PSoC4/CyLib.c ****     *  checked against match.
1300:.\Generated_Source\PSoC4/CyLib.c ****     *
1301:.\Generated_Source\PSoC4/CyLib.c ****     * Parameters:
1302:.\Generated_Source\PSoC4/CyLib.c ****     *  None
1303:.\Generated_Source\PSoC4/CyLib.c ****     *
1304:.\Generated_Source\PSoC4/CyLib.c ****     * Return:
1305:.\Generated_Source\PSoC4/CyLib.c ****     *  Number of MSB bits.
1306:.\Generated_Source\PSoC4/CyLib.c ****     *
1307:.\Generated_Source\PSoC4/CyLib.c ****     * Side Effects:
1308:.\Generated_Source\PSoC4/CyLib.c ****     *  None
1309:.\Generated_Source\PSoC4/CyLib.c ****     *
1310:.\Generated_Source\PSoC4/CyLib.c ****     *******************************************************************************/
1311:.\Generated_Source\PSoC4/CyLib.c ****     uint32 CySysWdtReadIgnoreBits(void)
1312:.\Generated_Source\PSoC4/CyLib.c ****     {
1313:.\Generated_Source\PSoC4/CyLib.c ****         return((uint32)(CY_SYS_WDT_MATCH_REG  >> 16u) & CY_SYS_WDT_IGNORE_BITS_MASK);
1314:.\Generated_Source\PSoC4/CyLib.c ****     }
1315:.\Generated_Source\PSoC4/CyLib.c **** 
1316:.\Generated_Source\PSoC4/CyLib.c **** 
1317:.\Generated_Source\PSoC4/CyLib.c ****     /*******************************************************************************
1318:.\Generated_Source\PSoC4/CyLib.c ****     * Function Name: CySysWdtClearInterrupt
1319:.\Generated_Source\PSoC4/CyLib.c ****     ********************************************************************************
1320:.\Generated_Source\PSoC4/CyLib.c ****     *
1321:.\Generated_Source\PSoC4/CyLib.c ****     * Summary:
1322:.\Generated_Source\PSoC4/CyLib.c ****     *  Cleans WDT match flag, which is set every time WDT counter reaches WDT match
1323:.\Generated_Source\PSoC4/CyLib.c ****     *  value.
1324:.\Generated_Source\PSoC4/CyLib.c ****     *
1325:.\Generated_Source\PSoC4/CyLib.c ****     * Parameters:
1326:.\Generated_Source\PSoC4/CyLib.c ****     *  None
1327:.\Generated_Source\PSoC4/CyLib.c ****     *
1328:.\Generated_Source\PSoC4/CyLib.c ****     * Return:
1329:.\Generated_Source\PSoC4/CyLib.c ****     *  None
1330:.\Generated_Source\PSoC4/CyLib.c ****     *
1331:.\Generated_Source\PSoC4/CyLib.c ****     * Side Effects:
1332:.\Generated_Source\PSoC4/CyLib.c ****     *  Clearing this bit also feeds the watch dog.  Missing 2 interrupts in a row
1333:.\Generated_Source\PSoC4/CyLib.c ****     *  will generate brown-out reset.
1334:.\Generated_Source\PSoC4/CyLib.c ****     *
1335:.\Generated_Source\PSoC4/CyLib.c ****     *******************************************************************************/
1336:.\Generated_Source\PSoC4/CyLib.c ****     void CySysWdtClearInterrupt(void)
1337:.\Generated_Source\PSoC4/CyLib.c ****     {
1338:.\Generated_Source\PSoC4/CyLib.c ****         CY_SYS_SRSS_INTR_REG |= CY_SYS_WDT_LOWER_BIT_MASK;
1339:.\Generated_Source\PSoC4/CyLib.c ****     }
1340:.\Generated_Source\PSoC4/CyLib.c **** 
1341:.\Generated_Source\PSoC4/CyLib.c **** 
1342:.\Generated_Source\PSoC4/CyLib.c ****     /*******************************************************************************
1343:.\Generated_Source\PSoC4/CyLib.c ****     * Function Name: CySysWdtMaskInterrupt
1344:.\Generated_Source\PSoC4/CyLib.c ****     ********************************************************************************
1345:.\Generated_Source\PSoC4/CyLib.c ****     *
1346:.\Generated_Source\PSoC4/CyLib.c ****     * Summary:
1347:.\Generated_Source\PSoC4/CyLib.c ****     *  After masking interrupts from WDT, they are not passed to CPU.
ARM GAS  C:\Users\vrnk\AppData\Local\Temp\cchVr3qk.s 			page 31


1348:.\Generated_Source\PSoC4/CyLib.c ****     *
1349:.\Generated_Source\PSoC4/CyLib.c ****     * Parameters:
1350:.\Generated_Source\PSoC4/CyLib.c ****     *  None
1351:.\Generated_Source\PSoC4/CyLib.c ****     *
1352:.\Generated_Source\PSoC4/CyLib.c ****     * Return:
1353:.\Generated_Source\PSoC4/CyLib.c ****     *  None
1354:.\Generated_Source\PSoC4/CyLib.c ****     *
1355:.\Generated_Source\PSoC4/CyLib.c ****     * Side Effects:
1356:.\Generated_Source\PSoC4/CyLib.c ****     *  This API does notdisable the WDT reset generation on 2 missed interrupts.
1357:.\Generated_Source\PSoC4/CyLib.c ****     *
1358:.\Generated_Source\PSoC4/CyLib.c ****     *******************************************************************************/
1359:.\Generated_Source\PSoC4/CyLib.c ****     void CySysWdtMaskInterrupt(void)
1360:.\Generated_Source\PSoC4/CyLib.c ****     {
1361:.\Generated_Source\PSoC4/CyLib.c ****         CY_SYS_SRSS_INTR_MASK_REG &= (uint32)(~CY_SYS_WDT_LOWER_BIT_MASK);
1362:.\Generated_Source\PSoC4/CyLib.c ****     }
1363:.\Generated_Source\PSoC4/CyLib.c **** 
1364:.\Generated_Source\PSoC4/CyLib.c **** 
1365:.\Generated_Source\PSoC4/CyLib.c ****     /*******************************************************************************
1366:.\Generated_Source\PSoC4/CyLib.c ****     * Function Name: CySysWdtUnmaskInterrupt
1367:.\Generated_Source\PSoC4/CyLib.c ****     ********************************************************************************
1368:.\Generated_Source\PSoC4/CyLib.c ****     *
1369:.\Generated_Source\PSoC4/CyLib.c ****     * Summary:
1370:.\Generated_Source\PSoC4/CyLib.c ****     *  Unmasks WDT interrupts.
1371:.\Generated_Source\PSoC4/CyLib.c ****     *
1372:.\Generated_Source\PSoC4/CyLib.c ****     * Parameters:
1373:.\Generated_Source\PSoC4/CyLib.c ****     *  None
1374:.\Generated_Source\PSoC4/CyLib.c ****     *
1375:.\Generated_Source\PSoC4/CyLib.c ****     * Return:
1376:.\Generated_Source\PSoC4/CyLib.c ****     *  None
1377:.\Generated_Source\PSoC4/CyLib.c ****     *
1378:.\Generated_Source\PSoC4/CyLib.c ****     * Side Effects:
1379:.\Generated_Source\PSoC4/CyLib.c ****     *  None
1380:.\Generated_Source\PSoC4/CyLib.c ****     *
1381:.\Generated_Source\PSoC4/CyLib.c ****     *******************************************************************************/
1382:.\Generated_Source\PSoC4/CyLib.c ****     void CySysWdtUnmaskInterrupt(void)
1383:.\Generated_Source\PSoC4/CyLib.c ****     {
1384:.\Generated_Source\PSoC4/CyLib.c ****         CY_SYS_SRSS_INTR_MASK_REG |= CY_SYS_WDT_LOWER_BIT_MASK;
1385:.\Generated_Source\PSoC4/CyLib.c ****     }
1386:.\Generated_Source\PSoC4/CyLib.c **** 
1387:.\Generated_Source\PSoC4/CyLib.c **** #endif /* (CY_PSOC4A) */
1388:.\Generated_Source\PSoC4/CyLib.c **** 
1389:.\Generated_Source\PSoC4/CyLib.c **** 
1390:.\Generated_Source\PSoC4/CyLib.c **** #if(CY_PSOC4A)
1391:.\Generated_Source\PSoC4/CyLib.c **** 
1392:.\Generated_Source\PSoC4/CyLib.c ****     /*******************************************************************************
1393:.\Generated_Source\PSoC4/CyLib.c ****     * Function Name: CySysLvdEnable
1394:.\Generated_Source\PSoC4/CyLib.c ****     ********************************************************************************
1395:.\Generated_Source\PSoC4/CyLib.c ****     *
1396:.\Generated_Source\PSoC4/CyLib.c ****     * Summary:
1397:.\Generated_Source\PSoC4/CyLib.c ****     *  Enables the output of the low-voltage monitor when Vddd is at or below the
1398:.\Generated_Source\PSoC4/CyLib.c ****     *  trip point, configures device to generate an interrupt, and sets the voltage
1399:.\Generated_Source\PSoC4/CyLib.c ****     *  trip level.
1400:.\Generated_Source\PSoC4/CyLib.c ****     *
1401:.\Generated_Source\PSoC4/CyLib.c ****     * Parameters:
1402:.\Generated_Source\PSoC4/CyLib.c ****     *  threshold: Threshold selection for Low Voltage Detect circuit.
1403:.\Generated_Source\PSoC4/CyLib.c ****     *  Threshold variation is +/- 2.5% from these typical voltage choices.
1404:.\Generated_Source\PSoC4/CyLib.c ****     *         Define                     Voltage threshold
ARM GAS  C:\Users\vrnk\AppData\Local\Temp\cchVr3qk.s 			page 32


1405:.\Generated_Source\PSoC4/CyLib.c ****     *    CY_LVD_THRESHOLD_1_75_V       1.7500 V
1406:.\Generated_Source\PSoC4/CyLib.c ****     *    CY_LVD_THRESHOLD_1_80_V       1.8000 V
1407:.\Generated_Source\PSoC4/CyLib.c ****     *    CY_LVD_THRESHOLD_1_90_V       1.9000 V
1408:.\Generated_Source\PSoC4/CyLib.c ****     *    CY_LVD_THRESHOLD_2_00_V       2.0000 V
1409:.\Generated_Source\PSoC4/CyLib.c ****     *    CY_LVD_THRESHOLD_2_10_V       2.1000 V
1410:.\Generated_Source\PSoC4/CyLib.c ****     *    CY_LVD_THRESHOLD_2_20_V       2.2000 V
1411:.\Generated_Source\PSoC4/CyLib.c ****     *    CY_LVD_THRESHOLD_2_30_V       2.3000 V
1412:.\Generated_Source\PSoC4/CyLib.c ****     *    CY_LVD_THRESHOLD_2_40_V       2.4000 V
1413:.\Generated_Source\PSoC4/CyLib.c ****     *    CY_LVD_THRESHOLD_2_50_V       2.5000 V
1414:.\Generated_Source\PSoC4/CyLib.c ****     *    CY_LVD_THRESHOLD_2_60_V       2.6000 V
1415:.\Generated_Source\PSoC4/CyLib.c ****     *    CY_LVD_THRESHOLD_2_70_V       2.7000 V
1416:.\Generated_Source\PSoC4/CyLib.c ****     *    CY_LVD_THRESHOLD_2_80_V       2.8000 V
1417:.\Generated_Source\PSoC4/CyLib.c ****     *    CY_LVD_THRESHOLD_2_90_V       2.9000 V
1418:.\Generated_Source\PSoC4/CyLib.c ****     *    CY_LVD_THRESHOLD_3_00_V       3.0000 V
1419:.\Generated_Source\PSoC4/CyLib.c ****     *    CY_LVD_THRESHOLD_3_20_V       3.2000 V
1420:.\Generated_Source\PSoC4/CyLib.c ****     *    CY_LVD_THRESHOLD_4_50_V       4.5000 V
1421:.\Generated_Source\PSoC4/CyLib.c ****     *
1422:.\Generated_Source\PSoC4/CyLib.c ****     * Return:
1423:.\Generated_Source\PSoC4/CyLib.c ****     *  None
1424:.\Generated_Source\PSoC4/CyLib.c ****     *
1425:.\Generated_Source\PSoC4/CyLib.c ****     *******************************************************************************/
1426:.\Generated_Source\PSoC4/CyLib.c ****     void CySysLvdEnable(uint32 threshold)
1427:.\Generated_Source\PSoC4/CyLib.c ****     {
1428:.\Generated_Source\PSoC4/CyLib.c ****         /* Set threshold */
1429:.\Generated_Source\PSoC4/CyLib.c ****         CY_LVD_PWR_VMON_CONFIG_REG = (CY_LVD_PWR_VMON_CONFIG_REG & ~CY_LVD_PWR_VMON_CONFIG_LVD_SEL_
1430:.\Generated_Source\PSoC4/CyLib.c ****                 ((threshold << CY_LVD_PWR_VMON_CONFIG_LVD_SEL_SHIFT) & CY_LVD_PWR_VMON_CONFIG_LVD_S
1431:.\Generated_Source\PSoC4/CyLib.c **** 
1432:.\Generated_Source\PSoC4/CyLib.c ****         CY_LVD_PWR_VMON_CONFIG_REG |= CY_LVD_PWR_VMON_CONFIG_LVD_EN;
1433:.\Generated_Source\PSoC4/CyLib.c ****         CY_LVD_PWR_INTR_MASK_REG   |= CY_LVD_PROPAGATE_INT_TO_CPU;
1434:.\Generated_Source\PSoC4/CyLib.c ****     }
1435:.\Generated_Source\PSoC4/CyLib.c **** 
1436:.\Generated_Source\PSoC4/CyLib.c **** 
1437:.\Generated_Source\PSoC4/CyLib.c ****     /*******************************************************************************
1438:.\Generated_Source\PSoC4/CyLib.c ****     * Function Name: CySysLvdDisable
1439:.\Generated_Source\PSoC4/CyLib.c ****     ********************************************************************************
1440:.\Generated_Source\PSoC4/CyLib.c ****     *
1441:.\Generated_Source\PSoC4/CyLib.c ****     * Summary:
1442:.\Generated_Source\PSoC4/CyLib.c ****     *  Disables the low voltage detection. Low voltage interrupt is disabled.
1443:.\Generated_Source\PSoC4/CyLib.c ****     *
1444:.\Generated_Source\PSoC4/CyLib.c ****     * Parameters:
1445:.\Generated_Source\PSoC4/CyLib.c ****     *  None
1446:.\Generated_Source\PSoC4/CyLib.c ****     *
1447:.\Generated_Source\PSoC4/CyLib.c ****     * Return:
1448:.\Generated_Source\PSoC4/CyLib.c ****     *  None
1449:.\Generated_Source\PSoC4/CyLib.c ****     *
1450:.\Generated_Source\PSoC4/CyLib.c ****     *******************************************************************************/
1451:.\Generated_Source\PSoC4/CyLib.c ****     void CySysLvdDisable(void)
1452:.\Generated_Source\PSoC4/CyLib.c ****     {
1453:.\Generated_Source\PSoC4/CyLib.c ****         CY_LVD_PWR_INTR_MASK_REG   &= ~CY_LVD_PROPAGATE_INT_TO_CPU;
1454:.\Generated_Source\PSoC4/CyLib.c ****         CY_LVD_PWR_VMON_CONFIG_REG &= ~CY_LVD_PWR_VMON_CONFIG_LVD_EN;
1455:.\Generated_Source\PSoC4/CyLib.c ****     }
1456:.\Generated_Source\PSoC4/CyLib.c **** 
1457:.\Generated_Source\PSoC4/CyLib.c **** 
1458:.\Generated_Source\PSoC4/CyLib.c ****     /*******************************************************************************
1459:.\Generated_Source\PSoC4/CyLib.c ****     * Function Name: CySysLvdGetInterruptSource
1460:.\Generated_Source\PSoC4/CyLib.c ****     ********************************************************************************
1461:.\Generated_Source\PSoC4/CyLib.c ****     *
ARM GAS  C:\Users\vrnk\AppData\Local\Temp\cchVr3qk.s 			page 33


1462:.\Generated_Source\PSoC4/CyLib.c ****     * Summary:
1463:.\Generated_Source\PSoC4/CyLib.c ****     *  Gets the low voltage detection interrupt status (without clearing).
1464:.\Generated_Source\PSoC4/CyLib.c ****     *
1465:.\Generated_Source\PSoC4/CyLib.c ****     * Parameters:
1466:.\Generated_Source\PSoC4/CyLib.c ****     *  None
1467:.\Generated_Source\PSoC4/CyLib.c ****     *
1468:.\Generated_Source\PSoC4/CyLib.c ****     * Return:
1469:.\Generated_Source\PSoC4/CyLib.c ****     *  Interrupt request value:
1470:.\Generated_Source\PSoC4/CyLib.c ****     *    CY_SYS_LVD_INT - Indicates an Low Voltage Detect interrupt
1471:.\Generated_Source\PSoC4/CyLib.c ****     *
1472:.\Generated_Source\PSoC4/CyLib.c ****     *******************************************************************************/
1473:.\Generated_Source\PSoC4/CyLib.c ****     uint32 CySysLvdGetInterruptSource(void)
1474:.\Generated_Source\PSoC4/CyLib.c ****     {
1475:.\Generated_Source\PSoC4/CyLib.c ****         return (CY_LVD_PWR_INTR_REG & CY_SYS_LVD_INT);
1476:.\Generated_Source\PSoC4/CyLib.c ****     }
1477:.\Generated_Source\PSoC4/CyLib.c **** 
1478:.\Generated_Source\PSoC4/CyLib.c **** 
1479:.\Generated_Source\PSoC4/CyLib.c ****     /*******************************************************************************
1480:.\Generated_Source\PSoC4/CyLib.c ****     * Function Name: CySysLvdClearInterrupt
1481:.\Generated_Source\PSoC4/CyLib.c ****     ********************************************************************************
1482:.\Generated_Source\PSoC4/CyLib.c ****     *
1483:.\Generated_Source\PSoC4/CyLib.c ****     * Summary:
1484:.\Generated_Source\PSoC4/CyLib.c ****     *  Clears the low voltage detection interrupt status.
1485:.\Generated_Source\PSoC4/CyLib.c ****     *
1486:.\Generated_Source\PSoC4/CyLib.c ****     * Parameters:
1487:.\Generated_Source\PSoC4/CyLib.c ****     *  None
1488:.\Generated_Source\PSoC4/CyLib.c ****     *
1489:.\Generated_Source\PSoC4/CyLib.c ****     * Return:
1490:.\Generated_Source\PSoC4/CyLib.c ****     *  None
1491:.\Generated_Source\PSoC4/CyLib.c ****     *
1492:.\Generated_Source\PSoC4/CyLib.c ****     *******************************************************************************/
1493:.\Generated_Source\PSoC4/CyLib.c ****     void CySysLvdClearInterrupt(void)
1494:.\Generated_Source\PSoC4/CyLib.c ****     {
1495:.\Generated_Source\PSoC4/CyLib.c ****         CY_LVD_PWR_INTR_REG = CY_SYS_LVD_INT;
1496:.\Generated_Source\PSoC4/CyLib.c ****     }
1497:.\Generated_Source\PSoC4/CyLib.c **** 
1498:.\Generated_Source\PSoC4/CyLib.c **** #endif /* (CY_PSOC4A) */
1499:.\Generated_Source\PSoC4/CyLib.c **** 
1500:.\Generated_Source\PSoC4/CyLib.c **** 
1501:.\Generated_Source\PSoC4/CyLib.c **** /*******************************************************************************
1502:.\Generated_Source\PSoC4/CyLib.c **** * Function Name: CyDisableInts
1503:.\Generated_Source\PSoC4/CyLib.c **** ********************************************************************************
1504:.\Generated_Source\PSoC4/CyLib.c **** *
1505:.\Generated_Source\PSoC4/CyLib.c **** * Summary:
1506:.\Generated_Source\PSoC4/CyLib.c **** *  Disables all interrupts.
1507:.\Generated_Source\PSoC4/CyLib.c **** *
1508:.\Generated_Source\PSoC4/CyLib.c **** * Parameters:
1509:.\Generated_Source\PSoC4/CyLib.c **** *  None
1510:.\Generated_Source\PSoC4/CyLib.c **** *
1511:.\Generated_Source\PSoC4/CyLib.c **** * Return:
1512:.\Generated_Source\PSoC4/CyLib.c **** *  32 bit mask of previously enabled interrupts.
1513:.\Generated_Source\PSoC4/CyLib.c **** *
1514:.\Generated_Source\PSoC4/CyLib.c **** *******************************************************************************/
1515:.\Generated_Source\PSoC4/CyLib.c **** uint32 CyDisableInts(void)
1516:.\Generated_Source\PSoC4/CyLib.c **** {
1517:.\Generated_Source\PSoC4/CyLib.c ****     uint32 intState;
1518:.\Generated_Source\PSoC4/CyLib.c **** 
ARM GAS  C:\Users\vrnk\AppData\Local\Temp\cchVr3qk.s 			page 34


1519:.\Generated_Source\PSoC4/CyLib.c ****     /* Get the curreent interrupt state. */
1520:.\Generated_Source\PSoC4/CyLib.c ****     intState = CY_INT_CLEAR_REG;
1521:.\Generated_Source\PSoC4/CyLib.c **** 
1522:.\Generated_Source\PSoC4/CyLib.c ****     /* Disable all of the interrupts. */
1523:.\Generated_Source\PSoC4/CyLib.c ****     CY_INT_CLEAR_REG = CY_INT_CLEAR_DISABLE_ALL;
1524:.\Generated_Source\PSoC4/CyLib.c **** 
1525:.\Generated_Source\PSoC4/CyLib.c ****     return (intState);
1526:.\Generated_Source\PSoC4/CyLib.c **** }
1527:.\Generated_Source\PSoC4/CyLib.c **** 
1528:.\Generated_Source\PSoC4/CyLib.c **** 
1529:.\Generated_Source\PSoC4/CyLib.c **** /*******************************************************************************
1530:.\Generated_Source\PSoC4/CyLib.c **** * Function Name: CyEnableInts
1531:.\Generated_Source\PSoC4/CyLib.c **** ********************************************************************************
1532:.\Generated_Source\PSoC4/CyLib.c **** *
1533:.\Generated_Source\PSoC4/CyLib.c **** * Summary:
1534:.\Generated_Source\PSoC4/CyLib.c **** *  Enables interrupts to a given state.
1535:.\Generated_Source\PSoC4/CyLib.c **** *
1536:.\Generated_Source\PSoC4/CyLib.c **** * Parameters:
1537:.\Generated_Source\PSoC4/CyLib.c **** *   mask, 32 bit mask of interrupts to enable.
1538:.\Generated_Source\PSoC4/CyLib.c **** *
1539:.\Generated_Source\PSoC4/CyLib.c **** * Return:
1540:.\Generated_Source\PSoC4/CyLib.c **** *  None
1541:.\Generated_Source\PSoC4/CyLib.c **** *
1542:.\Generated_Source\PSoC4/CyLib.c **** *******************************************************************************/
1543:.\Generated_Source\PSoC4/CyLib.c **** void CyEnableInts(uint32 mask)
1544:.\Generated_Source\PSoC4/CyLib.c **** {
1545:.\Generated_Source\PSoC4/CyLib.c ****     CY_INT_ENABLE_REG = mask;
1546:.\Generated_Source\PSoC4/CyLib.c **** }
1547:.\Generated_Source\PSoC4/CyLib.c **** 
1548:.\Generated_Source\PSoC4/CyLib.c **** 
1549:.\Generated_Source\PSoC4/CyLib.c **** /*******************************************************************************
1550:.\Generated_Source\PSoC4/CyLib.c **** * Function Name: CyIntSetSysVector
1551:.\Generated_Source\PSoC4/CyLib.c **** ********************************************************************************
1552:.\Generated_Source\PSoC4/CyLib.c **** *
1553:.\Generated_Source\PSoC4/CyLib.c **** * Summary:
1554:.\Generated_Source\PSoC4/CyLib.c **** *  Sets the interrupt vector of the specified system interrupt number. These
1555:.\Generated_Source\PSoC4/CyLib.c **** *  interrupts are for SysTick, PendSV and others.
1556:.\Generated_Source\PSoC4/CyLib.c **** *
1557:.\Generated_Source\PSoC4/CyLib.c **** * Parameters:
1558:.\Generated_Source\PSoC4/CyLib.c **** *  number: Interrupt number, valid range [0-15].
1559:.\Generated_Source\PSoC4/CyLib.c **** *  address: Pointer to an interrupt service routine.
1560:.\Generated_Source\PSoC4/CyLib.c **** *
1561:.\Generated_Source\PSoC4/CyLib.c **** * Return:
1562:.\Generated_Source\PSoC4/CyLib.c **** *  The old ISR vector at this location.
1563:.\Generated_Source\PSoC4/CyLib.c **** *
1564:.\Generated_Source\PSoC4/CyLib.c **** *******************************************************************************/
1565:.\Generated_Source\PSoC4/CyLib.c **** cyisraddress CyIntSetSysVector(uint8 number, cyisraddress address)
1566:.\Generated_Source\PSoC4/CyLib.c **** {
1567:.\Generated_Source\PSoC4/CyLib.c ****     cyisraddress oldIsr;
1568:.\Generated_Source\PSoC4/CyLib.c ****     cyisraddress *ramVectorTable = (cyisraddress *) CY_INT_VECT_TABLE;
1569:.\Generated_Source\PSoC4/CyLib.c **** 
1570:.\Generated_Source\PSoC4/CyLib.c ****     CYASSERT(number < CY_INT_IRQ_BASE);
1571:.\Generated_Source\PSoC4/CyLib.c **** 
1572:.\Generated_Source\PSoC4/CyLib.c ****     /* Save old Interrupt service routine. */
1573:.\Generated_Source\PSoC4/CyLib.c ****     oldIsr = ramVectorTable[number];
1574:.\Generated_Source\PSoC4/CyLib.c **** 
1575:.\Generated_Source\PSoC4/CyLib.c ****     /* Set new Interrupt service routine. */
ARM GAS  C:\Users\vrnk\AppData\Local\Temp\cchVr3qk.s 			page 35


1576:.\Generated_Source\PSoC4/CyLib.c ****     ramVectorTable[number] = address;
1577:.\Generated_Source\PSoC4/CyLib.c **** 
1578:.\Generated_Source\PSoC4/CyLib.c ****     return(oldIsr);
1579:.\Generated_Source\PSoC4/CyLib.c **** }
1580:.\Generated_Source\PSoC4/CyLib.c **** 
1581:.\Generated_Source\PSoC4/CyLib.c **** 
1582:.\Generated_Source\PSoC4/CyLib.c **** /*******************************************************************************
1583:.\Generated_Source\PSoC4/CyLib.c **** * Function Name: CyIntGetSysVector
1584:.\Generated_Source\PSoC4/CyLib.c **** ********************************************************************************
1585:.\Generated_Source\PSoC4/CyLib.c **** *
1586:.\Generated_Source\PSoC4/CyLib.c **** * Summary:
1587:.\Generated_Source\PSoC4/CyLib.c **** *   Gets the interrupt vector of the specified system interrupt number. These
1588:.\Generated_Source\PSoC4/CyLib.c **** *   interrupts are for SysTick, PendSV and others.
1589:.\Generated_Source\PSoC4/CyLib.c **** *
1590:.\Generated_Source\PSoC4/CyLib.c **** * Parameters:
1591:.\Generated_Source\PSoC4/CyLib.c **** *   number: The interrupt number, valid range [0-15].
1592:.\Generated_Source\PSoC4/CyLib.c **** *
1593:.\Generated_Source\PSoC4/CyLib.c **** * Return:
1594:.\Generated_Source\PSoC4/CyLib.c **** *   Address of the ISR in the interrupt vector table.
1595:.\Generated_Source\PSoC4/CyLib.c **** *
1596:.\Generated_Source\PSoC4/CyLib.c **** *******************************************************************************/
1597:.\Generated_Source\PSoC4/CyLib.c **** cyisraddress CyIntGetSysVector(uint8 number)
1598:.\Generated_Source\PSoC4/CyLib.c **** {
1599:.\Generated_Source\PSoC4/CyLib.c ****     cyisraddress *ramVectorTable = (cyisraddress *) CY_INT_VECT_TABLE;
1600:.\Generated_Source\PSoC4/CyLib.c **** 
1601:.\Generated_Source\PSoC4/CyLib.c ****     CYASSERT(number < CY_INT_IRQ_BASE);
1602:.\Generated_Source\PSoC4/CyLib.c **** 
1603:.\Generated_Source\PSoC4/CyLib.c ****     return(ramVectorTable[number]);
1604:.\Generated_Source\PSoC4/CyLib.c **** }
1605:.\Generated_Source\PSoC4/CyLib.c **** 
1606:.\Generated_Source\PSoC4/CyLib.c **** 
1607:.\Generated_Source\PSoC4/CyLib.c **** /*******************************************************************************
1608:.\Generated_Source\PSoC4/CyLib.c **** * Function Name: CyIntSetVector
1609:.\Generated_Source\PSoC4/CyLib.c **** ********************************************************************************
1610:.\Generated_Source\PSoC4/CyLib.c **** *
1611:.\Generated_Source\PSoC4/CyLib.c **** * Summary:
1612:.\Generated_Source\PSoC4/CyLib.c **** *  Sets the interrupt vector of the specified interrupt number.
1613:.\Generated_Source\PSoC4/CyLib.c **** *
1614:.\Generated_Source\PSoC4/CyLib.c **** * Parameters:
1615:.\Generated_Source\PSoC4/CyLib.c **** *  number: Valid range [0-31].  Interrupt number
1616:.\Generated_Source\PSoC4/CyLib.c **** *  address: Pointer to an interrupt service routine
1617:.\Generated_Source\PSoC4/CyLib.c **** *
1618:.\Generated_Source\PSoC4/CyLib.c **** * Return:
1619:.\Generated_Source\PSoC4/CyLib.c **** *   Previous interrupt vector value.
1620:.\Generated_Source\PSoC4/CyLib.c **** *
1621:.\Generated_Source\PSoC4/CyLib.c **** *******************************************************************************/
1622:.\Generated_Source\PSoC4/CyLib.c **** cyisraddress CyIntSetVector(uint8 number, cyisraddress address)
1623:.\Generated_Source\PSoC4/CyLib.c **** {
1624:.\Generated_Source\PSoC4/CyLib.c ****     cyisraddress oldIsr;
1625:.\Generated_Source\PSoC4/CyLib.c ****     cyisraddress *ramVectorTable = (cyisraddress *) CY_INT_VECT_TABLE;
1626:.\Generated_Source\PSoC4/CyLib.c **** 
1627:.\Generated_Source\PSoC4/CyLib.c ****     CYASSERT(number < CY_NUM_INTERRUPTS);
1628:.\Generated_Source\PSoC4/CyLib.c **** 
1629:.\Generated_Source\PSoC4/CyLib.c ****     /* Save old Interrupt service routine. */
1630:.\Generated_Source\PSoC4/CyLib.c ****     oldIsr = ramVectorTable[CY_INT_IRQ_BASE + number];
1631:.\Generated_Source\PSoC4/CyLib.c **** 
1632:.\Generated_Source\PSoC4/CyLib.c ****     /* Set new Interrupt service routine. */
ARM GAS  C:\Users\vrnk\AppData\Local\Temp\cchVr3qk.s 			page 36


1633:.\Generated_Source\PSoC4/CyLib.c ****     ramVectorTable[CY_INT_IRQ_BASE + number] = address;
1634:.\Generated_Source\PSoC4/CyLib.c **** 
1635:.\Generated_Source\PSoC4/CyLib.c ****     return(oldIsr);
1636:.\Generated_Source\PSoC4/CyLib.c **** }
1637:.\Generated_Source\PSoC4/CyLib.c **** 
1638:.\Generated_Source\PSoC4/CyLib.c **** 
1639:.\Generated_Source\PSoC4/CyLib.c **** /*******************************************************************************
1640:.\Generated_Source\PSoC4/CyLib.c **** * Function Name: CyIntGetVector
1641:.\Generated_Source\PSoC4/CyLib.c **** ********************************************************************************
1642:.\Generated_Source\PSoC4/CyLib.c **** *
1643:.\Generated_Source\PSoC4/CyLib.c **** * Summary:
1644:.\Generated_Source\PSoC4/CyLib.c **** *  Gets the interrupt vector of the specified interrupt number.
1645:.\Generated_Source\PSoC4/CyLib.c **** *
1646:.\Generated_Source\PSoC4/CyLib.c **** * Parameters:
1647:.\Generated_Source\PSoC4/CyLib.c **** *  number: Valid range [0-31].  Interrupt number
1648:.\Generated_Source\PSoC4/CyLib.c **** *
1649:.\Generated_Source\PSoC4/CyLib.c **** * Return:
1650:.\Generated_Source\PSoC4/CyLib.c **** *  Address of the ISR in the interrupt vector table.
1651:.\Generated_Source\PSoC4/CyLib.c **** *
1652:.\Generated_Source\PSoC4/CyLib.c **** *******************************************************************************/
1653:.\Generated_Source\PSoC4/CyLib.c **** cyisraddress CyIntGetVector(uint8 number)
1654:.\Generated_Source\PSoC4/CyLib.c **** {
1655:.\Generated_Source\PSoC4/CyLib.c ****     cyisraddress *ramVectorTable = (cyisraddress *) CY_INT_VECT_TABLE;
1656:.\Generated_Source\PSoC4/CyLib.c **** 
1657:.\Generated_Source\PSoC4/CyLib.c ****     CYASSERT(number < CY_NUM_INTERRUPTS);
1658:.\Generated_Source\PSoC4/CyLib.c **** 
1659:.\Generated_Source\PSoC4/CyLib.c ****     return (ramVectorTable[CY_INT_IRQ_BASE + number]);
1660:.\Generated_Source\PSoC4/CyLib.c **** }
1661:.\Generated_Source\PSoC4/CyLib.c **** 
1662:.\Generated_Source\PSoC4/CyLib.c **** /*******************************************************************************
1663:.\Generated_Source\PSoC4/CyLib.c **** * Function Name: CyIntSetPriority
1664:.\Generated_Source\PSoC4/CyLib.c **** ********************************************************************************
1665:.\Generated_Source\PSoC4/CyLib.c **** *
1666:.\Generated_Source\PSoC4/CyLib.c **** * Summary:
1667:.\Generated_Source\PSoC4/CyLib.c **** *  Sets the priority of the interrupt.
1668:.\Generated_Source\PSoC4/CyLib.c **** *
1669:.\Generated_Source\PSoC4/CyLib.c **** * Parameters:
1670:.\Generated_Source\PSoC4/CyLib.c **** *  priority: Priority of the interrupt. 0 - 3, 0 being the highest.
1671:.\Generated_Source\PSoC4/CyLib.c **** *  number: The number of the interrupt, 0 - 31.
1672:.\Generated_Source\PSoC4/CyLib.c **** *
1673:.\Generated_Source\PSoC4/CyLib.c **** * Return:
1674:.\Generated_Source\PSoC4/CyLib.c **** *  None
1675:.\Generated_Source\PSoC4/CyLib.c **** *
1676:.\Generated_Source\PSoC4/CyLib.c **** *******************************************************************************/
1677:.\Generated_Source\PSoC4/CyLib.c **** void CyIntSetPriority(uint8 number, uint8 priority)
1678:.\Generated_Source\PSoC4/CyLib.c **** {
1679:.\Generated_Source\PSoC4/CyLib.c ****     uint8 interruptState;
1680:.\Generated_Source\PSoC4/CyLib.c ****     uint32 shift;
1681:.\Generated_Source\PSoC4/CyLib.c ****     uint32 value;
1682:.\Generated_Source\PSoC4/CyLib.c **** 
1683:.\Generated_Source\PSoC4/CyLib.c ****     CYASSERT(priority <= CY_MIN_PRIORITY);
1684:.\Generated_Source\PSoC4/CyLib.c ****     CYASSERT(number < CY_NUM_INTERRUPTS);
1685:.\Generated_Source\PSoC4/CyLib.c **** 
1686:.\Generated_Source\PSoC4/CyLib.c ****     shift = CY_INT_PRIORITY_SHIFT(number);
1687:.\Generated_Source\PSoC4/CyLib.c **** 
1688:.\Generated_Source\PSoC4/CyLib.c ****     interruptState = CyEnterCriticalSection();
1689:.\Generated_Source\PSoC4/CyLib.c **** 
ARM GAS  C:\Users\vrnk\AppData\Local\Temp\cchVr3qk.s 			page 37


1690:.\Generated_Source\PSoC4/CyLib.c ****     value = CY_INT_PRIORITY_REG(number);
1691:.\Generated_Source\PSoC4/CyLib.c ****     value &= (uint32)(~((uint32)(CY_INT_PRIORITY_MASK << shift)));
1692:.\Generated_Source\PSoC4/CyLib.c ****     value |= ((uint32)priority << shift);
1693:.\Generated_Source\PSoC4/CyLib.c ****     CY_INT_PRIORITY_REG(number) = value;
1694:.\Generated_Source\PSoC4/CyLib.c **** 
1695:.\Generated_Source\PSoC4/CyLib.c ****     CyExitCriticalSection(interruptState);
1696:.\Generated_Source\PSoC4/CyLib.c **** }
1697:.\Generated_Source\PSoC4/CyLib.c **** 
1698:.\Generated_Source\PSoC4/CyLib.c **** 
1699:.\Generated_Source\PSoC4/CyLib.c **** /*******************************************************************************
1700:.\Generated_Source\PSoC4/CyLib.c **** * Function Name: CyIntGetPriority
1701:.\Generated_Source\PSoC4/CyLib.c **** ********************************************************************************
1702:.\Generated_Source\PSoC4/CyLib.c **** *
1703:.\Generated_Source\PSoC4/CyLib.c **** * Summary:
1704:.\Generated_Source\PSoC4/CyLib.c **** *  Gets the priority of the interrupt.
1705:.\Generated_Source\PSoC4/CyLib.c **** *
1706:.\Generated_Source\PSoC4/CyLib.c **** * Parameters:
1707:.\Generated_Source\PSoC4/CyLib.c **** *  number: The number of the interrupt, 0 - 31.
1708:.\Generated_Source\PSoC4/CyLib.c **** *
1709:.\Generated_Source\PSoC4/CyLib.c **** * Return:
1710:.\Generated_Source\PSoC4/CyLib.c **** *  Priority of the interrupt. 0 - 3, 0 being the highest.
1711:.\Generated_Source\PSoC4/CyLib.c **** *
1712:.\Generated_Source\PSoC4/CyLib.c **** *******************************************************************************/
1713:.\Generated_Source\PSoC4/CyLib.c **** uint8 CyIntGetPriority(uint8 number)
1714:.\Generated_Source\PSoC4/CyLib.c **** {
1715:.\Generated_Source\PSoC4/CyLib.c ****     uint8 priority;
1716:.\Generated_Source\PSoC4/CyLib.c **** 
1717:.\Generated_Source\PSoC4/CyLib.c ****     CYASSERT(number < CY_NUM_INTERRUPTS);
1718:.\Generated_Source\PSoC4/CyLib.c **** 
1719:.\Generated_Source\PSoC4/CyLib.c ****     priority = (uint8) (CY_INT_PRIORITY_REG(number) >> CY_INT_PRIORITY_SHIFT(number));
1720:.\Generated_Source\PSoC4/CyLib.c **** 
1721:.\Generated_Source\PSoC4/CyLib.c ****     return (priority & (uint8) CY_INT_PRIORITY_MASK);
1722:.\Generated_Source\PSoC4/CyLib.c **** }
1723:.\Generated_Source\PSoC4/CyLib.c **** 
1724:.\Generated_Source\PSoC4/CyLib.c **** 
1725:.\Generated_Source\PSoC4/CyLib.c **** /*******************************************************************************
1726:.\Generated_Source\PSoC4/CyLib.c **** * Function Name: CyIntEnable
1727:.\Generated_Source\PSoC4/CyLib.c **** ********************************************************************************
1728:.\Generated_Source\PSoC4/CyLib.c **** *
1729:.\Generated_Source\PSoC4/CyLib.c **** * Summary:
1730:.\Generated_Source\PSoC4/CyLib.c **** *  Enables the specified interrupt number.
1731:.\Generated_Source\PSoC4/CyLib.c **** *
1732:.\Generated_Source\PSoC4/CyLib.c **** * Parameters:
1733:.\Generated_Source\PSoC4/CyLib.c **** *  number: Valid range [0-31].  Interrupt number
1734:.\Generated_Source\PSoC4/CyLib.c **** *
1735:.\Generated_Source\PSoC4/CyLib.c **** * Return:
1736:.\Generated_Source\PSoC4/CyLib.c **** *  None
1737:.\Generated_Source\PSoC4/CyLib.c **** *
1738:.\Generated_Source\PSoC4/CyLib.c **** *******************************************************************************/
1739:.\Generated_Source\PSoC4/CyLib.c **** void CyIntEnable(uint8 number)
1740:.\Generated_Source\PSoC4/CyLib.c **** {
1741:.\Generated_Source\PSoC4/CyLib.c ****     CY_INT_ENABLE_REG = ((uint32) 0x01u << (CY_INT_ENABLE_RANGE_MASK & number));
1742:.\Generated_Source\PSoC4/CyLib.c **** }
1743:.\Generated_Source\PSoC4/CyLib.c **** 
1744:.\Generated_Source\PSoC4/CyLib.c **** 
1745:.\Generated_Source\PSoC4/CyLib.c **** /*******************************************************************************
1746:.\Generated_Source\PSoC4/CyLib.c **** * Function Name: CyIntGetState
ARM GAS  C:\Users\vrnk\AppData\Local\Temp\cchVr3qk.s 			page 38


1747:.\Generated_Source\PSoC4/CyLib.c **** ********************************************************************************
1748:.\Generated_Source\PSoC4/CyLib.c **** *
1749:.\Generated_Source\PSoC4/CyLib.c **** * Summary:
1750:.\Generated_Source\PSoC4/CyLib.c **** *  Gets the enable state of the specified interrupt number.
1751:.\Generated_Source\PSoC4/CyLib.c **** *
1752:.\Generated_Source\PSoC4/CyLib.c **** * Parameters:
1753:.\Generated_Source\PSoC4/CyLib.c **** *  number: Valid range [0-31].  Interrupt number.
1754:.\Generated_Source\PSoC4/CyLib.c **** *
1755:.\Generated_Source\PSoC4/CyLib.c **** * Return:
1756:.\Generated_Source\PSoC4/CyLib.c **** *  Enable status: 1 if enabled, 0 if disabled
1757:.\Generated_Source\PSoC4/CyLib.c **** *
1758:.\Generated_Source\PSoC4/CyLib.c **** *******************************************************************************/
1759:.\Generated_Source\PSoC4/CyLib.c **** uint8 CyIntGetState(uint8 number)
1760:.\Generated_Source\PSoC4/CyLib.c **** {
1761:.\Generated_Source\PSoC4/CyLib.c ****     /* Get the state of the interrupt. */
1762:.\Generated_Source\PSoC4/CyLib.c ****     return ((0u != (CY_INT_ENABLE_REG & ((uint32) 0x01u << (CY_INT_ENABLE_RANGE_MASK & number)))) ?
1763:.\Generated_Source\PSoC4/CyLib.c **** }
1764:.\Generated_Source\PSoC4/CyLib.c **** 
1765:.\Generated_Source\PSoC4/CyLib.c **** 
1766:.\Generated_Source\PSoC4/CyLib.c **** /*******************************************************************************
1767:.\Generated_Source\PSoC4/CyLib.c **** * Function Name: CyIntDisable
1768:.\Generated_Source\PSoC4/CyLib.c **** ********************************************************************************
1769:.\Generated_Source\PSoC4/CyLib.c **** *
1770:.\Generated_Source\PSoC4/CyLib.c **** * Summary:
1771:.\Generated_Source\PSoC4/CyLib.c **** *   Disables the specified interrupt number.
1772:.\Generated_Source\PSoC4/CyLib.c **** *
1773:.\Generated_Source\PSoC4/CyLib.c **** * Parameters:
1774:.\Generated_Source\PSoC4/CyLib.c **** *   number: Valid range [0-31].  Interrupt number.
1775:.\Generated_Source\PSoC4/CyLib.c **** *
1776:.\Generated_Source\PSoC4/CyLib.c **** * Return:
1777:.\Generated_Source\PSoC4/CyLib.c **** *  None
1778:.\Generated_Source\PSoC4/CyLib.c **** *
1779:.\Generated_Source\PSoC4/CyLib.c **** *******************************************************************************/
1780:.\Generated_Source\PSoC4/CyLib.c **** void CyIntDisable(uint8 number)
1781:.\Generated_Source\PSoC4/CyLib.c **** {
1782:.\Generated_Source\PSoC4/CyLib.c ****     CY_INT_CLEAR_REG = ((uint32) 0x01u << (CY_INT_ENABLE_RANGE_MASK & number));
1783:.\Generated_Source\PSoC4/CyLib.c **** }
1784:.\Generated_Source\PSoC4/CyLib.c **** 
1785:.\Generated_Source\PSoC4/CyLib.c **** /*******************************************************************************
1786:.\Generated_Source\PSoC4/CyLib.c **** * Function Name: CyIntSetPending
1787:.\Generated_Source\PSoC4/CyLib.c **** ********************************************************************************
1788:.\Generated_Source\PSoC4/CyLib.c **** *
1789:.\Generated_Source\PSoC4/CyLib.c **** * Summary:
1790:.\Generated_Source\PSoC4/CyLib.c **** *  Forces the specified interrupt number to be pending.
1791:.\Generated_Source\PSoC4/CyLib.c **** *
1792:.\Generated_Source\PSoC4/CyLib.c **** * Parameters:
1793:.\Generated_Source\PSoC4/CyLib.c **** *  number: Valid range [0-31].  Interrupt number.
1794:.\Generated_Source\PSoC4/CyLib.c **** *
1795:.\Generated_Source\PSoC4/CyLib.c **** * Return:
1796:.\Generated_Source\PSoC4/CyLib.c **** *  None
1797:.\Generated_Source\PSoC4/CyLib.c **** *
1798:.\Generated_Source\PSoC4/CyLib.c **** *******************************************************************************/
1799:.\Generated_Source\PSoC4/CyLib.c **** void CyIntSetPending(uint8 number)
1800:.\Generated_Source\PSoC4/CyLib.c **** {
1801:.\Generated_Source\PSoC4/CyLib.c ****     CY_INT_SET_PEND_REG = ((uint32) 0x01u << (CY_INT_ENABLE_RANGE_MASK & number));
1802:.\Generated_Source\PSoC4/CyLib.c **** }
1803:.\Generated_Source\PSoC4/CyLib.c **** 
ARM GAS  C:\Users\vrnk\AppData\Local\Temp\cchVr3qk.s 			page 39


1804:.\Generated_Source\PSoC4/CyLib.c **** 
1805:.\Generated_Source\PSoC4/CyLib.c **** /*******************************************************************************
1806:.\Generated_Source\PSoC4/CyLib.c **** * Function Name: CyIntClearPending
1807:.\Generated_Source\PSoC4/CyLib.c **** ********************************************************************************
1808:.\Generated_Source\PSoC4/CyLib.c **** *
1809:.\Generated_Source\PSoC4/CyLib.c **** * Summary:
1810:.\Generated_Source\PSoC4/CyLib.c **** *  Clears any pending interrupt for the specified interrupt number.
1811:.\Generated_Source\PSoC4/CyLib.c **** *
1812:.\Generated_Source\PSoC4/CyLib.c **** * Parameters:
1813:.\Generated_Source\PSoC4/CyLib.c **** *  number: Valid range [0-31].  Interrupt number.
1814:.\Generated_Source\PSoC4/CyLib.c **** *
1815:.\Generated_Source\PSoC4/CyLib.c **** * Return:
1816:.\Generated_Source\PSoC4/CyLib.c **** *  None
1817:.\Generated_Source\PSoC4/CyLib.c **** *
1818:.\Generated_Source\PSoC4/CyLib.c **** *******************************************************************************/
1819:.\Generated_Source\PSoC4/CyLib.c **** void CyIntClearPending(uint8 number)
1820:.\Generated_Source\PSoC4/CyLib.c **** {
1821:.\Generated_Source\PSoC4/CyLib.c ****     CY_INT_CLR_PEND_REG = ((uint32) 0x01u << (CY_INT_ENABLE_RANGE_MASK & number));
1822:.\Generated_Source\PSoC4/CyLib.c **** }
1823:.\Generated_Source\PSoC4/CyLib.c **** 
1824:.\Generated_Source\PSoC4/CyLib.c **** 
1825:.\Generated_Source\PSoC4/CyLib.c **** /*******************************************************************************
1826:.\Generated_Source\PSoC4/CyLib.c **** * Function Name: CyHalt
1827:.\Generated_Source\PSoC4/CyLib.c **** ********************************************************************************
1828:.\Generated_Source\PSoC4/CyLib.c **** *
1829:.\Generated_Source\PSoC4/CyLib.c **** * Summary:
1830:.\Generated_Source\PSoC4/CyLib.c **** *  Halts the CPU.
1831:.\Generated_Source\PSoC4/CyLib.c **** *
1832:.\Generated_Source\PSoC4/CyLib.c **** * Parameters:
1833:.\Generated_Source\PSoC4/CyLib.c **** *  reason: Value to be used during debugging.
1834:.\Generated_Source\PSoC4/CyLib.c **** *
1835:.\Generated_Source\PSoC4/CyLib.c **** * Return:
1836:.\Generated_Source\PSoC4/CyLib.c **** *  None
1837:.\Generated_Source\PSoC4/CyLib.c **** *
1838:.\Generated_Source\PSoC4/CyLib.c **** *******************************************************************************/
1839:.\Generated_Source\PSoC4/CyLib.c **** void CyHalt(uint8 reason)
1840:.\Generated_Source\PSoC4/CyLib.c **** {
1841:.\Generated_Source\PSoC4/CyLib.c ****     if(0u != reason)
1842:.\Generated_Source\PSoC4/CyLib.c ****     {
1843:.\Generated_Source\PSoC4/CyLib.c ****         /* To remove unreferenced local variable warning */
1844:.\Generated_Source\PSoC4/CyLib.c ****     }
1845:.\Generated_Source\PSoC4/CyLib.c **** 
1846:.\Generated_Source\PSoC4/CyLib.c ****     #if defined (__ARMCC_VERSION)
1847:.\Generated_Source\PSoC4/CyLib.c ****         __breakpoint(0x0);
1848:.\Generated_Source\PSoC4/CyLib.c ****     #elif defined(__GNUC__) || defined (__ICCARM__)
1849:.\Generated_Source\PSoC4/CyLib.c ****         __asm("    bkpt    1");
 352              		.loc 1 1849 0
 353              	@ 1849 ".\Generated_Source\PSoC4\CyLib.c" 1
 354 0006 01BE     		    bkpt    1
 355              	@ 0 "" 2
 356              	.LVL18:
 357              		.code	16
 358              	.L29:
 359              	.LBE35:
 360              	.LBE34:
 443:.\Generated_Source\PSoC4/CyLib.c ****         return ((CY_SYS_WDT_CONTROL_REG >> ((CY_SYS_WDT_CNT_SHIFT * counterNum) + CY_SYS_WDT_CNT_ST
 361              		.loc 1 443 0
ARM GAS  C:\Users\vrnk\AppData\Local\Temp\cchVr3qk.s 			page 40


 362 0008 044B     		ldr	r3, .L30
 363 000a C000     		lsl	r0, r0, #3
 364              	.LVL19:
 365 000c 1968     		ldr	r1, [r3]
 366 000e 0130     		add	r0, r0, #1
 367 0010 C140     		lsr	r1, r1, r0
 368 0012 081C     		mov	r0, r1
 369 0014 0122     		mov	r2, #1
 370 0016 1040     		and	r0, r2
 444:.\Generated_Source\PSoC4/CyLib.c ****     }
 371              		.loc 1 444 0
 372              		@ sp needed for prologue
 373 0018 00BD     		pop	{pc}
 374              	.L31:
 375 001a C046     		.align	2
 376              	.L30:
 377 001c 10020B40 		.word	1074463248
 378              		.cfi_endproc
 379              	.LFE9:
 380              		.size	CySysWdtReadEnabledStatus, .-CySysWdtReadEnabledStatus
 381              		.section	.text.CySysWdtWriteMode,"ax",%progbits
 382              		.align	1
 383              		.global	CySysWdtWriteMode
 384              		.code	16
 385              		.thumb_func
 386              		.type	CySysWdtWriteMode, %function
 387              	CySysWdtWriteMode:
 388              	.LFB10:
 476:.\Generated_Source\PSoC4/CyLib.c ****     {
 389              		.loc 1 476 0
 390              		.cfi_startproc
 391              	.LVL20:
 392 0000 38B5     		push	{r3, r4, r5, lr}
 393              	.LCFI4:
 394              		.cfi_def_cfa_offset 16
 395              		.cfi_offset 3, -16
 396              		.cfi_offset 4, -12
 397              		.cfi_offset 5, -8
 398              		.cfi_offset 14, -4
 476:.\Generated_Source\PSoC4/CyLib.c ****     {
 399              		.loc 1 476 0
 400 0002 041C     		mov	r4, r0
 401 0004 0D1C     		mov	r5, r1
 479:.\Generated_Source\PSoC4/CyLib.c ****         CYASSERT(counterNum < CY_SYS_WDT_COUNTERS_MAX);
 402              		.loc 1 479 0
 403 0006 0228     		cmp	r0, #2
 404 0008 00D9     		bls	.L33
 405              	.LVL21:
 406              	.LBB36:
 407              	.LBB37:
 408              		.loc 1 1849 0
 409              	@ 1849 ".\Generated_Source\PSoC4\CyLib.c" 1
 410 000a 01BE     		    bkpt    1
 411              	@ 0 "" 2
 412              	.LVL22:
 413              		.code	16
 414              	.L33:
ARM GAS  C:\Users\vrnk\AppData\Local\Temp\cchVr3qk.s 			page 41


 415              	.LBE37:
 416              	.LBE36:
 484:.\Generated_Source\PSoC4/CyLib.c ****         if (0u == (CY_SYS_CLK_ILO_CONFIG_REG & CY_SYS_CLK_ILO_CONFIG_ENABLE))
 417              		.loc 1 484 0
 418 000c 0B4B     		ldr	r3, .L36
 419 000e 1868     		ldr	r0, [r3]
 420              	.LVL23:
 421 0010 0028     		cmp	r0, #0
 422 0012 01DB     		blt	.L34
 486:.\Generated_Source\PSoC4/CyLib.c ****             CySysClkIloStart();
 423              		.loc 1 486 0
 424 0014 FFF7FEFF 		bl	CySysClkIloStart
 425              	.LVL24:
 426              	.L34:
 489:.\Generated_Source\PSoC4/CyLib.c ****         if(0u == CySysWdtReadEnabledStatus(counterNum))
 427              		.loc 1 489 0
 428 0018 201C     		mov	r0, r4
 429 001a FFF7FEFF 		bl	CySysWdtReadEnabledStatus
 430              	.LVL25:
 431 001e 0028     		cmp	r0, #0
 432 0020 0AD1     		bne	.L32
 491:.\Generated_Source\PSoC4/CyLib.c ****             configRegValue = CY_SYS_WDT_CONFIG_REG &
 433              		.loc 1 491 0
 434 0022 074B     		ldr	r3, .L36+4
 492:.\Generated_Source\PSoC4/CyLib.c ****                                 (uint32)~((uint32)(CY_SYS_WDT_MODE_MASK << (counterNum * CY_SYS_WDT
 435              		.loc 1 492 0
 436 0024 0322     		mov	r2, #3
 491:.\Generated_Source\PSoC4/CyLib.c ****             configRegValue = CY_SYS_WDT_CONFIG_REG &
 437              		.loc 1 491 0
 438 0026 1968     		ldr	r1, [r3]
 492:.\Generated_Source\PSoC4/CyLib.c ****                                 (uint32)~((uint32)(CY_SYS_WDT_MODE_MASK << (counterNum * CY_SYS_WDT
 439              		.loc 1 492 0
 440 0028 E400     		lsl	r4, r4, #3
 441              	.LVL26:
 442 002a 101C     		mov	r0, r2
 443 002c A040     		lsl	r0, r0, r4
 493:.\Generated_Source\PSoC4/CyLib.c ****             configRegValue |= (uint32)((mode & CY_SYS_WDT_MODE_MASK) << (counterNum * CY_SYS_WDT_CN
 444              		.loc 1 493 0
 445 002e 1540     		and	r5, r2
 446              	.LVL27:
 491:.\Generated_Source\PSoC4/CyLib.c ****             configRegValue = CY_SYS_WDT_CONFIG_REG &
 447              		.loc 1 491 0
 448 0030 8143     		bic	r1, r0
 449              	.LVL28:
 493:.\Generated_Source\PSoC4/CyLib.c ****             configRegValue |= (uint32)((mode & CY_SYS_WDT_MODE_MASK) << (counterNum * CY_SYS_WDT_CN
 450              		.loc 1 493 0
 451 0032 A540     		lsl	r5, r5, r4
 452 0034 2943     		orr	r1, r5
 453              	.LVL29:
 494:.\Generated_Source\PSoC4/CyLib.c ****             CY_SYS_WDT_CONFIG_REG = configRegValue;
 454              		.loc 1 494 0
 455 0036 1960     		str	r1, [r3]
 456              	.LVL30:
 457              	.L32:
 496:.\Generated_Source\PSoC4/CyLib.c ****     }
 458              		.loc 1 496 0
 459              		@ sp needed for prologue
ARM GAS  C:\Users\vrnk\AppData\Local\Temp\cchVr3qk.s 			page 42


 460 0038 38BD     		pop	{r3, r4, r5, pc}
 461              	.L37:
 462 003a C046     		.align	2
 463              	.L36:
 464 003c 04010B40 		.word	1074462980
 465 0040 0C020B40 		.word	1074463244
 466              		.cfi_endproc
 467              	.LFE10:
 468              		.size	CySysWdtWriteMode, .-CySysWdtWriteMode
 469              		.section	.text.CySysWdtReadMode,"ax",%progbits
 470              		.align	1
 471              		.global	CySysWdtReadMode
 472              		.code	16
 473              		.thumb_func
 474              		.type	CySysWdtReadMode, %function
 475              	CySysWdtReadMode:
 476              	.LFB11:
 515:.\Generated_Source\PSoC4/CyLib.c ****     {
 477              		.loc 1 515 0
 478              		.cfi_startproc
 479              	.LVL31:
 516:.\Generated_Source\PSoC4/CyLib.c ****         return ((CY_SYS_WDT_CONFIG_REG >> (counterNum * CY_SYS_WDT_CNT_SHIFT)) & CY_SYS_WDT_MODE_MA
 480              		.loc 1 516 0
 481 0000 034B     		ldr	r3, .L39
 482 0002 C000     		lsl	r0, r0, #3
 483              	.LVL32:
 484 0004 1968     		ldr	r1, [r3]
 485 0006 0322     		mov	r2, #3
 486 0008 C140     		lsr	r1, r1, r0
 487 000a 081C     		mov	r0, r1
 488 000c 1040     		and	r0, r2
 517:.\Generated_Source\PSoC4/CyLib.c ****     }
 489              		.loc 1 517 0
 490              		@ sp needed for prologue
 491 000e 7047     		bx	lr
 492              	.L40:
 493              		.align	2
 494              	.L39:
 495 0010 0C020B40 		.word	1074463244
 496              		.cfi_endproc
 497              	.LFE11:
 498              		.size	CySysWdtReadMode, .-CySysWdtReadMode
 499              		.section	.text.CySysWdtWriteClearOnMatch,"ax",%progbits
 500              		.align	1
 501              		.global	CySysWdtWriteClearOnMatch
 502              		.code	16
 503              		.thumb_func
 504              		.type	CySysWdtWriteClearOnMatch, %function
 505              	CySysWdtWriteClearOnMatch:
 506              	.LFB12:
 548:.\Generated_Source\PSoC4/CyLib.c ****     {
 507              		.loc 1 548 0
 508              		.cfi_startproc
 509              	.LVL33:
 510 0000 38B5     		push	{r3, r4, r5, lr}
 511              	.LCFI5:
 512              		.cfi_def_cfa_offset 16
ARM GAS  C:\Users\vrnk\AppData\Local\Temp\cchVr3qk.s 			page 43


 513              		.cfi_offset 3, -16
 514              		.cfi_offset 4, -12
 515              		.cfi_offset 5, -8
 516              		.cfi_offset 14, -4
 548:.\Generated_Source\PSoC4/CyLib.c ****     {
 517              		.loc 1 548 0
 518 0002 041C     		mov	r4, r0
 519 0004 0D1C     		mov	r5, r1
 549:.\Generated_Source\PSoC4/CyLib.c ****         CYASSERT((counterNum == CY_SYS_WDT_COUNTER0) ||
 520              		.loc 1 549 0
 521 0006 0128     		cmp	r0, #1
 522 0008 00D9     		bls	.L42
 523              	.LVL34:
 524              	.LBB38:
 525              	.LBB39:
 526              		.loc 1 1849 0
 527              	@ 1849 ".\Generated_Source\PSoC4\CyLib.c" 1
 528 000a 01BE     		    bkpt    1
 529              	@ 0 "" 2
 530              	.LVL35:
 531              		.code	16
 532              	.L42:
 533              	.LBE39:
 534              	.LBE38:
 555:.\Generated_Source\PSoC4/CyLib.c ****         if (0u == (CY_SYS_CLK_ILO_CONFIG_REG & CY_SYS_CLK_ILO_CONFIG_ENABLE))
 535              		.loc 1 555 0
 536 000c 094B     		ldr	r3, .L45
 537 000e 1868     		ldr	r0, [r3]
 538              	.LVL36:
 539 0010 0028     		cmp	r0, #0
 540 0012 01DB     		blt	.L43
 557:.\Generated_Source\PSoC4/CyLib.c ****             CySysClkIloStart();
 541              		.loc 1 557 0
 542 0014 FFF7FEFF 		bl	CySysClkIloStart
 543              	.LVL37:
 544              	.L43:
 560:.\Generated_Source\PSoC4/CyLib.c ****         if(0u == CySysWdtReadEnabledStatus(counterNum))
 545              		.loc 1 560 0
 546 0018 201C     		mov	r0, r4
 547 001a FFF7FEFF 		bl	CySysWdtReadEnabledStatus
 548              	.LVL38:
 549 001e 0028     		cmp	r0, #0
 550 0020 06D1     		bne	.L41
 562:.\Generated_Source\PSoC4/CyLib.c ****             CY_SYS_WDT_CONFIG_REG |= (uint32)(enable << ((counterNum * CY_SYS_WDT_CNT_SHIFT) +
 551              		.loc 1 562 0
 552 0022 0549     		ldr	r1, .L45+4
 553 0024 E400     		lsl	r4, r4, #3
 554              	.LVL39:
 555 0026 0A68     		ldr	r2, [r1]
 556 0028 0234     		add	r4, r4, #2
 557 002a A540     		lsl	r5, r5, r4
 558              	.LVL40:
 559 002c 1543     		orr	r5, r2
 560 002e 0D60     		str	r5, [r1]
 561              	.L41:
 565:.\Generated_Source\PSoC4/CyLib.c ****     }
 562              		.loc 1 565 0
ARM GAS  C:\Users\vrnk\AppData\Local\Temp\cchVr3qk.s 			page 44


 563              		@ sp needed for prologue
 564 0030 38BD     		pop	{r3, r4, r5, pc}
 565              	.L46:
 566 0032 C046     		.align	2
 567              	.L45:
 568 0034 04010B40 		.word	1074462980
 569 0038 0C020B40 		.word	1074463244
 570              		.cfi_endproc
 571              	.LFE12:
 572              		.size	CySysWdtWriteClearOnMatch, .-CySysWdtWriteClearOnMatch
 573              		.section	.text.CySysWdtReadClearOnMatch,"ax",%progbits
 574              		.align	1
 575              		.global	CySysWdtReadClearOnMatch
 576              		.code	16
 577              		.thumb_func
 578              		.type	CySysWdtReadClearOnMatch, %function
 579              	CySysWdtReadClearOnMatch:
 580              	.LFB13:
 584:.\Generated_Source\PSoC4/CyLib.c ****     {
 581              		.loc 1 584 0
 582              		.cfi_startproc
 583              	.LVL41:
 584 0000 00B5     		push	{lr}
 585              	.LCFI6:
 586              		.cfi_def_cfa_offset 4
 587              		.cfi_offset 14, -4
 585:.\Generated_Source\PSoC4/CyLib.c ****         CYASSERT((counterNum == CY_SYS_WDT_COUNTER0) ||
 588              		.loc 1 585 0
 589 0002 0128     		cmp	r0, #1
 590 0004 00D9     		bls	.L48
 591              	.LVL42:
 592              	.LBB40:
 593              	.LBB41:
 594              		.loc 1 1849 0
 595              	@ 1849 ".\Generated_Source\PSoC4\CyLib.c" 1
 596 0006 01BE     		    bkpt    1
 597              	@ 0 "" 2
 598              	.LVL43:
 599              		.code	16
 600              	.L48:
 601              	.LBE41:
 602              	.LBE40:
 588:.\Generated_Source\PSoC4/CyLib.c ****         return (uint32)((CY_SYS_WDT_CONFIG_REG >>
 603              		.loc 1 588 0
 604 0008 044B     		ldr	r3, .L49
 589:.\Generated_Source\PSoC4/CyLib.c ****                             ((counterNum * CY_SYS_WDT_CNT_SHIFT) + CY_SYS_WDT_CNT_MATCH_CLR_SHIFT))
 605              		.loc 1 589 0
 606 000a C000     		lsl	r0, r0, #3
 607              	.LVL44:
 588:.\Generated_Source\PSoC4/CyLib.c ****         return (uint32)((CY_SYS_WDT_CONFIG_REG >>
 608              		.loc 1 588 0
 609 000c 1968     		ldr	r1, [r3]
 589:.\Generated_Source\PSoC4/CyLib.c ****                             ((counterNum * CY_SYS_WDT_CNT_SHIFT) + CY_SYS_WDT_CNT_MATCH_CLR_SHIFT))
 610              		.loc 1 589 0
 611 000e 0230     		add	r0, r0, #2
 588:.\Generated_Source\PSoC4/CyLib.c ****         return (uint32)((CY_SYS_WDT_CONFIG_REG >>
 612              		.loc 1 588 0
ARM GAS  C:\Users\vrnk\AppData\Local\Temp\cchVr3qk.s 			page 45


 613 0010 C140     		lsr	r1, r1, r0
 614 0012 081C     		mov	r0, r1
 615 0014 0122     		mov	r2, #1
 616 0016 1040     		and	r0, r2
 590:.\Generated_Source\PSoC4/CyLib.c ****     }
 617              		.loc 1 590 0
 618              		@ sp needed for prologue
 619 0018 00BD     		pop	{pc}
 620              	.L50:
 621 001a C046     		.align	2
 622              	.L49:
 623 001c 0C020B40 		.word	1074463244
 624              		.cfi_endproc
 625              	.LFE13:
 626              		.size	CySysWdtReadClearOnMatch, .-CySysWdtReadClearOnMatch
 627              		.section	.text.CySysWdtEnable,"ax",%progbits
 628              		.align	1
 629              		.global	CySysWdtEnable
 630              		.code	16
 631              		.thumb_func
 632              		.type	CySysWdtEnable, %function
 633              	CySysWdtEnable:
 634              	.LFB14:
 617:.\Generated_Source\PSoC4/CyLib.c ****     {
 635              		.loc 1 617 0
 636              		.cfi_startproc
 637              	.LVL45:
 621:.\Generated_Source\PSoC4/CyLib.c ****         if (0u == (CY_SYS_CLK_ILO_CONFIG_REG & CY_SYS_CLK_ILO_CONFIG_ENABLE))
 638              		.loc 1 621 0
 639 0000 064B     		ldr	r3, .L53
 617:.\Generated_Source\PSoC4/CyLib.c ****     {
 640              		.loc 1 617 0
 641 0002 10B5     		push	{r4, lr}
 642              	.LCFI7:
 643              		.cfi_def_cfa_offset 8
 644              		.cfi_offset 4, -8
 645              		.cfi_offset 14, -4
 617:.\Generated_Source\PSoC4/CyLib.c ****     {
 646              		.loc 1 617 0
 647 0004 041C     		mov	r4, r0
 621:.\Generated_Source\PSoC4/CyLib.c ****         if (0u == (CY_SYS_CLK_ILO_CONFIG_REG & CY_SYS_CLK_ILO_CONFIG_ENABLE))
 648              		.loc 1 621 0
 649 0006 1868     		ldr	r0, [r3]
 650              	.LVL46:
 651 0008 0028     		cmp	r0, #0
 652 000a 01DB     		blt	.L52
 623:.\Generated_Source\PSoC4/CyLib.c ****             CySysClkIloStart();
 653              		.loc 1 623 0
 654 000c FFF7FEFF 		bl	CySysClkIloStart
 655              	.LVL47:
 656              	.L52:
 626:.\Generated_Source\PSoC4/CyLib.c ****         CY_SYS_WDT_CONTROL_REG |= counterMask;
 657              		.loc 1 626 0
 658 0010 0349     		ldr	r1, .L53+4
 627:.\Generated_Source\PSoC4/CyLib.c ****     }
 659              		.loc 1 627 0
 660              		@ sp needed for prologue
ARM GAS  C:\Users\vrnk\AppData\Local\Temp\cchVr3qk.s 			page 46


 626:.\Generated_Source\PSoC4/CyLib.c ****         CY_SYS_WDT_CONTROL_REG |= counterMask;
 661              		.loc 1 626 0
 662 0012 0A68     		ldr	r2, [r1]
 663 0014 1443     		orr	r4, r2
 664              	.LVL48:
 665 0016 0C60     		str	r4, [r1]
 627:.\Generated_Source\PSoC4/CyLib.c ****     }
 666              		.loc 1 627 0
 667 0018 10BD     		pop	{r4, pc}
 668              	.L54:
 669 001a C046     		.align	2
 670              	.L53:
 671 001c 04010B40 		.word	1074462980
 672 0020 10020B40 		.word	1074463248
 673              		.cfi_endproc
 674              	.LFE14:
 675              		.size	CySysWdtEnable, .-CySysWdtEnable
 676              		.section	.text.CySysWdtDisable,"ax",%progbits
 677              		.align	1
 678              		.global	CySysWdtDisable
 679              		.code	16
 680              		.thumb_func
 681              		.type	CySysWdtDisable, %function
 682              	CySysWdtDisable:
 683              	.LFB15:
 654:.\Generated_Source\PSoC4/CyLib.c ****     {
 684              		.loc 1 654 0
 685              		.cfi_startproc
 686              	.LVL49:
 658:.\Generated_Source\PSoC4/CyLib.c ****         if (0u == (CY_SYS_CLK_ILO_CONFIG_REG & CY_SYS_CLK_ILO_CONFIG_ENABLE))
 687              		.loc 1 658 0
 688 0000 064B     		ldr	r3, .L57
 654:.\Generated_Source\PSoC4/CyLib.c ****     {
 689              		.loc 1 654 0
 690 0002 10B5     		push	{r4, lr}
 691              	.LCFI8:
 692              		.cfi_def_cfa_offset 8
 693              		.cfi_offset 4, -8
 694              		.cfi_offset 14, -4
 654:.\Generated_Source\PSoC4/CyLib.c ****     {
 695              		.loc 1 654 0
 696 0004 041C     		mov	r4, r0
 658:.\Generated_Source\PSoC4/CyLib.c ****         if (0u == (CY_SYS_CLK_ILO_CONFIG_REG & CY_SYS_CLK_ILO_CONFIG_ENABLE))
 697              		.loc 1 658 0
 698 0006 1868     		ldr	r0, [r3]
 699              	.LVL50:
 700 0008 0028     		cmp	r0, #0
 701 000a 01DB     		blt	.L56
 660:.\Generated_Source\PSoC4/CyLib.c ****             CySysClkIloStart();
 702              		.loc 1 660 0
 703 000c FFF7FEFF 		bl	CySysClkIloStart
 704              	.LVL51:
 705              	.L56:
 663:.\Generated_Source\PSoC4/CyLib.c ****         CY_SYS_WDT_CONTROL_REG &= ~counterMask;
 706              		.loc 1 663 0
 707 0010 0349     		ldr	r1, .L57+4
 664:.\Generated_Source\PSoC4/CyLib.c ****     }
ARM GAS  C:\Users\vrnk\AppData\Local\Temp\cchVr3qk.s 			page 47


 708              		.loc 1 664 0
 709              		@ sp needed for prologue
 663:.\Generated_Source\PSoC4/CyLib.c ****         CY_SYS_WDT_CONTROL_REG &= ~counterMask;
 710              		.loc 1 663 0
 711 0012 0A68     		ldr	r2, [r1]
 712 0014 A243     		bic	r2, r4
 713 0016 0A60     		str	r2, [r1]
 714              	.LVL52:
 664:.\Generated_Source\PSoC4/CyLib.c ****     }
 715              		.loc 1 664 0
 716 0018 10BD     		pop	{r4, pc}
 717              	.L58:
 718 001a C046     		.align	2
 719              	.L57:
 720 001c 04010B40 		.word	1074462980
 721 0020 10020B40 		.word	1074463248
 722              		.cfi_endproc
 723              	.LFE15:
 724              		.size	CySysWdtDisable, .-CySysWdtDisable
 725              		.section	.text.CySysWdtWriteCascade,"ax",%progbits
 726              		.align	1
 727              		.global	CySysWdtWriteCascade
 728              		.code	16
 729              		.thumb_func
 730              		.type	CySysWdtWriteCascade, %function
 731              	CySysWdtWriteCascade:
 732              	.LFB16:
 693:.\Generated_Source\PSoC4/CyLib.c ****     {
 733              		.loc 1 693 0
 734              		.cfi_startproc
 735              	.LVL53:
 736              	.LBB54:
 737              	.LBB55:
 443:.\Generated_Source\PSoC4/CyLib.c ****         return ((CY_SYS_WDT_CONTROL_REG >> ((CY_SYS_WDT_CNT_SHIFT * counterNum) + CY_SYS_WDT_CNT_ST
 738              		.loc 1 443 0
 739 0000 0C4B     		ldr	r3, .L62
 740              	.LBE55:
 741              	.LBE54:
 693:.\Generated_Source\PSoC4/CyLib.c ****     {
 742              		.loc 1 693 0
 743 0002 10B5     		push	{r4, lr}
 744              	.LCFI9:
 745              		.cfi_def_cfa_offset 8
 746              		.cfi_offset 4, -8
 747              		.cfi_offset 14, -4
 693:.\Generated_Source\PSoC4/CyLib.c ****     {
 748              		.loc 1 693 0
 749 0004 041C     		mov	r4, r0
 750              	.LBB58:
 751              	.LBB56:
 443:.\Generated_Source\PSoC4/CyLib.c ****         return ((CY_SYS_WDT_CONTROL_REG >> ((CY_SYS_WDT_CNT_SHIFT * counterNum) + CY_SYS_WDT_CNT_ST
 752              		.loc 1 443 0
 753 0006 1868     		ldr	r0, [r3]
 754              	.LVL54:
 755              	.LBE56:
 756              	.LBE58:
 757              	.LBB59:
ARM GAS  C:\Users\vrnk\AppData\Local\Temp\cchVr3qk.s 			page 48


 758              	.LBB60:
 759 0008 1968     		ldr	r1, [r3]
 760              	.LVL55:
 761              	.LBE60:
 762              	.LBE59:
 763              	.LBB62:
 764              	.LBB63:
 765 000a 1A68     		ldr	r2, [r3]
 766              	.LVL56:
 767              	.LBE63:
 768              	.LBE62:
 769              	.LBB65:
 770              	.LBB61:
 771 000c 490A     		lsr	r1, r1, #9
 772              	.LVL57:
 773              	.LBE61:
 774              	.LBE65:
 775              	.LBB66:
 776              	.LBB57:
 777 000e 4308     		lsr	r3, r0, #1
 778 0010 0B43     		orr	r3, r1
 779              	.LBE57:
 780              	.LBE66:
 781              	.LBB67:
 782              	.LBB64:
 783 0012 500C     		lsr	r0, r2, #17
 784 0014 0343     		orr	r3, r0
 785              	.LBE64:
 786              	.LBE67:
 701:.\Generated_Source\PSoC4/CyLib.c ****         if (0u == countersEnableStatus)
 787              		.loc 1 701 0
 788 0016 DA07     		lsl	r2, r3, #31
 789 0018 0BD4     		bmi	.L59
 706:.\Generated_Source\PSoC4/CyLib.c ****             if (0u == (CY_SYS_CLK_ILO_CONFIG_REG & CY_SYS_CLK_ILO_CONFIG_ENABLE))
 790              		.loc 1 706 0
 791 001a 074A     		ldr	r2, .L62+4
 792 001c 1168     		ldr	r1, [r2]
 793 001e 0029     		cmp	r1, #0
 794 0020 01DB     		blt	.L61
 708:.\Generated_Source\PSoC4/CyLib.c ****                 CySysClkIloStart();
 795              		.loc 1 708 0
 796 0022 FFF7FEFF 		bl	CySysClkIloStart
 797              	.LVL58:
 798              	.L61:
 711:.\Generated_Source\PSoC4/CyLib.c ****             configRegValue = CY_SYS_WDT_CONFIG_REG;
 799              		.loc 1 711 0
 800 0026 054B     		ldr	r3, .L62+8
 712:.\Generated_Source\PSoC4/CyLib.c ****             configRegValue &= ((uint32)(~(CY_SYS_WDT_CASCADE_01|CY_SYS_WDT_CASCADE_12)));
 801              		.loc 1 712 0
 802 0028 054A     		ldr	r2, .L62+12
 711:.\Generated_Source\PSoC4/CyLib.c ****             configRegValue = CY_SYS_WDT_CONFIG_REG;
 803              		.loc 1 711 0
 804 002a 1868     		ldr	r0, [r3]
 805              	.LVL59:
 712:.\Generated_Source\PSoC4/CyLib.c ****             configRegValue &= ((uint32)(~(CY_SYS_WDT_CASCADE_01|CY_SYS_WDT_CASCADE_12)));
 806              		.loc 1 712 0
 807 002c 0240     		and	r2, r0
ARM GAS  C:\Users\vrnk\AppData\Local\Temp\cchVr3qk.s 			page 49


 808              	.LVL60:
 713:.\Generated_Source\PSoC4/CyLib.c ****             configRegValue |= cascadeMask;
 809              		.loc 1 713 0
 810 002e 1443     		orr	r4, r2
 811              	.LVL61:
 714:.\Generated_Source\PSoC4/CyLib.c ****             CY_SYS_WDT_CONFIG_REG = configRegValue;
 812              		.loc 1 714 0
 813 0030 1C60     		str	r4, [r3]
 814              	.LVL62:
 815              	.L59:
 716:.\Generated_Source\PSoC4/CyLib.c ****     }
 816              		.loc 1 716 0
 817              		@ sp needed for prologue
 818 0032 10BD     		pop	{r4, pc}
 819              	.L63:
 820              		.align	2
 821              	.L62:
 822 0034 10020B40 		.word	1074463248
 823 0038 04010B40 		.word	1074462980
 824 003c 0C020B40 		.word	1074463244
 825 0040 F7F7FFFF 		.word	-2057
 826              		.cfi_endproc
 827              	.LFE16:
 828              		.size	CySysWdtWriteCascade, .-CySysWdtWriteCascade
 829              		.section	.text.CySysWdtReadCascade,"ax",%progbits
 830              		.align	1
 831              		.global	CySysWdtReadCascade
 832              		.code	16
 833              		.thumb_func
 834              		.type	CySysWdtReadCascade, %function
 835              	CySysWdtReadCascade:
 836              	.LFB17:
 738:.\Generated_Source\PSoC4/CyLib.c ****     {
 837              		.loc 1 738 0
 838              		.cfi_startproc
 739:.\Generated_Source\PSoC4/CyLib.c ****         return (CY_SYS_WDT_CONFIG_REG & (CY_SYS_WDT_CASCADE_01 | CY_SYS_WDT_CASCADE_12));
 839              		.loc 1 739 0
 840 0000 024B     		ldr	r3, .L65
 841 0002 0349     		ldr	r1, .L65+4
 842 0004 1868     		ldr	r0, [r3]
 740:.\Generated_Source\PSoC4/CyLib.c ****     }
 843              		.loc 1 740 0
 844              		@ sp needed for prologue
 739:.\Generated_Source\PSoC4/CyLib.c ****         return (CY_SYS_WDT_CONFIG_REG & (CY_SYS_WDT_CASCADE_01 | CY_SYS_WDT_CASCADE_12));
 845              		.loc 1 739 0
 846 0006 0840     		and	r0, r1
 740:.\Generated_Source\PSoC4/CyLib.c ****     }
 847              		.loc 1 740 0
 848 0008 7047     		bx	lr
 849              	.L66:
 850 000a C046     		.align	2
 851              	.L65:
 852 000c 0C020B40 		.word	1074463244
 853 0010 08080000 		.word	2056
 854              		.cfi_endproc
 855              	.LFE17:
 856              		.size	CySysWdtReadCascade, .-CySysWdtReadCascade
ARM GAS  C:\Users\vrnk\AppData\Local\Temp\cchVr3qk.s 			page 50


 857              		.section	.text.CySysWdtWriteToggleBit,"ax",%progbits
 858              		.align	1
 859              		.global	CySysWdtWriteToggleBit
 860              		.code	16
 861              		.thumb_func
 862              		.type	CySysWdtWriteToggleBit, %function
 863              	CySysWdtWriteToggleBit:
 864              	.LFB19:
 812:.\Generated_Source\PSoC4/CyLib.c ****     {
 865              		.loc 1 812 0
 866              		.cfi_startproc
 867              	.LVL63:
 868              	.LBB72:
 869              	.LBB73:
 443:.\Generated_Source\PSoC4/CyLib.c ****         return ((CY_SYS_WDT_CONTROL_REG >> ((CY_SYS_WDT_CNT_SHIFT * counterNum) + CY_SYS_WDT_CNT_ST
 870              		.loc 1 443 0
 871 0000 0A4B     		ldr	r3, .L70
 872              	.LBE73:
 873              	.LBE72:
 812:.\Generated_Source\PSoC4/CyLib.c ****     {
 874              		.loc 1 812 0
 875 0002 10B5     		push	{r4, lr}
 876              	.LCFI10:
 877              		.cfi_def_cfa_offset 8
 878              		.cfi_offset 4, -8
 879              		.cfi_offset 14, -4
 812:.\Generated_Source\PSoC4/CyLib.c ****     {
 880              		.loc 1 812 0
 881 0004 041C     		mov	r4, r0
 882              	.LBB75:
 883              	.LBB74:
 443:.\Generated_Source\PSoC4/CyLib.c ****         return ((CY_SYS_WDT_CONTROL_REG >> ((CY_SYS_WDT_CNT_SHIFT * counterNum) + CY_SYS_WDT_CNT_ST
 884              		.loc 1 443 0
 885 0006 1868     		ldr	r0, [r3]
 886              	.LVL64:
 887              	.LBE74:
 888              	.LBE75:
 815:.\Generated_Source\PSoC4/CyLib.c ****         if (0u == CySysWdtReadEnabledStatus(CY_SYS_WDT_COUNTER2))
 889              		.loc 1 815 0
 890 0008 8203     		lsl	r2, r0, #14
 891 000a 0ED4     		bmi	.L67
 820:.\Generated_Source\PSoC4/CyLib.c ****             if (0u == (CY_SYS_CLK_ILO_CONFIG_REG & CY_SYS_CLK_ILO_CONFIG_ENABLE))
 892              		.loc 1 820 0
 893 000c 0849     		ldr	r1, .L70+4
 894 000e 0A68     		ldr	r2, [r1]
 895 0010 002A     		cmp	r2, #0
 896 0012 01DB     		blt	.L69
 822:.\Generated_Source\PSoC4/CyLib.c ****                 CySysClkIloStart();
 897              		.loc 1 822 0
 898 0014 FFF7FEFF 		bl	CySysClkIloStart
 899              	.LVL65:
 900              	.L69:
 825:.\Generated_Source\PSoC4/CyLib.c ****             configRegValue = CY_SYS_WDT_CONFIG_REG;
 901              		.loc 1 825 0
 902 0018 064B     		ldr	r3, .L70+8
 826:.\Generated_Source\PSoC4/CyLib.c ****             configRegValue &= (uint32)(~((uint32)(CY_SYS_WDT_CONFIG_BITS2_MASK << CY_SYS_WDT_CONFIG
 903              		.loc 1 826 0
ARM GAS  C:\Users\vrnk\AppData\Local\Temp\cchVr3qk.s 			page 51


 904 001a 074A     		ldr	r2, .L70+12
 825:.\Generated_Source\PSoC4/CyLib.c ****             configRegValue = CY_SYS_WDT_CONFIG_REG;
 905              		.loc 1 825 0
 906 001c 1868     		ldr	r0, [r3]
 907              	.LVL66:
 827:.\Generated_Source\PSoC4/CyLib.c ****             configRegValue |= ((bits & CY_SYS_WDT_CONFIG_BITS2_MASK) << CY_SYS_WDT_CONFIG_BITS2_POS
 908              		.loc 1 827 0
 909 001e 1F21     		mov	r1, #31
 910 0020 0C40     		and	r4, r1
 911              	.LVL67:
 826:.\Generated_Source\PSoC4/CyLib.c ****             configRegValue &= (uint32)(~((uint32)(CY_SYS_WDT_CONFIG_BITS2_MASK << CY_SYS_WDT_CONFIG
 912              		.loc 1 826 0
 913 0022 0240     		and	r2, r0
 914              	.LVL68:
 827:.\Generated_Source\PSoC4/CyLib.c ****             configRegValue |= ((bits & CY_SYS_WDT_CONFIG_BITS2_MASK) << CY_SYS_WDT_CONFIG_BITS2_POS
 915              		.loc 1 827 0
 916 0024 2406     		lsl	r4, r4, #24
 917 0026 1443     		orr	r4, r2
 918              	.LVL69:
 828:.\Generated_Source\PSoC4/CyLib.c ****             CY_SYS_WDT_CONFIG_REG = configRegValue;
 919              		.loc 1 828 0
 920 0028 1C60     		str	r4, [r3]
 921              	.LVL70:
 922              	.L67:
 830:.\Generated_Source\PSoC4/CyLib.c ****     }
 923              		.loc 1 830 0
 924              		@ sp needed for prologue
 925 002a 10BD     		pop	{r4, pc}
 926              	.L71:
 927              		.align	2
 928              	.L70:
 929 002c 10020B40 		.word	1074463248
 930 0030 04010B40 		.word	1074462980
 931 0034 0C020B40 		.word	1074463244
 932 0038 FFFFFFE0 		.word	-520093697
 933              		.cfi_endproc
 934              	.LFE19:
 935              		.size	CySysWdtWriteToggleBit, .-CySysWdtWriteToggleBit
 936              		.section	.text.CySysWdtReadToggleBit,"ax",%progbits
 937              		.align	1
 938              		.global	CySysWdtReadToggleBit
 939              		.code	16
 940              		.thumb_func
 941              		.type	CySysWdtReadToggleBit, %function
 942              	CySysWdtReadToggleBit:
 943              	.LFB20:
 848:.\Generated_Source\PSoC4/CyLib.c ****     {
 944              		.loc 1 848 0
 945              		.cfi_startproc
 849:.\Generated_Source\PSoC4/CyLib.c ****         return ((CY_SYS_WDT_CONFIG_REG >> CY_SYS_WDT_CONFIG_BITS2_POS) & CY_SYS_WDT_CONFIG_BITS2_MA
 946              		.loc 1 849 0
 947 0000 024B     		ldr	r3, .L73
 850:.\Generated_Source\PSoC4/CyLib.c ****     }
 948              		.loc 1 850 0
 949              		@ sp needed for prologue
 849:.\Generated_Source\PSoC4/CyLib.c ****         return ((CY_SYS_WDT_CONFIG_REG >> CY_SYS_WDT_CONFIG_BITS2_POS) & CY_SYS_WDT_CONFIG_BITS2_MA
 950              		.loc 1 849 0
ARM GAS  C:\Users\vrnk\AppData\Local\Temp\cchVr3qk.s 			page 52


 951 0002 1868     		ldr	r0, [r3]
 952 0004 C100     		lsl	r1, r0, #3
 953 0006 C80E     		lsr	r0, r1, #27
 850:.\Generated_Source\PSoC4/CyLib.c ****     }
 954              		.loc 1 850 0
 955 0008 7047     		bx	lr
 956              	.L74:
 957 000a C046     		.align	2
 958              	.L73:
 959 000c 0C020B40 		.word	1074463244
 960              		.cfi_endproc
 961              	.LFE20:
 962              		.size	CySysWdtReadToggleBit, .-CySysWdtReadToggleBit
 963              		.section	.text.CySysWdtReadMatch,"ax",%progbits
 964              		.align	1
 965              		.global	CySysWdtReadMatch
 966              		.code	16
 967              		.thumb_func
 968              		.type	CySysWdtReadMatch, %function
 969              	CySysWdtReadMatch:
 970              	.LFB21:
 869:.\Generated_Source\PSoC4/CyLib.c ****     {
 971              		.loc 1 869 0
 972              		.cfi_startproc
 973              	.LVL71:
 974 0000 00B5     		push	{lr}
 975              	.LCFI11:
 976              		.cfi_def_cfa_offset 4
 977              		.cfi_offset 14, -4
 870:.\Generated_Source\PSoC4/CyLib.c ****         CYASSERT((counterNum == CY_SYS_WDT_COUNTER0) ||
 978              		.loc 1 870 0
 979 0002 0128     		cmp	r0, #1
 980 0004 00D9     		bls	.L76
 981              	.LVL72:
 982              	.LBB76:
 983              	.LBB77:
 984              		.loc 1 1849 0
 985              	@ 1849 ".\Generated_Source\PSoC4\CyLib.c" 1
 986 0006 01BE     		    bkpt    1
 987              	@ 0 "" 2
 988              	.LVL73:
 989              		.code	16
 990              	.L76:
 991              	.LBE77:
 992              	.LBE76:
 872:.\Generated_Source\PSoC4/CyLib.c ****         return ((uint32)(CY_SYS_WDT_MATCH_REG >> (counterNum * CY_SYS_WDT_CNT_MATCH_SHIFT)) & CY_SY
 993              		.loc 1 872 0
 994 0008 024B     		ldr	r3, .L77
 995 000a 0001     		lsl	r0, r0, #4
 996              	.LVL74:
 997 000c 1968     		ldr	r1, [r3]
 873:.\Generated_Source\PSoC4/CyLib.c ****     }
 998              		.loc 1 873 0
 999              		@ sp needed for prologue
 872:.\Generated_Source\PSoC4/CyLib.c ****         return ((uint32)(CY_SYS_WDT_MATCH_REG >> (counterNum * CY_SYS_WDT_CNT_MATCH_SHIFT)) & CY_SY
 1000              		.loc 1 872 0
 1001 000e C140     		lsr	r1, r1, r0
ARM GAS  C:\Users\vrnk\AppData\Local\Temp\cchVr3qk.s 			page 53


 1002 0010 88B2     		uxth	r0, r1
 873:.\Generated_Source\PSoC4/CyLib.c ****     }
 1003              		.loc 1 873 0
 1004 0012 00BD     		pop	{pc}
 1005              	.L78:
 1006              		.align	2
 1007              	.L77:
 1008 0014 08020B40 		.word	1074463240
 1009              		.cfi_endproc
 1010              	.LFE21:
 1011              		.size	CySysWdtReadMatch, .-CySysWdtReadMatch
 1012              		.section	.text.CySysWdtReadCount,"ax",%progbits
 1013              		.align	1
 1014              		.global	CySysWdtReadCount
 1015              		.code	16
 1016              		.thumb_func
 1017              		.type	CySysWdtReadCount, %function
 1018              	CySysWdtReadCount:
 1019              	.LFB22:
 892:.\Generated_Source\PSoC4/CyLib.c ****     {
 1020              		.loc 1 892 0
 1021              		.cfi_startproc
 1022              	.LVL75:
 1023 0000 00B5     		push	{lr}
 1024              	.LCFI12:
 1025              		.cfi_def_cfa_offset 4
 1026              		.cfi_offset 14, -4
 895:.\Generated_Source\PSoC4/CyLib.c ****         switch(counterNum)
 1027              		.loc 1 895 0
 1028 0002 0128     		cmp	r0, #1
 1029 0004 0AD0     		beq	.L82
 1030 0006 0028     		cmp	r0, #0
 1031 0008 04D0     		beq	.L81
 1032 000a 0228     		cmp	r0, #2
 1033 000c 0AD1     		bne	.L85
 909:.\Generated_Source\PSoC4/CyLib.c ****                 regValue = CY_SYS_WDT_CTRHIGH_REG;
 1034              		.loc 1 909 0
 1035 000e 074B     		ldr	r3, .L86
 1036 0010 1868     		ldr	r0, [r3]
 1037              	.LVL76:
 910:.\Generated_Source\PSoC4/CyLib.c ****             break;
 1038              		.loc 1 910 0
 1039 0012 09E0     		b	.L84
 1040              	.LVL77:
 1041              	.L81:
 899:.\Generated_Source\PSoC4/CyLib.c ****                 regValue = CY_SYS_WDT_CTRLOW_REG & CY_SYS_WDT_LOWER_16BITS_MASK;
 1042              		.loc 1 899 0
 1043 0014 0648     		ldr	r0, .L86+4
 1044              	.LVL78:
 1045 0016 0168     		ldr	r1, [r0]
 1046 0018 88B2     		uxth	r0, r1
 1047              	.LVL79:
 900:.\Generated_Source\PSoC4/CyLib.c ****             break;
 1048              		.loc 1 900 0
 1049 001a 05E0     		b	.L84
 1050              	.LVL80:
 1051              	.L82:
ARM GAS  C:\Users\vrnk\AppData\Local\Temp\cchVr3qk.s 			page 54


 904:.\Generated_Source\PSoC4/CyLib.c ****                 regValue = (CY_SYS_WDT_CTRLOW_REG >> CY_SYS_WDT_CNT_MATCH_SHIFT) & CY_SYS_WDT_LOWER
 1052              		.loc 1 904 0
 1053 001c 044A     		ldr	r2, .L86+4
 1054 001e 1368     		ldr	r3, [r2]
 1055 0020 180C     		lsr	r0, r3, #16
 1056              	.LVL81:
 905:.\Generated_Source\PSoC4/CyLib.c ****             break;
 1057              		.loc 1 905 0
 1058 0022 01E0     		b	.L84
 1059              	.LVL82:
 1060              	.L85:
 1061              	.LBB78:
 1062              	.LBB79:
 1063              		.loc 1 1849 0
 1064              	@ 1849 ".\Generated_Source\PSoC4\CyLib.c" 1
 1065 0024 01BE     		    bkpt    1
 1066              	@ 0 "" 2
 893:.\Generated_Source\PSoC4/CyLib.c ****         uint32 regValue = 0u;
 1067              		.loc 1 893 0
 1068              		.code	16
 1069 0026 0020     		mov	r0, #0
 1070              	.LVL83:
 1071              	.L84:
 1072              	.LBE79:
 1073              	.LBE78:
 918:.\Generated_Source\PSoC4/CyLib.c ****     }
 1074              		.loc 1 918 0
 1075              		@ sp needed for prologue
 1076 0028 00BD     		pop	{pc}
 1077              	.L87:
 1078 002a C046     		.align	2
 1079              	.L86:
 1080 002c 04020B40 		.word	1074463236
 1081 0030 00020B40 		.word	1074463232
 1082              		.cfi_endproc
 1083              	.LFE22:
 1084              		.size	CySysWdtReadCount, .-CySysWdtReadCount
 1085              		.section	.text.CySysWdtGetInterruptSource,"ax",%progbits
 1086              		.align	1
 1087              		.global	CySysWdtGetInterruptSource
 1088              		.code	16
 1089              		.thumb_func
 1090              		.type	CySysWdtGetInterruptSource, %function
 1091              	CySysWdtGetInterruptSource:
 1092              	.LFB23:
 941:.\Generated_Source\PSoC4/CyLib.c ****     {
 1093              		.loc 1 941 0
 1094              		.cfi_startproc
 942:.\Generated_Source\PSoC4/CyLib.c ****         return (CY_SYS_WDT_CONTROL_REG & (CY_SYS_WDT_COUNTER0_INT | CY_SYS_WDT_COUNTER1_INT | CY_SY
 1095              		.loc 1 942 0
 1096 0000 024B     		ldr	r3, .L89
 1097 0002 0349     		ldr	r1, .L89+4
 1098 0004 1868     		ldr	r0, [r3]
 943:.\Generated_Source\PSoC4/CyLib.c ****     }
 1099              		.loc 1 943 0
 1100              		@ sp needed for prologue
 942:.\Generated_Source\PSoC4/CyLib.c ****         return (CY_SYS_WDT_CONTROL_REG & (CY_SYS_WDT_COUNTER0_INT | CY_SYS_WDT_COUNTER1_INT | CY_SY
ARM GAS  C:\Users\vrnk\AppData\Local\Temp\cchVr3qk.s 			page 55


 1101              		.loc 1 942 0
 1102 0006 0840     		and	r0, r1
 943:.\Generated_Source\PSoC4/CyLib.c ****     }
 1103              		.loc 1 943 0
 1104 0008 7047     		bx	lr
 1105              	.L90:
 1106 000a C046     		.align	2
 1107              	.L89:
 1108 000c 10020B40 		.word	1074463248
 1109 0010 04040400 		.word	263172
 1110              		.cfi_endproc
 1111              	.LFE23:
 1112              		.size	CySysWdtGetInterruptSource, .-CySysWdtGetInterruptSource
 1113              		.section	.text.CySysWdtClearInterrupt,"ax",%progbits
 1114              		.align	1
 1115              		.global	CySysWdtClearInterrupt
 1116              		.code	16
 1117              		.thumb_func
 1118              		.type	CySysWdtClearInterrupt, %function
 1119              	CySysWdtClearInterrupt:
 1120              	.LFB24:
 974:.\Generated_Source\PSoC4/CyLib.c ****     {
 1121              		.loc 1 974 0
 1122              		.cfi_startproc
 1123              	.LVL84:
 1124 0000 70B5     		push	{r4, r5, r6, lr}
 1125              	.LCFI13:
 1126              		.cfi_def_cfa_offset 16
 1127              		.cfi_offset 4, -16
 1128              		.cfi_offset 5, -12
 1129              		.cfi_offset 6, -8
 1130              		.cfi_offset 14, -4
 974:.\Generated_Source\PSoC4/CyLib.c ****     {
 1131              		.loc 1 974 0
 1132 0002 051C     		mov	r5, r0
 978:.\Generated_Source\PSoC4/CyLib.c ****         interruptState = CyEnterCriticalSection();
 1133              		.loc 1 978 0
 1134 0004 FFF7FEFF 		bl	CyEnterCriticalSection
 1135              	.LVL85:
 983:.\Generated_Source\PSoC4/CyLib.c ****         if (0u == (CY_SYS_CLK_ILO_CONFIG_REG & CY_SYS_CLK_ILO_CONFIG_ENABLE))
 1136              		.loc 1 983 0
 1137 0008 164B     		ldr	r3, .L96
 978:.\Generated_Source\PSoC4/CyLib.c ****         interruptState = CyEnterCriticalSection();
 1138              		.loc 1 978 0
 1139 000a 041C     		mov	r4, r0
 1140              	.LVL86:
 983:.\Generated_Source\PSoC4/CyLib.c ****         if (0u == (CY_SYS_CLK_ILO_CONFIG_REG & CY_SYS_CLK_ILO_CONFIG_ENABLE))
 1141              		.loc 1 983 0
 1142 000c 1868     		ldr	r0, [r3]
 1143              	.LVL87:
 1144 000e 0028     		cmp	r0, #0
 1145 0010 01DB     		blt	.L92
 985:.\Generated_Source\PSoC4/CyLib.c ****             CySysClkIloStart();
 1146              		.loc 1 985 0
 1147 0012 FFF7FEFF 		bl	CySysClkIloStart
 1148              	.LVL88:
 1149              	.L92:
ARM GAS  C:\Users\vrnk\AppData\Local\Temp\cchVr3qk.s 			page 56


 988:.\Generated_Source\PSoC4/CyLib.c ****         if ((CY_SYS_CLK_SELECT_REG & (uint32)(CY_SYS_WDT_CLK_LOCK_BITS_MASK)) == CY_SYS_WDT_CLK_LOC
 1150              		.loc 1 988 0
 1151 0016 144B     		ldr	r3, .L96+4
 1152 0018 C021     		mov	r1, #192
 1153 001a 1E68     		ldr	r6, [r3]
 1154 001c 0802     		lsl	r0, r1, #8
 1155 001e 0640     		and	r6, r0
1001:.\Generated_Source\PSoC4/CyLib.c ****             wdtLockState = 0u;
 1156              		.loc 1 1001 0
 1157 0020 0022     		mov	r2, #0
 988:.\Generated_Source\PSoC4/CyLib.c ****         if ((CY_SYS_CLK_SELECT_REG & (uint32)(CY_SYS_WDT_CLK_LOCK_BITS_MASK)) == CY_SYS_WDT_CLK_LOC
 1158              		.loc 1 988 0
 1159 0022 8642     		cmp	r6, r0
 1160 0024 0DD1     		bne	.L93
 1161              	.LVL89:
 993:.\Generated_Source\PSoC4/CyLib.c ****             CY_SYS_CLK_SELECT_REG = ((CY_SYS_CLK_SELECT_REG & (uint32)(~CY_SYS_WDT_CLK_LOCK_BITS_MA
 1162              		.loc 1 993 0
 1163 0026 1E68     		ldr	r6, [r3]
 1164 0028 104A     		ldr	r2, .L96+8
 1165 002a 8021     		mov	r1, #128
 1166 002c C801     		lsl	r0, r1, #7
 1167 002e 1640     		and	r6, r2
 1168 0030 0643     		orr	r6, r0
 1169 0032 1E60     		str	r6, [r3]
 996:.\Generated_Source\PSoC4/CyLib.c ****             CY_SYS_CLK_SELECT_REG = ((CY_SYS_CLK_SELECT_REG & (uint32)(~CY_SYS_WDT_CLK_LOCK_BITS_MA
 1170              		.loc 1 996 0
 1171 0034 1E68     		ldr	r6, [r3]
 1172 0036 8021     		mov	r1, #128
 1173 0038 3240     		and	r2, r6
 1174 003a 0802     		lsl	r0, r1, #8
 1175 003c 0243     		orr	r2, r0
 1176 003e 1A60     		str	r2, [r3]
 990:.\Generated_Source\PSoC4/CyLib.c ****             wdtLockState = 1u;
 1177              		.loc 1 990 0
 1178 0040 0122     		mov	r2, #1
 1179              	.LVL90:
 1180              	.L93:
1005:.\Generated_Source\PSoC4/CyLib.c ****         CY_SYS_WDT_CONTROL_REG |= (counterMask & (CY_SYS_WDT_COUNTER0_INT |
 1181              		.loc 1 1005 0
 1182 0042 0B49     		ldr	r1, .L96+12
 1183 0044 0B4E     		ldr	r6, .L96+16
 1184 0046 0868     		ldr	r0, [r1]
 1185 0048 3540     		and	r5, r6
 1186              	.LVL91:
 1187 004a 0543     		orr	r5, r0
 1188 004c 0D60     		str	r5, [r1]
1008:.\Generated_Source\PSoC4/CyLib.c ****         if (1u == wdtLockState)
 1189              		.loc 1 1008 0
 1190 004e 012A     		cmp	r2, #1
 1191 0050 04D1     		bne	.L94
1011:.\Generated_Source\PSoC4/CyLib.c ****             CY_SYS_CLK_SELECT_REG = (CY_SYS_CLK_SELECT_REG & (uint32)(~CY_SYS_WDT_CLK_LOCK_BITS_MAS
 1192              		.loc 1 1011 0
 1193 0052 1D68     		ldr	r5, [r3]
 1194 0054 C022     		mov	r2, #192
 1195              	.LVL92:
 1196 0056 1102     		lsl	r1, r2, #8
 1197 0058 2943     		orr	r1, r5
ARM GAS  C:\Users\vrnk\AppData\Local\Temp\cchVr3qk.s 			page 57


 1198 005a 1960     		str	r1, [r3]
 1199              	.L94:
1015:.\Generated_Source\PSoC4/CyLib.c ****         CyExitCriticalSection(interruptState);
 1200              		.loc 1 1015 0
 1201 005c 201C     		mov	r0, r4
 1202 005e FFF7FEFF 		bl	CyExitCriticalSection
 1203              	.LVL93:
1016:.\Generated_Source\PSoC4/CyLib.c ****     }
 1204              		.loc 1 1016 0
 1205              		@ sp needed for prologue
 1206              	.LVL94:
 1207 0062 70BD     		pop	{r4, r5, r6, pc}
 1208              	.L97:
 1209              		.align	2
 1210              	.L96:
 1211 0064 04010B40 		.word	1074462980
 1212 0068 00010B40 		.word	1074462976
 1213 006c FF3FFFFF 		.word	-49153
 1214 0070 10020B40 		.word	1074463248
 1215 0074 04040400 		.word	263172
 1216              		.cfi_endproc
 1217              	.LFE24:
 1218              		.size	CySysWdtClearInterrupt, .-CySysWdtClearInterrupt
 1219              		.section	.text.CySysWdtResetCounters,"ax",%progbits
 1220              		.align	1
 1221              		.global	CySysWdtResetCounters
 1222              		.code	16
 1223              		.thumb_func
 1224              		.type	CySysWdtResetCounters, %function
 1225              	CySysWdtResetCounters:
 1226              	.LFB25:
1042:.\Generated_Source\PSoC4/CyLib.c ****     {
 1227              		.loc 1 1042 0
 1228              		.cfi_startproc
 1229              	.LVL95:
1046:.\Generated_Source\PSoC4/CyLib.c ****         if (0u == (CY_SYS_CLK_ILO_CONFIG_REG & CY_SYS_CLK_ILO_CONFIG_ENABLE))
 1230              		.loc 1 1046 0
 1231 0000 074B     		ldr	r3, .L100
1042:.\Generated_Source\PSoC4/CyLib.c ****     {
 1232              		.loc 1 1042 0
 1233 0002 10B5     		push	{r4, lr}
 1234              	.LCFI14:
 1235              		.cfi_def_cfa_offset 8
 1236              		.cfi_offset 4, -8
 1237              		.cfi_offset 14, -4
1042:.\Generated_Source\PSoC4/CyLib.c ****     {
 1238              		.loc 1 1042 0
 1239 0004 041C     		mov	r4, r0
1046:.\Generated_Source\PSoC4/CyLib.c ****         if (0u == (CY_SYS_CLK_ILO_CONFIG_REG & CY_SYS_CLK_ILO_CONFIG_ENABLE))
 1240              		.loc 1 1046 0
 1241 0006 1868     		ldr	r0, [r3]
 1242              	.LVL96:
 1243 0008 0028     		cmp	r0, #0
 1244 000a 01DB     		blt	.L99
1048:.\Generated_Source\PSoC4/CyLib.c ****             CySysClkIloStart();
 1245              		.loc 1 1048 0
 1246 000c FFF7FEFF 		bl	CySysClkIloStart
ARM GAS  C:\Users\vrnk\AppData\Local\Temp\cchVr3qk.s 			page 58


 1247              	.LVL97:
 1248              	.L99:
1052:.\Generated_Source\PSoC4/CyLib.c ****         CY_SYS_WDT_CONTROL_REG |= (countersMask & (CY_SYS_WDT_COUNTER0_RESET |
 1249              		.loc 1 1052 0
 1250 0010 044B     		ldr	r3, .L100+4
 1251 0012 0549     		ldr	r1, .L100+8
 1252 0014 1A68     		ldr	r2, [r3]
 1253 0016 0C40     		and	r4, r1
 1254              	.LVL98:
 1255 0018 1443     		orr	r4, r2
 1256 001a 1C60     		str	r4, [r3]
1054:.\Generated_Source\PSoC4/CyLib.c ****     }
 1257              		.loc 1 1054 0
 1258              		@ sp needed for prologue
 1259 001c 10BD     		pop	{r4, pc}
 1260              	.L101:
 1261 001e C046     		.align	2
 1262              	.L100:
 1263 0020 04010B40 		.word	1074462980
 1264 0024 10020B40 		.word	1074463248
 1265 0028 08080800 		.word	526344
 1266              		.cfi_endproc
 1267              	.LFE25:
 1268              		.size	CySysWdtResetCounters, .-CySysWdtResetCounters
 1269              		.section	.text.CySysLvdEnable,"ax",%progbits
 1270              		.align	1
 1271              		.global	CySysLvdEnable
 1272              		.code	16
 1273              		.thumb_func
 1274              		.type	CySysLvdEnable, %function
 1275              	CySysLvdEnable:
 1276              	.LFB26:
1427:.\Generated_Source\PSoC4/CyLib.c ****     {
 1277              		.loc 1 1427 0
 1278              		.cfi_startproc
 1279              	.LVL99:
1429:.\Generated_Source\PSoC4/CyLib.c ****         CY_LVD_PWR_VMON_CONFIG_REG = (CY_LVD_PWR_VMON_CONFIG_REG & ~CY_LVD_PWR_VMON_CONFIG_LVD_SEL_
 1280              		.loc 1 1429 0
 1281 0000 084B     		ldr	r3, .L103
1430:.\Generated_Source\PSoC4/CyLib.c ****                 ((threshold << CY_LVD_PWR_VMON_CONFIG_LVD_SEL_SHIFT) & CY_LVD_PWR_VMON_CONFIG_LVD_S
 1282              		.loc 1 1430 0
 1283 0002 1E22     		mov	r2, #30
1429:.\Generated_Source\PSoC4/CyLib.c ****         CY_LVD_PWR_VMON_CONFIG_REG = (CY_LVD_PWR_VMON_CONFIG_REG & ~CY_LVD_PWR_VMON_CONFIG_LVD_SEL_
 1284              		.loc 1 1429 0
 1285 0004 1968     		ldr	r1, [r3]
1430:.\Generated_Source\PSoC4/CyLib.c ****                 ((threshold << CY_LVD_PWR_VMON_CONFIG_LVD_SEL_SHIFT) & CY_LVD_PWR_VMON_CONFIG_LVD_S
 1286              		.loc 1 1430 0
 1287 0006 4000     		lsl	r0, r0, #1
 1288              	.LVL100:
1429:.\Generated_Source\PSoC4/CyLib.c ****         CY_LVD_PWR_VMON_CONFIG_REG = (CY_LVD_PWR_VMON_CONFIG_REG & ~CY_LVD_PWR_VMON_CONFIG_LVD_SEL_
 1289              		.loc 1 1429 0
 1290 0008 9143     		bic	r1, r2
1430:.\Generated_Source\PSoC4/CyLib.c ****                 ((threshold << CY_LVD_PWR_VMON_CONFIG_LVD_SEL_SHIFT) & CY_LVD_PWR_VMON_CONFIG_LVD_S
 1291              		.loc 1 1430 0
 1292 000a 1040     		and	r0, r2
1429:.\Generated_Source\PSoC4/CyLib.c ****         CY_LVD_PWR_VMON_CONFIG_REG = (CY_LVD_PWR_VMON_CONFIG_REG & ~CY_LVD_PWR_VMON_CONFIG_LVD_SEL_
 1293              		.loc 1 1429 0
ARM GAS  C:\Users\vrnk\AppData\Local\Temp\cchVr3qk.s 			page 59


 1294 000c 0843     		orr	r0, r1
 1295 000e 1860     		str	r0, [r3]
1432:.\Generated_Source\PSoC4/CyLib.c ****         CY_LVD_PWR_VMON_CONFIG_REG |= CY_LVD_PWR_VMON_CONFIG_LVD_EN;
 1296              		.loc 1 1432 0
 1297 0010 1868     		ldr	r0, [r3]
 1298 0012 0122     		mov	r2, #1
 1299 0014 1043     		orr	r0, r2
 1300 0016 1860     		str	r0, [r3]
1433:.\Generated_Source\PSoC4/CyLib.c ****         CY_LVD_PWR_INTR_MASK_REG   |= CY_LVD_PROPAGATE_INT_TO_CPU;
 1301              		.loc 1 1433 0
 1302 0018 034B     		ldr	r3, .L103+4
 1303 001a 0221     		mov	r1, #2
 1304 001c 1868     		ldr	r0, [r3]
1434:.\Generated_Source\PSoC4/CyLib.c ****     }
 1305              		.loc 1 1434 0
 1306              		@ sp needed for prologue
1433:.\Generated_Source\PSoC4/CyLib.c ****         CY_LVD_PWR_INTR_MASK_REG   |= CY_LVD_PROPAGATE_INT_TO_CPU;
 1307              		.loc 1 1433 0
 1308 001e 0843     		orr	r0, r1
 1309 0020 1860     		str	r0, [r3]
1434:.\Generated_Source\PSoC4/CyLib.c ****     }
 1310              		.loc 1 1434 0
 1311 0022 7047     		bx	lr
 1312              	.L104:
 1313              		.align	2
 1314              	.L103:
 1315 0024 18000B40 		.word	1074462744
 1316 0028 08000B40 		.word	1074462728
 1317              		.cfi_endproc
 1318              	.LFE26:
 1319              		.size	CySysLvdEnable, .-CySysLvdEnable
 1320              		.section	.text.CySysLvdDisable,"ax",%progbits
 1321              		.align	1
 1322              		.global	CySysLvdDisable
 1323              		.code	16
 1324              		.thumb_func
 1325              		.type	CySysLvdDisable, %function
 1326              	CySysLvdDisable:
 1327              	.LFB27:
1452:.\Generated_Source\PSoC4/CyLib.c ****     {
 1328              		.loc 1 1452 0
 1329              		.cfi_startproc
1453:.\Generated_Source\PSoC4/CyLib.c ****         CY_LVD_PWR_INTR_MASK_REG   &= ~CY_LVD_PROPAGATE_INT_TO_CPU;
 1330              		.loc 1 1453 0
 1331 0000 054B     		ldr	r3, .L106
 1332 0002 0221     		mov	r1, #2
 1333 0004 1A68     		ldr	r2, [r3]
1454:.\Generated_Source\PSoC4/CyLib.c ****         CY_LVD_PWR_VMON_CONFIG_REG &= ~CY_LVD_PWR_VMON_CONFIG_LVD_EN;
 1334              		.loc 1 1454 0
 1335 0006 0548     		ldr	r0, .L106+4
1453:.\Generated_Source\PSoC4/CyLib.c ****         CY_LVD_PWR_INTR_MASK_REG   &= ~CY_LVD_PROPAGATE_INT_TO_CPU;
 1336              		.loc 1 1453 0
 1337 0008 8A43     		bic	r2, r1
 1338 000a 1A60     		str	r2, [r3]
1454:.\Generated_Source\PSoC4/CyLib.c ****         CY_LVD_PWR_VMON_CONFIG_REG &= ~CY_LVD_PWR_VMON_CONFIG_LVD_EN;
 1339              		.loc 1 1454 0
 1340 000c 0368     		ldr	r3, [r0]
ARM GAS  C:\Users\vrnk\AppData\Local\Temp\cchVr3qk.s 			page 60


 1341 000e 0122     		mov	r2, #1
 1342 0010 9343     		bic	r3, r2
 1343 0012 0360     		str	r3, [r0]
1455:.\Generated_Source\PSoC4/CyLib.c ****     }
 1344              		.loc 1 1455 0
 1345              		@ sp needed for prologue
 1346 0014 7047     		bx	lr
 1347              	.L107:
 1348 0016 C046     		.align	2
 1349              	.L106:
 1350 0018 08000B40 		.word	1074462728
 1351 001c 18000B40 		.word	1074462744
 1352              		.cfi_endproc
 1353              	.LFE27:
 1354              		.size	CySysLvdDisable, .-CySysLvdDisable
 1355              		.section	.text.CySysLvdGetInterruptSource,"ax",%progbits
 1356              		.align	1
 1357              		.global	CySysLvdGetInterruptSource
 1358              		.code	16
 1359              		.thumb_func
 1360              		.type	CySysLvdGetInterruptSource, %function
 1361              	CySysLvdGetInterruptSource:
 1362              	.LFB28:
1474:.\Generated_Source\PSoC4/CyLib.c ****     {
 1363              		.loc 1 1474 0
 1364              		.cfi_startproc
1475:.\Generated_Source\PSoC4/CyLib.c ****         return (CY_LVD_PWR_INTR_REG & CY_SYS_LVD_INT);
 1365              		.loc 1 1475 0
 1366 0000 024B     		ldr	r3, .L109
 1367 0002 0221     		mov	r1, #2
 1368 0004 1868     		ldr	r0, [r3]
1476:.\Generated_Source\PSoC4/CyLib.c ****     }
 1369              		.loc 1 1476 0
 1370              		@ sp needed for prologue
1475:.\Generated_Source\PSoC4/CyLib.c ****         return (CY_LVD_PWR_INTR_REG & CY_SYS_LVD_INT);
 1371              		.loc 1 1475 0
 1372 0006 0840     		and	r0, r1
1476:.\Generated_Source\PSoC4/CyLib.c ****     }
 1373              		.loc 1 1476 0
 1374 0008 7047     		bx	lr
 1375              	.L110:
 1376 000a C046     		.align	2
 1377              	.L109:
 1378 000c 04000B40 		.word	1074462724
 1379              		.cfi_endproc
 1380              	.LFE28:
 1381              		.size	CySysLvdGetInterruptSource, .-CySysLvdGetInterruptSource
 1382              		.section	.text.CySysLvdClearInterrupt,"ax",%progbits
 1383              		.align	1
 1384              		.global	CySysLvdClearInterrupt
 1385              		.code	16
 1386              		.thumb_func
 1387              		.type	CySysLvdClearInterrupt, %function
 1388              	CySysLvdClearInterrupt:
 1389              	.LFB29:
1494:.\Generated_Source\PSoC4/CyLib.c ****     {
 1390              		.loc 1 1494 0
ARM GAS  C:\Users\vrnk\AppData\Local\Temp\cchVr3qk.s 			page 61


 1391              		.cfi_startproc
1495:.\Generated_Source\PSoC4/CyLib.c ****         CY_LVD_PWR_INTR_REG = CY_SYS_LVD_INT;
 1392              		.loc 1 1495 0
 1393 0000 014B     		ldr	r3, .L112
 1394 0002 0222     		mov	r2, #2
 1395 0004 1A60     		str	r2, [r3]
1496:.\Generated_Source\PSoC4/CyLib.c ****     }
 1396              		.loc 1 1496 0
 1397              		@ sp needed for prologue
 1398 0006 7047     		bx	lr
 1399              	.L113:
 1400              		.align	2
 1401              	.L112:
 1402 0008 04000B40 		.word	1074462724
 1403              		.cfi_endproc
 1404              	.LFE29:
 1405              		.size	CySysLvdClearInterrupt, .-CySysLvdClearInterrupt
 1406              		.section	.text.CyDisableInts,"ax",%progbits
 1407              		.align	1
 1408              		.global	CyDisableInts
 1409              		.code	16
 1410              		.thumb_func
 1411              		.type	CyDisableInts, %function
 1412              	CyDisableInts:
 1413              	.LFB30:
1516:.\Generated_Source\PSoC4/CyLib.c **** {
 1414              		.loc 1 1516 0
 1415              		.cfi_startproc
1520:.\Generated_Source\PSoC4/CyLib.c ****     intState = CY_INT_CLEAR_REG;
 1416              		.loc 1 1520 0
 1417 0000 024B     		ldr	r3, .L115
1523:.\Generated_Source\PSoC4/CyLib.c ****     CY_INT_CLEAR_REG = CY_INT_CLEAR_DISABLE_ALL;
 1418              		.loc 1 1523 0
 1419 0002 0122     		mov	r2, #1
 1420 0004 5142     		neg	r1, r2
1520:.\Generated_Source\PSoC4/CyLib.c ****     intState = CY_INT_CLEAR_REG;
 1421              		.loc 1 1520 0
 1422 0006 1868     		ldr	r0, [r3]
 1423              	.LVL101:
1526:.\Generated_Source\PSoC4/CyLib.c **** }
 1424              		.loc 1 1526 0
 1425              		@ sp needed for prologue
1523:.\Generated_Source\PSoC4/CyLib.c ****     CY_INT_CLEAR_REG = CY_INT_CLEAR_DISABLE_ALL;
 1426              		.loc 1 1523 0
 1427 0008 1960     		str	r1, [r3]
1526:.\Generated_Source\PSoC4/CyLib.c **** }
 1428              		.loc 1 1526 0
 1429 000a 7047     		bx	lr
 1430              	.L116:
 1431              		.align	2
 1432              	.L115:
 1433 000c 80E100E0 		.word	-536813184
 1434              		.cfi_endproc
 1435              	.LFE30:
 1436              		.size	CyDisableInts, .-CyDisableInts
 1437              		.section	.text.CyEnableInts,"ax",%progbits
 1438              		.align	1
ARM GAS  C:\Users\vrnk\AppData\Local\Temp\cchVr3qk.s 			page 62


 1439              		.global	CyEnableInts
 1440              		.code	16
 1441              		.thumb_func
 1442              		.type	CyEnableInts, %function
 1443              	CyEnableInts:
 1444              	.LFB31:
1544:.\Generated_Source\PSoC4/CyLib.c **** {
 1445              		.loc 1 1544 0
 1446              		.cfi_startproc
 1447              	.LVL102:
1545:.\Generated_Source\PSoC4/CyLib.c ****     CY_INT_ENABLE_REG = mask;
 1448              		.loc 1 1545 0
 1449 0000 014B     		ldr	r3, .L118
1546:.\Generated_Source\PSoC4/CyLib.c **** }
 1450              		.loc 1 1546 0
 1451              		@ sp needed for prologue
1545:.\Generated_Source\PSoC4/CyLib.c ****     CY_INT_ENABLE_REG = mask;
 1452              		.loc 1 1545 0
 1453 0002 1860     		str	r0, [r3]
1546:.\Generated_Source\PSoC4/CyLib.c **** }
 1454              		.loc 1 1546 0
 1455 0004 7047     		bx	lr
 1456              	.L119:
 1457 0006 C046     		.align	2
 1458              	.L118:
 1459 0008 00E100E0 		.word	-536813312
 1460              		.cfi_endproc
 1461              	.LFE31:
 1462              		.size	CyEnableInts, .-CyEnableInts
 1463              		.section	.text.CyIntSetSysVector,"ax",%progbits
 1464              		.align	1
 1465              		.global	CyIntSetSysVector
 1466              		.code	16
 1467              		.thumb_func
 1468              		.type	CyIntSetSysVector, %function
 1469              	CyIntSetSysVector:
 1470              	.LFB32:
1566:.\Generated_Source\PSoC4/CyLib.c **** {
 1471              		.loc 1 1566 0
 1472              		.cfi_startproc
 1473              	.LVL103:
 1474 0000 00B5     		push	{lr}
 1475              	.LCFI15:
 1476              		.cfi_def_cfa_offset 4
 1477              		.cfi_offset 14, -4
1570:.\Generated_Source\PSoC4/CyLib.c ****     CYASSERT(number < CY_INT_IRQ_BASE);
 1478              		.loc 1 1570 0
 1479 0002 0F28     		cmp	r0, #15
 1480 0004 00D9     		bls	.L121
 1481              	.LVL104:
 1482              	.LBB80:
 1483              	.LBB81:
 1484              		.loc 1 1849 0
 1485              	@ 1849 ".\Generated_Source\PSoC4\CyLib.c" 1
 1486 0006 01BE     		    bkpt    1
 1487              	@ 0 "" 2
 1488              	.LVL105:
ARM GAS  C:\Users\vrnk\AppData\Local\Temp\cchVr3qk.s 			page 63


 1489              		.code	16
 1490              	.L121:
 1491              	.LBE81:
 1492              	.LBE80:
1573:.\Generated_Source\PSoC4/CyLib.c ****     oldIsr = ramVectorTable[number];
 1493              		.loc 1 1573 0
 1494 0008 8022     		mov	r2, #128
 1495 000a 8000     		lsl	r0, r0, #2
 1496              	.LVL106:
 1497 000c 9305     		lsl	r3, r2, #22
 1498 000e C218     		add	r2, r0, r3
 1499 0010 1068     		ldr	r0, [r2]
 1500              	.LVL107:
1579:.\Generated_Source\PSoC4/CyLib.c **** }
 1501              		.loc 1 1579 0
 1502              		@ sp needed for prologue
1576:.\Generated_Source\PSoC4/CyLib.c ****     ramVectorTable[number] = address;
 1503              		.loc 1 1576 0
 1504 0012 1160     		str	r1, [r2]
1579:.\Generated_Source\PSoC4/CyLib.c **** }
 1505              		.loc 1 1579 0
 1506 0014 00BD     		pop	{pc}
 1507              		.cfi_endproc
 1508              	.LFE32:
 1509              		.size	CyIntSetSysVector, .-CyIntSetSysVector
 1510              		.section	.text.CyIntGetSysVector,"ax",%progbits
 1511              		.align	1
 1512              		.global	CyIntGetSysVector
 1513              		.code	16
 1514              		.thumb_func
 1515              		.type	CyIntGetSysVector, %function
 1516              	CyIntGetSysVector:
 1517              	.LFB33:
1598:.\Generated_Source\PSoC4/CyLib.c **** {
 1518              		.loc 1 1598 0
 1519              		.cfi_startproc
 1520              	.LVL108:
 1521 0000 00B5     		push	{lr}
 1522              	.LCFI16:
 1523              		.cfi_def_cfa_offset 4
 1524              		.cfi_offset 14, -4
1601:.\Generated_Source\PSoC4/CyLib.c ****     CYASSERT(number < CY_INT_IRQ_BASE);
 1525              		.loc 1 1601 0
 1526 0002 0F28     		cmp	r0, #15
 1527 0004 00D9     		bls	.L123
 1528              	.LVL109:
 1529              	.LBB82:
 1530              	.LBB83:
 1531              		.loc 1 1849 0
 1532              	@ 1849 ".\Generated_Source\PSoC4\CyLib.c" 1
 1533 0006 01BE     		    bkpt    1
 1534              	@ 0 "" 2
 1535              	.LVL110:
 1536              		.code	16
 1537              	.L123:
 1538              	.LBE83:
 1539              	.LBE82:
ARM GAS  C:\Users\vrnk\AppData\Local\Temp\cchVr3qk.s 			page 64


1603:.\Generated_Source\PSoC4/CyLib.c ****     return(ramVectorTable[number]);
 1540              		.loc 1 1603 0
 1541 0008 8023     		mov	r3, #128
 1542 000a 8000     		lsl	r0, r0, #2
 1543              	.LVL111:
 1544 000c 9905     		lsl	r1, r3, #22
 1545 000e 4218     		add	r2, r0, r1
 1546 0010 1068     		ldr	r0, [r2]
1604:.\Generated_Source\PSoC4/CyLib.c **** }
 1547              		.loc 1 1604 0
 1548              		@ sp needed for prologue
 1549 0012 00BD     		pop	{pc}
 1550              		.cfi_endproc
 1551              	.LFE33:
 1552              		.size	CyIntGetSysVector, .-CyIntGetSysVector
 1553              		.section	.text.CyIntSetVector,"ax",%progbits
 1554              		.align	1
 1555              		.global	CyIntSetVector
 1556              		.code	16
 1557              		.thumb_func
 1558              		.type	CyIntSetVector, %function
 1559              	CyIntSetVector:
 1560              	.LFB34:
1623:.\Generated_Source\PSoC4/CyLib.c **** {
 1561              		.loc 1 1623 0
 1562              		.cfi_startproc
 1563              	.LVL112:
 1564 0000 00B5     		push	{lr}
 1565              	.LCFI17:
 1566              		.cfi_def_cfa_offset 4
 1567              		.cfi_offset 14, -4
1627:.\Generated_Source\PSoC4/CyLib.c ****     CYASSERT(number < CY_NUM_INTERRUPTS);
 1568              		.loc 1 1627 0
 1569 0002 1F28     		cmp	r0, #31
 1570 0004 00D9     		bls	.L125
 1571              	.LVL113:
 1572              	.LBB84:
 1573              	.LBB85:
 1574              		.loc 1 1849 0
 1575              	@ 1849 ".\Generated_Source\PSoC4\CyLib.c" 1
 1576 0006 01BE     		    bkpt    1
 1577              	@ 0 "" 2
 1578              	.LVL114:
 1579              		.code	16
 1580              	.L125:
 1581              	.LBE85:
 1582              	.LBE84:
1630:.\Generated_Source\PSoC4/CyLib.c ****     oldIsr = ramVectorTable[CY_INT_IRQ_BASE + number];
 1583              		.loc 1 1630 0
 1584 0008 024A     		ldr	r2, .L126
 1585 000a 8000     		lsl	r0, r0, #2
 1586              	.LVL115:
 1587 000c 8318     		add	r3, r0, r2
 1588 000e 1868     		ldr	r0, [r3]
 1589              	.LVL116:
1636:.\Generated_Source\PSoC4/CyLib.c **** }
 1590              		.loc 1 1636 0
ARM GAS  C:\Users\vrnk\AppData\Local\Temp\cchVr3qk.s 			page 65


 1591              		@ sp needed for prologue
1633:.\Generated_Source\PSoC4/CyLib.c ****     ramVectorTable[CY_INT_IRQ_BASE + number] = address;
 1592              		.loc 1 1633 0
 1593 0010 1960     		str	r1, [r3]
1636:.\Generated_Source\PSoC4/CyLib.c **** }
 1594              		.loc 1 1636 0
 1595 0012 00BD     		pop	{pc}
 1596              	.L127:
 1597              		.align	2
 1598              	.L126:
 1599 0014 40000020 		.word	536870976
 1600              		.cfi_endproc
 1601              	.LFE34:
 1602              		.size	CyIntSetVector, .-CyIntSetVector
 1603              		.section	.text.CyIntGetVector,"ax",%progbits
 1604              		.align	1
 1605              		.global	CyIntGetVector
 1606              		.code	16
 1607              		.thumb_func
 1608              		.type	CyIntGetVector, %function
 1609              	CyIntGetVector:
 1610              	.LFB35:
1654:.\Generated_Source\PSoC4/CyLib.c **** {
 1611              		.loc 1 1654 0
 1612              		.cfi_startproc
 1613              	.LVL117:
 1614 0000 00B5     		push	{lr}
 1615              	.LCFI18:
 1616              		.cfi_def_cfa_offset 4
 1617              		.cfi_offset 14, -4
1657:.\Generated_Source\PSoC4/CyLib.c ****     CYASSERT(number < CY_NUM_INTERRUPTS);
 1618              		.loc 1 1657 0
 1619 0002 1F28     		cmp	r0, #31
 1620 0004 00D9     		bls	.L129
 1621              	.LVL118:
 1622              	.LBB86:
 1623              	.LBB87:
 1624              		.loc 1 1849 0
 1625              	@ 1849 ".\Generated_Source\PSoC4\CyLib.c" 1
 1626 0006 01BE     		    bkpt    1
 1627              	@ 0 "" 2
 1628              	.LVL119:
 1629              		.code	16
 1630              	.L129:
 1631              	.LBE87:
 1632              	.LBE86:
1659:.\Generated_Source\PSoC4/CyLib.c ****     return (ramVectorTable[CY_INT_IRQ_BASE + number]);
 1633              		.loc 1 1659 0
 1634 0008 024B     		ldr	r3, .L130
 1635 000a 8000     		lsl	r0, r0, #2
 1636              	.LVL120:
 1637 000c C118     		add	r1, r0, r3
 1638 000e 0868     		ldr	r0, [r1]
1660:.\Generated_Source\PSoC4/CyLib.c **** }
 1639              		.loc 1 1660 0
 1640              		@ sp needed for prologue
 1641 0010 00BD     		pop	{pc}
ARM GAS  C:\Users\vrnk\AppData\Local\Temp\cchVr3qk.s 			page 66


 1642              	.L131:
 1643 0012 C046     		.align	2
 1644              	.L130:
 1645 0014 40000020 		.word	536870976
 1646              		.cfi_endproc
 1647              	.LFE35:
 1648              		.size	CyIntGetVector, .-CyIntGetVector
 1649              		.section	.text.CyIntSetPriority,"ax",%progbits
 1650              		.align	1
 1651              		.global	CyIntSetPriority
 1652              		.code	16
 1653              		.thumb_func
 1654              		.type	CyIntSetPriority, %function
 1655              	CyIntSetPriority:
 1656              	.LFB36:
1678:.\Generated_Source\PSoC4/CyLib.c **** {
 1657              		.loc 1 1678 0
 1658              		.cfi_startproc
 1659              	.LVL121:
 1660 0000 38B5     		push	{r3, r4, r5, lr}
 1661              	.LCFI19:
 1662              		.cfi_def_cfa_offset 16
 1663              		.cfi_offset 3, -16
 1664              		.cfi_offset 4, -12
 1665              		.cfi_offset 5, -8
 1666              		.cfi_offset 14, -4
1678:.\Generated_Source\PSoC4/CyLib.c **** {
 1667              		.loc 1 1678 0
 1668 0002 041C     		mov	r4, r0
 1669 0004 0D1E     		sub	r5, r1, #0
1683:.\Generated_Source\PSoC4/CyLib.c ****     CYASSERT(priority <= CY_MIN_PRIORITY);
 1670              		.loc 1 1683 0
 1671 0006 032D     		cmp	r5, #3
 1672 0008 00D9     		bls	.L133
 1673              	.LVL122:
 1674              	.LBB88:
 1675              	.LBB89:
 1676              		.loc 1 1849 0
 1677              	@ 1849 ".\Generated_Source\PSoC4\CyLib.c" 1
 1678 000a 01BE     		    bkpt    1
 1679              	@ 0 "" 2
 1680              	.LVL123:
 1681              		.code	16
 1682              	.L133:
 1683              	.LBE89:
 1684              	.LBE88:
1684:.\Generated_Source\PSoC4/CyLib.c ****     CYASSERT(number < CY_NUM_INTERRUPTS);
 1685              		.loc 1 1684 0
 1686 000c 1F2C     		cmp	r4, #31
 1687 000e 00D9     		bls	.L134
 1688              	.LVL124:
 1689              	.LBB90:
 1690              	.LBB91:
 1691              		.loc 1 1849 0
 1692              	@ 1849 ".\Generated_Source\PSoC4\CyLib.c" 1
 1693 0010 01BE     		    bkpt    1
 1694              	@ 0 "" 2
ARM GAS  C:\Users\vrnk\AppData\Local\Temp\cchVr3qk.s 			page 67


 1695              	.LVL125:
 1696              		.code	16
 1697              	.L134:
 1698              	.LBE91:
 1699              	.LBE90:
1688:.\Generated_Source\PSoC4/CyLib.c ****     interruptState = CyEnterCriticalSection();
 1700              		.loc 1 1688 0
 1701 0012 FFF7FEFF 		bl	CyEnterCriticalSection
 1702              	.LVL126:
1690:.\Generated_Source\PSoC4/CyLib.c ****     value = CY_INT_PRIORITY_REG(number);
 1703              		.loc 1 1690 0
 1704 0016 A308     		lsr	r3, r4, #2
 1705 0018 084A     		ldr	r2, .L135
 1706 001a 9900     		lsl	r1, r3, #2
 1707 001c 8B18     		add	r3, r1, r2
1686:.\Generated_Source\PSoC4/CyLib.c ****     shift = CY_INT_PRIORITY_SHIFT(number);
 1708              		.loc 1 1686 0
 1709 001e 0322     		mov	r2, #3
 1710 0020 1440     		and	r4, r2
 1711              	.LVL127:
 1712 0022 9440     		lsl	r4, r4, r2
1690:.\Generated_Source\PSoC4/CyLib.c ****     value = CY_INT_PRIORITY_REG(number);
 1713              		.loc 1 1690 0
 1714 0024 1968     		ldr	r1, [r3]
 1715              	.LVL128:
1686:.\Generated_Source\PSoC4/CyLib.c ****     shift = CY_INT_PRIORITY_SHIFT(number);
 1716              		.loc 1 1686 0
 1717 0026 0634     		add	r4, r4, #6
1691:.\Generated_Source\PSoC4/CyLib.c ****     value &= (uint32)(~((uint32)(CY_INT_PRIORITY_MASK << shift)));
 1718              		.loc 1 1691 0
 1719 0028 A240     		lsl	r2, r2, r4
 1720 002a 9143     		bic	r1, r2
 1721              	.LVL129:
1692:.\Generated_Source\PSoC4/CyLib.c ****     value |= ((uint32)priority << shift);
 1722              		.loc 1 1692 0
 1723 002c A540     		lsl	r5, r5, r4
 1724 002e 0C1C     		mov	r4, r1
 1725 0030 2C43     		orr	r4, r5
 1726              	.LVL130:
1693:.\Generated_Source\PSoC4/CyLib.c ****     CY_INT_PRIORITY_REG(number) = value;
 1727              		.loc 1 1693 0
 1728 0032 1C60     		str	r4, [r3]
1695:.\Generated_Source\PSoC4/CyLib.c ****     CyExitCriticalSection(interruptState);
 1729              		.loc 1 1695 0
 1730 0034 FFF7FEFF 		bl	CyExitCriticalSection
 1731              	.LVL131:
1696:.\Generated_Source\PSoC4/CyLib.c **** }
 1732              		.loc 1 1696 0
 1733              		@ sp needed for prologue
 1734              	.LVL132:
 1735 0038 38BD     		pop	{r3, r4, r5, pc}
 1736              	.L136:
 1737 003a C046     		.align	2
 1738              	.L135:
 1739 003c 00E400E0 		.word	-536812544
 1740              		.cfi_endproc
 1741              	.LFE36:
ARM GAS  C:\Users\vrnk\AppData\Local\Temp\cchVr3qk.s 			page 68


 1742              		.size	CyIntSetPriority, .-CyIntSetPriority
 1743              		.section	.text.CyIntGetPriority,"ax",%progbits
 1744              		.align	1
 1745              		.global	CyIntGetPriority
 1746              		.code	16
 1747              		.thumb_func
 1748              		.type	CyIntGetPriority, %function
 1749              	CyIntGetPriority:
 1750              	.LFB37:
1714:.\Generated_Source\PSoC4/CyLib.c **** {
 1751              		.loc 1 1714 0
 1752              		.cfi_startproc
 1753              	.LVL133:
 1754 0000 00B5     		push	{lr}
 1755              	.LCFI20:
 1756              		.cfi_def_cfa_offset 4
 1757              		.cfi_offset 14, -4
1717:.\Generated_Source\PSoC4/CyLib.c ****     CYASSERT(number < CY_NUM_INTERRUPTS);
 1758              		.loc 1 1717 0
 1759 0002 1F28     		cmp	r0, #31
 1760 0004 00D9     		bls	.L138
 1761              	.LVL134:
 1762              	.LBB92:
 1763              	.LBB93:
 1764              		.loc 1 1849 0
 1765              	@ 1849 ".\Generated_Source\PSoC4\CyLib.c" 1
 1766 0006 01BE     		    bkpt    1
 1767              	@ 0 "" 2
 1768              	.LVL135:
 1769              		.code	16
 1770              	.L138:
 1771              	.LBE93:
 1772              	.LBE92:
1719:.\Generated_Source\PSoC4/CyLib.c ****     priority = (uint8) (CY_INT_PRIORITY_REG(number) >> CY_INT_PRIORITY_SHIFT(number));
 1773              		.loc 1 1719 0
 1774 0008 8308     		lsr	r3, r0, #2
 1775 000a 064A     		ldr	r2, .L139
 1776 000c 9900     		lsl	r1, r3, #2
 1777 000e 8B18     		add	r3, r1, r2
 1778 0010 0322     		mov	r2, #3
 1779 0012 1040     		and	r0, r2
 1780              	.LVL136:
 1781 0014 1968     		ldr	r1, [r3]
 1782 0016 9040     		lsl	r0, r0, r2
 1783 0018 0630     		add	r0, r0, #6
 1784 001a C140     		lsr	r1, r1, r0
 1785 001c 081C     		mov	r0, r1
1721:.\Generated_Source\PSoC4/CyLib.c ****     return (priority & (uint8) CY_INT_PRIORITY_MASK);
 1786              		.loc 1 1721 0
 1787 001e 1040     		and	r0, r2
1722:.\Generated_Source\PSoC4/CyLib.c **** }
 1788              		.loc 1 1722 0
 1789              		@ sp needed for prologue
 1790 0020 00BD     		pop	{pc}
 1791              	.L140:
 1792 0022 C046     		.align	2
 1793              	.L139:
ARM GAS  C:\Users\vrnk\AppData\Local\Temp\cchVr3qk.s 			page 69


 1794 0024 00E400E0 		.word	-536812544
 1795              		.cfi_endproc
 1796              	.LFE37:
 1797              		.size	CyIntGetPriority, .-CyIntGetPriority
 1798              		.section	.text.CyIntEnable,"ax",%progbits
 1799              		.align	1
 1800              		.global	CyIntEnable
 1801              		.code	16
 1802              		.thumb_func
 1803              		.type	CyIntEnable, %function
 1804              	CyIntEnable:
 1805              	.LFB38:
1740:.\Generated_Source\PSoC4/CyLib.c **** {
 1806              		.loc 1 1740 0
 1807              		.cfi_startproc
 1808              	.LVL137:
1741:.\Generated_Source\PSoC4/CyLib.c ****     CY_INT_ENABLE_REG = ((uint32) 0x01u << (CY_INT_ENABLE_RANGE_MASK & number));
 1809              		.loc 1 1741 0
 1810 0000 1F23     		mov	r3, #31
 1811 0002 1840     		and	r0, r3
 1812              	.LVL138:
 1813 0004 024A     		ldr	r2, .L142
 1814 0006 0121     		mov	r1, #1
 1815 0008 8140     		lsl	r1, r1, r0
 1816 000a 1160     		str	r1, [r2]
1742:.\Generated_Source\PSoC4/CyLib.c **** }
 1817              		.loc 1 1742 0
 1818              		@ sp needed for prologue
 1819 000c 7047     		bx	lr
 1820              	.L143:
 1821 000e C046     		.align	2
 1822              	.L142:
 1823 0010 00E100E0 		.word	-536813312
 1824              		.cfi_endproc
 1825              	.LFE38:
 1826              		.size	CyIntEnable, .-CyIntEnable
 1827              		.section	.text.CyIntGetState,"ax",%progbits
 1828              		.align	1
 1829              		.global	CyIntGetState
 1830              		.code	16
 1831              		.thumb_func
 1832              		.type	CyIntGetState, %function
 1833              	CyIntGetState:
 1834              	.LFB39:
1760:.\Generated_Source\PSoC4/CyLib.c **** {
 1835              		.loc 1 1760 0
 1836              		.cfi_startproc
 1837              	.LVL139:
1762:.\Generated_Source\PSoC4/CyLib.c ****     return ((0u != (CY_INT_ENABLE_REG & ((uint32) 0x01u << (CY_INT_ENABLE_RANGE_MASK & number)))) ?
 1838              		.loc 1 1762 0
 1839 0000 044B     		ldr	r3, .L145
 1840 0002 1F22     		mov	r2, #31
 1841 0004 1968     		ldr	r1, [r3]
 1842 0006 1040     		and	r0, r2
 1843              	.LVL140:
 1844 0008 C140     		lsr	r1, r1, r0
 1845 000a 081C     		mov	r0, r1
ARM GAS  C:\Users\vrnk\AppData\Local\Temp\cchVr3qk.s 			page 70


 1846 000c 0123     		mov	r3, #1
 1847 000e 1840     		and	r0, r3
1763:.\Generated_Source\PSoC4/CyLib.c **** }
 1848              		.loc 1 1763 0
 1849              		@ sp needed for prologue
 1850 0010 7047     		bx	lr
 1851              	.L146:
 1852 0012 C046     		.align	2
 1853              	.L145:
 1854 0014 00E100E0 		.word	-536813312
 1855              		.cfi_endproc
 1856              	.LFE39:
 1857              		.size	CyIntGetState, .-CyIntGetState
 1858              		.section	.text.CyIntDisable,"ax",%progbits
 1859              		.align	1
 1860              		.global	CyIntDisable
 1861              		.code	16
 1862              		.thumb_func
 1863              		.type	CyIntDisable, %function
 1864              	CyIntDisable:
 1865              	.LFB40:
1781:.\Generated_Source\PSoC4/CyLib.c **** {
 1866              		.loc 1 1781 0
 1867              		.cfi_startproc
 1868              	.LVL141:
1782:.\Generated_Source\PSoC4/CyLib.c ****     CY_INT_CLEAR_REG = ((uint32) 0x01u << (CY_INT_ENABLE_RANGE_MASK & number));
 1869              		.loc 1 1782 0
 1870 0000 1F23     		mov	r3, #31
 1871 0002 1840     		and	r0, r3
 1872              	.LVL142:
 1873 0004 024A     		ldr	r2, .L148
 1874 0006 0121     		mov	r1, #1
 1875 0008 8140     		lsl	r1, r1, r0
 1876 000a 1160     		str	r1, [r2]
1783:.\Generated_Source\PSoC4/CyLib.c **** }
 1877              		.loc 1 1783 0
 1878              		@ sp needed for prologue
 1879 000c 7047     		bx	lr
 1880              	.L149:
 1881 000e C046     		.align	2
 1882              	.L148:
 1883 0010 80E100E0 		.word	-536813184
 1884              		.cfi_endproc
 1885              	.LFE40:
 1886              		.size	CyIntDisable, .-CyIntDisable
 1887              		.section	.text.CyIntSetPending,"ax",%progbits
 1888              		.align	1
 1889              		.global	CyIntSetPending
 1890              		.code	16
 1891              		.thumb_func
 1892              		.type	CyIntSetPending, %function
 1893              	CyIntSetPending:
 1894              	.LFB41:
1800:.\Generated_Source\PSoC4/CyLib.c **** {
 1895              		.loc 1 1800 0
 1896              		.cfi_startproc
 1897              	.LVL143:
ARM GAS  C:\Users\vrnk\AppData\Local\Temp\cchVr3qk.s 			page 71


1801:.\Generated_Source\PSoC4/CyLib.c ****     CY_INT_SET_PEND_REG = ((uint32) 0x01u << (CY_INT_ENABLE_RANGE_MASK & number));
 1898              		.loc 1 1801 0
 1899 0000 1F23     		mov	r3, #31
 1900 0002 1840     		and	r0, r3
 1901              	.LVL144:
 1902 0004 024A     		ldr	r2, .L151
 1903 0006 0121     		mov	r1, #1
 1904 0008 8140     		lsl	r1, r1, r0
 1905 000a 1160     		str	r1, [r2]
1802:.\Generated_Source\PSoC4/CyLib.c **** }
 1906              		.loc 1 1802 0
 1907              		@ sp needed for prologue
 1908 000c 7047     		bx	lr
 1909              	.L152:
 1910 000e C046     		.align	2
 1911              	.L151:
 1912 0010 00E200E0 		.word	-536813056
 1913              		.cfi_endproc
 1914              	.LFE41:
 1915              		.size	CyIntSetPending, .-CyIntSetPending
 1916              		.section	.text.CyIntClearPending,"ax",%progbits
 1917              		.align	1
 1918              		.global	CyIntClearPending
 1919              		.code	16
 1920              		.thumb_func
 1921              		.type	CyIntClearPending, %function
 1922              	CyIntClearPending:
 1923              	.LFB42:
1820:.\Generated_Source\PSoC4/CyLib.c **** {
 1924              		.loc 1 1820 0
 1925              		.cfi_startproc
 1926              	.LVL145:
1821:.\Generated_Source\PSoC4/CyLib.c ****     CY_INT_CLR_PEND_REG = ((uint32) 0x01u << (CY_INT_ENABLE_RANGE_MASK & number));
 1927              		.loc 1 1821 0
 1928 0000 1F23     		mov	r3, #31
 1929 0002 1840     		and	r0, r3
 1930              	.LVL146:
 1931 0004 024A     		ldr	r2, .L154
 1932 0006 0121     		mov	r1, #1
 1933 0008 8140     		lsl	r1, r1, r0
 1934 000a 1160     		str	r1, [r2]
1822:.\Generated_Source\PSoC4/CyLib.c **** }
 1935              		.loc 1 1822 0
 1936              		@ sp needed for prologue
 1937 000c 7047     		bx	lr
 1938              	.L155:
 1939 000e C046     		.align	2
 1940              	.L154:
 1941 0010 80E200E0 		.word	-536812928
 1942              		.cfi_endproc
 1943              	.LFE42:
 1944              		.size	CyIntClearPending, .-CyIntClearPending
 1945              		.section	.text.CyHalt,"ax",%progbits
 1946              		.align	1
 1947              		.global	CyHalt
 1948              		.code	16
 1949              		.thumb_func
ARM GAS  C:\Users\vrnk\AppData\Local\Temp\cchVr3qk.s 			page 72


 1950              		.type	CyHalt, %function
 1951              	CyHalt:
 1952              	.LFB43:
1840:.\Generated_Source\PSoC4/CyLib.c **** {
 1953              		.loc 1 1840 0
 1954              		.cfi_startproc
 1955              	.LVL147:
 1956              		.loc 1 1849 0
 1957              	@ 1849 ".\Generated_Source\PSoC4\CyLib.c" 1
 1958 0000 01BE     		    bkpt    1
 1959              	@ 0 "" 2
1850:.\Generated_Source\PSoC4/CyLib.c ****     #elif defined(__C51__)
1851:.\Generated_Source\PSoC4/CyLib.c ****         CYDEV_HALT_CPU;
1852:.\Generated_Source\PSoC4/CyLib.c ****     #endif  /* (__ARMCC_VERSION) */
1853:.\Generated_Source\PSoC4/CyLib.c **** }
 1960              		.loc 1 1853 0
 1961              		.code	16
 1962              		@ sp needed for prologue
 1963 0002 7047     		bx	lr
 1964              		.cfi_endproc
 1965              	.LFE43:
 1966              		.size	CyHalt, .-CyHalt
 1967              		.section	.text.CySoftwareReset,"ax",%progbits
 1968              		.align	1
 1969              		.global	CySoftwareReset
 1970              		.code	16
 1971              		.thumb_func
 1972              		.type	CySoftwareReset, %function
 1973              	CySoftwareReset:
 1974              	.LFB44:
1854:.\Generated_Source\PSoC4/CyLib.c **** 
1855:.\Generated_Source\PSoC4/CyLib.c **** 
1856:.\Generated_Source\PSoC4/CyLib.c **** /*******************************************************************************
1857:.\Generated_Source\PSoC4/CyLib.c **** * Function Name: CySoftwareReset
1858:.\Generated_Source\PSoC4/CyLib.c **** ********************************************************************************
1859:.\Generated_Source\PSoC4/CyLib.c **** *
1860:.\Generated_Source\PSoC4/CyLib.c **** * Summary:
1861:.\Generated_Source\PSoC4/CyLib.c **** *  Forces a software reset of the device.
1862:.\Generated_Source\PSoC4/CyLib.c **** *
1863:.\Generated_Source\PSoC4/CyLib.c **** * Parameters:
1864:.\Generated_Source\PSoC4/CyLib.c **** *  None
1865:.\Generated_Source\PSoC4/CyLib.c **** *
1866:.\Generated_Source\PSoC4/CyLib.c **** * Return:
1867:.\Generated_Source\PSoC4/CyLib.c **** *  None
1868:.\Generated_Source\PSoC4/CyLib.c **** *
1869:.\Generated_Source\PSoC4/CyLib.c **** *******************************************************************************/
1870:.\Generated_Source\PSoC4/CyLib.c **** void CySoftwareReset(void)
1871:.\Generated_Source\PSoC4/CyLib.c **** {
 1975              		.loc 1 1871 0
 1976              		.cfi_startproc
1872:.\Generated_Source\PSoC4/CyLib.c ****     /***************************************************************************
1873:.\Generated_Source\PSoC4/CyLib.c ****     * Setting the system reset request bit. The vector key value must be written
1874:.\Generated_Source\PSoC4/CyLib.c ****     * to the register, otherwise the register write is unpredictable.
1875:.\Generated_Source\PSoC4/CyLib.c ****     ***************************************************************************/
1876:.\Generated_Source\PSoC4/CyLib.c ****     CY_SYS_CM0_AIRCR_REG = (CY_SYS_CM0_AIRCR_REG & (uint32)(~CY_SYS_CM0_AIRCR_VECTKEY_MASK)) |
 1977              		.loc 1 1876 0
 1978 0000 034B     		ldr	r3, .L158
ARM GAS  C:\Users\vrnk\AppData\Local\Temp\cchVr3qk.s 			page 73


1877:.\Generated_Source\PSoC4/CyLib.c ****                             CY_SYS_CM0_AIRCR_VECTKEY | CY_SYS_CM0_AIRCR_SYSRESETREQ;
 1979              		.loc 1 1877 0
 1980 0002 0449     		ldr	r1, .L158+4
1876:.\Generated_Source\PSoC4/CyLib.c ****     CY_SYS_CM0_AIRCR_REG = (CY_SYS_CM0_AIRCR_REG & (uint32)(~CY_SYS_CM0_AIRCR_VECTKEY_MASK)) |
 1981              		.loc 1 1876 0
 1982 0004 1A68     		ldr	r2, [r3]
1878:.\Generated_Source\PSoC4/CyLib.c **** }
 1983              		.loc 1 1878 0
 1984              		@ sp needed for prologue
1876:.\Generated_Source\PSoC4/CyLib.c ****     CY_SYS_CM0_AIRCR_REG = (CY_SYS_CM0_AIRCR_REG & (uint32)(~CY_SYS_CM0_AIRCR_VECTKEY_MASK)) |
 1985              		.loc 1 1876 0
 1986 0006 90B2     		uxth	r0, r2
1877:.\Generated_Source\PSoC4/CyLib.c ****                             CY_SYS_CM0_AIRCR_VECTKEY | CY_SYS_CM0_AIRCR_SYSRESETREQ;
 1987              		.loc 1 1877 0
 1988 0008 0843     		orr	r0, r1
1876:.\Generated_Source\PSoC4/CyLib.c ****     CY_SYS_CM0_AIRCR_REG = (CY_SYS_CM0_AIRCR_REG & (uint32)(~CY_SYS_CM0_AIRCR_VECTKEY_MASK)) |
 1989              		.loc 1 1876 0
 1990 000a 1860     		str	r0, [r3]
 1991              		.loc 1 1878 0
 1992 000c 7047     		bx	lr
 1993              	.L159:
 1994 000e C046     		.align	2
 1995              	.L158:
 1996 0010 0CED00E0 		.word	-536810228
 1997 0014 0400FA05 		.word	100270084
 1998              		.cfi_endproc
 1999              	.LFE44:
 2000              		.size	CySoftwareReset, .-CySoftwareReset
 2001              		.section	.text.CyDelay,"ax",%progbits
 2002              		.align	1
 2003              		.global	CyDelay
 2004              		.code	16
 2005              		.thumb_func
 2006              		.type	CyDelay, %function
 2007              	CyDelay:
 2008              	.LFB45:
1879:.\Generated_Source\PSoC4/CyLib.c **** 
1880:.\Generated_Source\PSoC4/CyLib.c **** 
1881:.\Generated_Source\PSoC4/CyLib.c **** /*******************************************************************************
1882:.\Generated_Source\PSoC4/CyLib.c **** * Function Name: CyDelay
1883:.\Generated_Source\PSoC4/CyLib.c **** ********************************************************************************
1884:.\Generated_Source\PSoC4/CyLib.c **** *
1885:.\Generated_Source\PSoC4/CyLib.c **** * Summary:
1886:.\Generated_Source\PSoC4/CyLib.c **** *  Blocks for milliseconds.
1887:.\Generated_Source\PSoC4/CyLib.c **** *
1888:.\Generated_Source\PSoC4/CyLib.c **** * Parameters:
1889:.\Generated_Source\PSoC4/CyLib.c **** *  milliseconds: number of milliseconds to delay.
1890:.\Generated_Source\PSoC4/CyLib.c **** *
1891:.\Generated_Source\PSoC4/CyLib.c **** * Return:
1892:.\Generated_Source\PSoC4/CyLib.c **** *  None
1893:.\Generated_Source\PSoC4/CyLib.c **** *
1894:.\Generated_Source\PSoC4/CyLib.c **** *******************************************************************************/
1895:.\Generated_Source\PSoC4/CyLib.c **** void CyDelay(uint32 milliseconds)
1896:.\Generated_Source\PSoC4/CyLib.c **** {
 2009              		.loc 1 1896 0
 2010              		.cfi_startproc
 2011              	.LVL148:
ARM GAS  C:\Users\vrnk\AppData\Local\Temp\cchVr3qk.s 			page 74


 2012 0000 10B5     		push	{r4, lr}
 2013              	.LCFI21:
 2014              		.cfi_def_cfa_offset 8
 2015              		.cfi_offset 4, -8
 2016              		.cfi_offset 14, -4
 2017 0002 041C     		mov	r4, r0
 2018              	.LVL149:
 2019              	.L161:
1897:.\Generated_Source\PSoC4/CyLib.c ****     while (milliseconds > CY_DELAY_MS_OVERFLOW)
 2020              		.loc 1 1897 0 discriminator 1
 2021 0004 8022     		mov	r2, #128
 2022 0006 074B     		ldr	r3, .L164
 2023 0008 1002     		lsl	r0, r2, #8
 2024 000a 8442     		cmp	r4, r0
 2025 000c 05D9     		bls	.L163
 2026              	.L162:
1898:.\Generated_Source\PSoC4/CyLib.c ****     {
1899:.\Generated_Source\PSoC4/CyLib.c ****         /* This loop prevents overflow.
1900:.\Generated_Source\PSoC4/CyLib.c ****          * At 100MHz, milliseconds * cydelayFreqKhz overflows at about 42 seconds
1901:.\Generated_Source\PSoC4/CyLib.c ****          */
1902:.\Generated_Source\PSoC4/CyLib.c ****         CyDelayCycles(cydelay32kMs);
 2027              		.loc 1 1902 0
 2028 000e 1868     		ldr	r0, [r3]
 2029 0010 FFF7FEFF 		bl	CyDelayCycles
 2030              	.LVL150:
1903:.\Generated_Source\PSoC4/CyLib.c ****         milliseconds -= CY_DELAY_MS_OVERFLOW;
 2031              		.loc 1 1903 0
 2032 0014 0449     		ldr	r1, .L164+4
 2033 0016 6418     		add	r4, r4, r1
 2034              	.LVL151:
 2035 0018 F4E7     		b	.L161
 2036              	.L163:
1904:.\Generated_Source\PSoC4/CyLib.c ****     }
1905:.\Generated_Source\PSoC4/CyLib.c **** 
1906:.\Generated_Source\PSoC4/CyLib.c ****     CyDelayCycles(milliseconds * cydelayFreqKhz);
 2037              		.loc 1 1906 0
 2038 001a 5868     		ldr	r0, [r3, #4]
1907:.\Generated_Source\PSoC4/CyLib.c **** }
 2039              		.loc 1 1907 0
 2040              		@ sp needed for prologue
1906:.\Generated_Source\PSoC4/CyLib.c ****     CyDelayCycles(milliseconds * cydelayFreqKhz);
 2041              		.loc 1 1906 0
 2042 001c 6043     		mul	r0, r4
 2043 001e FFF7FEFF 		bl	CyDelayCycles
 2044              	.LVL152:
 2045              	.LVL153:
 2046              		.loc 1 1907 0
 2047 0022 10BD     		pop	{r4, pc}
 2048              	.L165:
 2049              		.align	2
 2050              	.L164:
 2051 0024 00000000 		.word	.LANCHOR0
 2052 0028 0080FFFF 		.word	-32768
 2053              		.cfi_endproc
 2054              	.LFE45:
 2055              		.size	CyDelay, .-CyDelay
 2056              		.section	.text.CyDelayUs,"ax",%progbits
ARM GAS  C:\Users\vrnk\AppData\Local\Temp\cchVr3qk.s 			page 75


 2057              		.align	1
 2058              		.global	CyDelayUs
 2059              		.code	16
 2060              		.thumb_func
 2061              		.type	CyDelayUs, %function
 2062              	CyDelayUs:
 2063              	.LFB46:
1908:.\Generated_Source\PSoC4/CyLib.c **** 
1909:.\Generated_Source\PSoC4/CyLib.c **** 
1910:.\Generated_Source\PSoC4/CyLib.c **** /*******************************************************************************
1911:.\Generated_Source\PSoC4/CyLib.c **** * Function Name: CyDelayUs
1912:.\Generated_Source\PSoC4/CyLib.c **** ********************************************************************************
1913:.\Generated_Source\PSoC4/CyLib.c **** * Summary:
1914:.\Generated_Source\PSoC4/CyLib.c **** *  Blocks for microseconds.
1915:.\Generated_Source\PSoC4/CyLib.c **** *
1916:.\Generated_Source\PSoC4/CyLib.c **** * Parameters:
1917:.\Generated_Source\PSoC4/CyLib.c **** *  microseconds: number of microseconds to delay.
1918:.\Generated_Source\PSoC4/CyLib.c **** *
1919:.\Generated_Source\PSoC4/CyLib.c **** * Return:
1920:.\Generated_Source\PSoC4/CyLib.c **** *  None
1921:.\Generated_Source\PSoC4/CyLib.c **** *
1922:.\Generated_Source\PSoC4/CyLib.c **** *******************************************************************************/
1923:.\Generated_Source\PSoC4/CyLib.c **** void CyDelayUs(uint16 microseconds)
1924:.\Generated_Source\PSoC4/CyLib.c **** {
 2064              		.loc 1 1924 0
 2065              		.cfi_startproc
 2066              	.LVL154:
 2067 0000 08B5     		push	{r3, lr}
 2068              	.LCFI22:
 2069              		.cfi_def_cfa_offset 8
 2070              		.cfi_offset 3, -8
 2071              		.cfi_offset 14, -4
1925:.\Generated_Source\PSoC4/CyLib.c ****     CyDelayCycles((uint32)microseconds * cydelayFreqMhz);
 2072              		.loc 1 1925 0
 2073 0002 034B     		ldr	r3, .L167
1926:.\Generated_Source\PSoC4/CyLib.c **** }
 2074              		.loc 1 1926 0
 2075              		@ sp needed for prologue
1925:.\Generated_Source\PSoC4/CyLib.c ****     CyDelayCycles((uint32)microseconds * cydelayFreqMhz);
 2076              		.loc 1 1925 0
 2077 0004 197A     		ldrb	r1, [r3, #8]
 2078 0006 4843     		mul	r0, r1
 2079              	.LVL155:
 2080 0008 FFF7FEFF 		bl	CyDelayCycles
 2081              	.LVL156:
 2082              		.loc 1 1926 0
 2083 000c 08BD     		pop	{r3, pc}
 2084              	.L168:
 2085 000e C046     		.align	2
 2086              	.L167:
 2087 0010 00000000 		.word	.LANCHOR0
 2088              		.cfi_endproc
 2089              	.LFE46:
 2090              		.size	CyDelayUs, .-CyDelayUs
 2091              		.section	.text.CySysWdtWriteMatch,"ax",%progbits
 2092              		.align	1
 2093              		.global	CySysWdtWriteMatch
ARM GAS  C:\Users\vrnk\AppData\Local\Temp\cchVr3qk.s 			page 76


 2094              		.code	16
 2095              		.thumb_func
 2096              		.type	CySysWdtWriteMatch, %function
 2097              	CySysWdtWriteMatch:
 2098              	.LFB18:
 766:.\Generated_Source\PSoC4/CyLib.c ****     {
 2099              		.loc 1 766 0
 2100              		.cfi_startproc
 2101              	.LVL157:
 2102 0000 38B5     		push	{r3, r4, r5, lr}
 2103              	.LCFI23:
 2104              		.cfi_def_cfa_offset 16
 2105              		.cfi_offset 3, -16
 2106              		.cfi_offset 4, -12
 2107              		.cfi_offset 5, -8
 2108              		.cfi_offset 14, -4
 766:.\Generated_Source\PSoC4/CyLib.c ****     {
 2109              		.loc 1 766 0
 2110 0002 041C     		mov	r4, r0
 2111 0004 0D1C     		mov	r5, r1
 769:.\Generated_Source\PSoC4/CyLib.c ****         CYASSERT((counterNum == CY_SYS_WDT_COUNTER0) ||
 2112              		.loc 1 769 0
 2113 0006 0128     		cmp	r0, #1
 2114 0008 00D9     		bls	.L170
 2115              	.LVL158:
 2116              	.LBB94:
 2117              	.LBB95:
1849:.\Generated_Source\PSoC4/CyLib.c ****         __asm("    bkpt    1");
 2118              		.loc 1 1849 0
 2119              	@ 1849 ".\Generated_Source\PSoC4\CyLib.c" 1
