ARM GAS  C:\Users\vrnk\AppData\Local\Temp\cchVr3qk.s 			page 1


   1              		.cpu cortex-m0
   2              		.fpu softvfp
   3              		.eabi_attribute 20, 1
   4              		.eabi_attribute 21, 1
   5              		.eabi_attribute 23, 3
   6              		.eabi_attribute 24, 1
   7              		.eabi_attribute 25, 1
   8              		.eabi_attribute 26, 1
   9              		.eabi_attribute 30, 4
  10              		.eabi_attribute 34, 0
  11              		.eabi_attribute 18, 4
  12              		.code	16
  13              		.file	"CyLib.c"
  14              		.text
  15              	.Ltext0:
  16              		.cfi_sections	.debug_frame
  17              		.section	.text.CySysClkImoStart,"ax",%progbits
  18              		.align	1
  19              		.global	CySysClkImoStart
  20              		.code	16
  21              		.thumb_func
  22              		.type	CySysClkImoStart, %function
  23              	CySysClkImoStart:
  24              	.LFB0:
  25              		.file 1 ".\\Generated_Source\\PSoC4\\CyLib.c"
   1:.\Generated_Source\PSoC4/CyLib.c **** /*******************************************************************************
   2:.\Generated_Source\PSoC4/CyLib.c **** * File Name: CyLib.c
   3:.\Generated_Source\PSoC4/CyLib.c **** * Version 4.0
   4:.\Generated_Source\PSoC4/CyLib.c **** *
   5:.\Generated_Source\PSoC4/CyLib.c **** *  Description:
   6:.\Generated_Source\PSoC4/CyLib.c **** *   Provides system API for the clocking, interrupts and watchdog timer.
   7:.\Generated_Source\PSoC4/CyLib.c **** *
   8:.\Generated_Source\PSoC4/CyLib.c **** *  Note:
   9:.\Generated_Source\PSoC4/CyLib.c **** *   Documentation of the API's in this file is located in the
  10:.\Generated_Source\PSoC4/CyLib.c **** *   System Reference Guide provided with PSoC Creator.
  11:.\Generated_Source\PSoC4/CyLib.c **** *
  12:.\Generated_Source\PSoC4/CyLib.c **** ********************************************************************************
  13:.\Generated_Source\PSoC4/CyLib.c **** * Copyright 2010-2013, Cypress Semiconductor Corporation.  All rights reserved.
  14:.\Generated_Source\PSoC4/CyLib.c **** * You may use this file only in accordance with the license, terms, conditions,
  15:.\Generated_Source\PSoC4/CyLib.c **** * disclaimers, and limitations in the end user license agreement accompanying
  16:.\Generated_Source\PSoC4/CyLib.c **** * the software package with which this file was provided.
  17:.\Generated_Source\PSoC4/CyLib.c **** *******************************************************************************/
  18:.\Generated_Source\PSoC4/CyLib.c **** 
  19:.\Generated_Source\PSoC4/CyLib.c **** #include "CyLib.h"
  20:.\Generated_Source\PSoC4/CyLib.c **** 
  21:.\Generated_Source\PSoC4/CyLib.c **** 
  22:.\Generated_Source\PSoC4/CyLib.c **** /* Do not use these definitions directly in your application */
  23:.\Generated_Source\PSoC4/CyLib.c **** uint32 cydelayFreqHz  = CYDEV_BCLK__SYSCLK__HZ;
  24:.\Generated_Source\PSoC4/CyLib.c **** uint32 cydelayFreqKhz = (CYDEV_BCLK__SYSCLK__HZ + CY_DELAY_1K_MINUS_1_THRESHOLD) / CY_DELAY_1K_THRE
  25:.\Generated_Source\PSoC4/CyLib.c **** uint8  cydelayFreqMhz = (uint8)((CYDEV_BCLK__SYSCLK__HZ + CY_DELAY_1M_MINUS_1_THRESHOLD) / CY_DELAY
  26:.\Generated_Source\PSoC4/CyLib.c **** uint32 cydelay32kMs   = CY_DELAY_MS_OVERFLOW * ((CYDEV_BCLK__SYSCLK__HZ + CY_DELAY_1K_MINUS_1_THRES
  27:.\Generated_Source\PSoC4/CyLib.c ****                         CY_DELAY_1K_THRESHOLD);
  28:.\Generated_Source\PSoC4/CyLib.c **** 
  29:.\Generated_Source\PSoC4/CyLib.c **** 
  30:.\Generated_Source\PSoC4/CyLib.c **** /*******************************************************************************
  31:.\Generated_Source\PSoC4/CyLib.c **** * Function Name: CySysClkImoStart
  32:.\Generated_Source\PSoC4/CyLib.c **** ********************************************************************************
ARM GAS  C:\Users\vrnk\AppData\Local\Temp\cchVr3qk.s 			page 2


  33:.\Generated_Source\PSoC4/CyLib.c **** *
  34:.\Generated_Source\PSoC4/CyLib.c **** * Summary:
  35:.\Generated_Source\PSoC4/CyLib.c **** *  Enables the IMO.
  36:.\Generated_Source\PSoC4/CyLib.c **** *
  37:.\Generated_Source\PSoC4/CyLib.c **** * Parameters:
  38:.\Generated_Source\PSoC4/CyLib.c **** *  None
  39:.\Generated_Source\PSoC4/CyLib.c **** *
  40:.\Generated_Source\PSoC4/CyLib.c **** * Return:
  41:.\Generated_Source\PSoC4/CyLib.c **** *  None
  42:.\Generated_Source\PSoC4/CyLib.c **** *
  43:.\Generated_Source\PSoC4/CyLib.c **** *******************************************************************************/
  44:.\Generated_Source\PSoC4/CyLib.c **** void CySysClkImoStart(void)
  45:.\Generated_Source\PSoC4/CyLib.c **** {
  26              		.loc 1 45 0
  27              		.cfi_startproc
  46:.\Generated_Source\PSoC4/CyLib.c ****     CY_SYS_CLK_IMO_CONFIG_REG |= CY_SYS_CLK_IMO_CONFIG_ENABLE;
  28              		.loc 1 46 0
  29 0000 034B     		ldr	r3, .L2
  30 0002 8022     		mov	r2, #128
  31 0004 1968     		ldr	r1, [r3]
  32 0006 1006     		lsl	r0, r2, #24
  33 0008 0843     		orr	r0, r1
  34 000a 1860     		str	r0, [r3]
  47:.\Generated_Source\PSoC4/CyLib.c **** }
  35              		.loc 1 47 0
  36              		@ sp needed for prologue
  37 000c 7047     		bx	lr
  38              	.L3:
  39 000e C046     		.align	2
  40              	.L2:
  41 0010 08010B40 		.word	1074462984
  42              		.cfi_endproc
  43              	.LFE0:
  44              		.size	CySysClkImoStart, .-CySysClkImoStart
  45              		.section	.text.CySysClkImoStop,"ax",%progbits
  46              		.align	1
  47              		.global	CySysClkImoStop
  48              		.code	16
  49              		.thumb_func
  50              		.type	CySysClkImoStop, %function
  51              	CySysClkImoStop:
  52              	.LFB1:
  48:.\Generated_Source\PSoC4/CyLib.c **** 
  49:.\Generated_Source\PSoC4/CyLib.c **** 
  50:.\Generated_Source\PSoC4/CyLib.c **** /*******************************************************************************
  51:.\Generated_Source\PSoC4/CyLib.c **** * Function Name: CySysClkImoStop
  52:.\Generated_Source\PSoC4/CyLib.c **** ********************************************************************************
  53:.\Generated_Source\PSoC4/CyLib.c **** *
  54:.\Generated_Source\PSoC4/CyLib.c **** * Summary:
  55:.\Generated_Source\PSoC4/CyLib.c **** *  Disables the IMO.
  56:.\Generated_Source\PSoC4/CyLib.c **** *
  57:.\Generated_Source\PSoC4/CyLib.c **** * Parameters:
  58:.\Generated_Source\PSoC4/CyLib.c **** *  None
  59:.\Generated_Source\PSoC4/CyLib.c **** *
  60:.\Generated_Source\PSoC4/CyLib.c **** * Return:
  61:.\Generated_Source\PSoC4/CyLib.c **** *  None
  62:.\Generated_Source\PSoC4/CyLib.c **** *
ARM GAS  C:\Users\vrnk\AppData\Local\Temp\cchVr3qk.s 			page 3


  63:.\Generated_Source\PSoC4/CyLib.c **** *******************************************************************************/
  64:.\Generated_Source\PSoC4/CyLib.c **** void CySysClkImoStop(void)
  65:.\Generated_Source\PSoC4/CyLib.c **** {
  53              		.loc 1 65 0
  54              		.cfi_startproc
  66:.\Generated_Source\PSoC4/CyLib.c ****     CY_SYS_CLK_IMO_CONFIG_REG &= ( uint32 ) ( ~( uint32 )CY_SYS_CLK_IMO_CONFIG_ENABLE);
  55              		.loc 1 66 0
  56 0000 024B     		ldr	r3, .L5
  67:.\Generated_Source\PSoC4/CyLib.c **** }
  57              		.loc 1 67 0
  58              		@ sp needed for prologue
  66:.\Generated_Source\PSoC4/CyLib.c ****     CY_SYS_CLK_IMO_CONFIG_REG &= ( uint32 ) ( ~( uint32 )CY_SYS_CLK_IMO_CONFIG_ENABLE);
  59              		.loc 1 66 0
  60 0002 1A68     		ldr	r2, [r3]
  61 0004 5000     		lsl	r0, r2, #1
  62 0006 4108     		lsr	r1, r0, #1
  63 0008 1960     		str	r1, [r3]
  64              		.loc 1 67 0
  65 000a 7047     		bx	lr
  66              	.L6:
  67              		.align	2
  68              	.L5:
  69 000c 08010B40 		.word	1074462984
  70              		.cfi_endproc
  71              	.LFE1:
  72              		.size	CySysClkImoStop, .-CySysClkImoStop
  73              		.section	.text.CySysClkIloStart,"ax",%progbits
  74              		.align	1
  75              		.global	CySysClkIloStart
  76              		.code	16
  77              		.thumb_func
  78              		.type	CySysClkIloStart, %function
  79              	CySysClkIloStart:
  80              	.LFB2:
  68:.\Generated_Source\PSoC4/CyLib.c **** 
  69:.\Generated_Source\PSoC4/CyLib.c **** 
  70:.\Generated_Source\PSoC4/CyLib.c **** /*******************************************************************************
  71:.\Generated_Source\PSoC4/CyLib.c **** * Function Name: CySysClkIloStart
  72:.\Generated_Source\PSoC4/CyLib.c **** ********************************************************************************
  73:.\Generated_Source\PSoC4/CyLib.c **** *
  74:.\Generated_Source\PSoC4/CyLib.c **** * Summary:
  75:.\Generated_Source\PSoC4/CyLib.c **** *  Enables the ILO.
  76:.\Generated_Source\PSoC4/CyLib.c **** *
  77:.\Generated_Source\PSoC4/CyLib.c **** * Parameters:
  78:.\Generated_Source\PSoC4/CyLib.c **** *  None
  79:.\Generated_Source\PSoC4/CyLib.c **** *
  80:.\Generated_Source\PSoC4/CyLib.c **** * Return:
  81:.\Generated_Source\PSoC4/CyLib.c **** *  None
  82:.\Generated_Source\PSoC4/CyLib.c **** *
  83:.\Generated_Source\PSoC4/CyLib.c **** *******************************************************************************/
  84:.\Generated_Source\PSoC4/CyLib.c **** void CySysClkIloStart(void)
  85:.\Generated_Source\PSoC4/CyLib.c **** {
  81              		.loc 1 85 0
  82              		.cfi_startproc
  86:.\Generated_Source\PSoC4/CyLib.c ****     CY_SYS_CLK_ILO_CONFIG_REG |= CY_SYS_CLK_ILO_CONFIG_ENABLE;
  83              		.loc 1 86 0
  84 0000 034B     		ldr	r3, .L8
ARM GAS  C:\Users\vrnk\AppData\Local\Temp\cchVr3qk.s 			page 4


  85 0002 8022     		mov	r2, #128
  86 0004 1968     		ldr	r1, [r3]
  87 0006 1006     		lsl	r0, r2, #24
  88 0008 0843     		orr	r0, r1
  89 000a 1860     		str	r0, [r3]
  87:.\Generated_Source\PSoC4/CyLib.c **** }
  90              		.loc 1 87 0
  91              		@ sp needed for prologue
  92 000c 7047     		bx	lr
  93              	.L9:
  94 000e C046     		.align	2
  95              	.L8:
  96 0010 04010B40 		.word	1074462980
  97              		.cfi_endproc
  98              	.LFE2:
  99              		.size	CySysClkIloStart, .-CySysClkIloStart
 100              		.section	.text.CySysClkIloStop,"ax",%progbits
 101              		.align	1
 102              		.global	CySysClkIloStop
 103              		.code	16
 104              		.thumb_func
 105              		.type	CySysClkIloStop, %function
 106              	CySysClkIloStop:
 107              	.LFB3:
  88:.\Generated_Source\PSoC4/CyLib.c **** 
  89:.\Generated_Source\PSoC4/CyLib.c **** 
  90:.\Generated_Source\PSoC4/CyLib.c **** /*******************************************************************************
  91:.\Generated_Source\PSoC4/CyLib.c **** * Function Name: CySysClkIloStop
  92:.\Generated_Source\PSoC4/CyLib.c **** ********************************************************************************
  93:.\Generated_Source\PSoC4/CyLib.c **** *
  94:.\Generated_Source\PSoC4/CyLib.c **** * Summary:
  95:.\Generated_Source\PSoC4/CyLib.c **** *  Disables the ILO.
  96:.\Generated_Source\PSoC4/CyLib.c **** *
  97:.\Generated_Source\PSoC4/CyLib.c **** * Parameters:
  98:.\Generated_Source\PSoC4/CyLib.c **** *  None
  99:.\Generated_Source\PSoC4/CyLib.c **** *
 100:.\Generated_Source\PSoC4/CyLib.c **** * Return:
 101:.\Generated_Source\PSoC4/CyLib.c **** *  None
 102:.\Generated_Source\PSoC4/CyLib.c **** *
 103:.\Generated_Source\PSoC4/CyLib.c **** * Side Effects:
 104:.\Generated_Source\PSoC4/CyLib.c **** *  This function will have no effect if WDT is locked (CySysWdtLock() is
 105:.\Generated_Source\PSoC4/CyLib.c **** *  called). Call CySysWdtUnlock() to unlock WDT and be able to stop ILO.
 106:.\Generated_Source\PSoC4/CyLib.c **** *  Note that ILO is required for WDT's operation.
 107:.\Generated_Source\PSoC4/CyLib.c **** *
 108:.\Generated_Source\PSoC4/CyLib.c **** *******************************************************************************/
 109:.\Generated_Source\PSoC4/CyLib.c **** void CySysClkIloStop(void)
 110:.\Generated_Source\PSoC4/CyLib.c **** {
 108              		.loc 1 110 0
 109              		.cfi_startproc
 111:.\Generated_Source\PSoC4/CyLib.c ****     CY_SYS_CLK_ILO_CONFIG_REG &= ( uint32 ) ( ~( uint32 )CY_SYS_CLK_ILO_CONFIG_ENABLE);
 110              		.loc 1 111 0
 111 0000 024B     		ldr	r3, .L11
 112:.\Generated_Source\PSoC4/CyLib.c **** }
 112              		.loc 1 112 0
 113              		@ sp needed for prologue
 111:.\Generated_Source\PSoC4/CyLib.c ****     CY_SYS_CLK_ILO_CONFIG_REG &= ( uint32 ) ( ~( uint32 )CY_SYS_CLK_ILO_CONFIG_ENABLE);
 114              		.loc 1 111 0
ARM GAS  C:\Users\vrnk\AppData\Local\Temp\cchVr3qk.s 			page 5


 115 0002 1A68     		ldr	r2, [r3]
 116 0004 5000     		lsl	r0, r2, #1
 117 0006 4108     		lsr	r1, r0, #1
 118 0008 1960     		str	r1, [r3]
 119              		.loc 1 112 0
 120 000a 7047     		bx	lr
 121              	.L12:
 122              		.align	2
 123              	.L11:
 124 000c 04010B40 		.word	1074462980
 125              		.cfi_endproc
 126              	.LFE3:
 127              		.size	CySysClkIloStop, .-CySysClkIloStop
 128              		.section	.text.CySysClkWriteHfclkDirect,"ax",%progbits
 129              		.align	1
 130              		.global	CySysClkWriteHfclkDirect
 131              		.code	16
 132              		.thumb_func
 133              		.type	CySysClkWriteHfclkDirect, %function
 134              	CySysClkWriteHfclkDirect:
 135              	.LFB4:
 113:.\Generated_Source\PSoC4/CyLib.c **** 
 114:.\Generated_Source\PSoC4/CyLib.c **** 
 115:.\Generated_Source\PSoC4/CyLib.c **** #if(CY_PSOC4A)
 116:.\Generated_Source\PSoC4/CyLib.c **** 
 117:.\Generated_Source\PSoC4/CyLib.c ****     /*******************************************************************************
 118:.\Generated_Source\PSoC4/CyLib.c ****     * Function Name: CySysClkWriteHfclkDirect
 119:.\Generated_Source\PSoC4/CyLib.c ****     ********************************************************************************
 120:.\Generated_Source\PSoC4/CyLib.c ****     *
 121:.\Generated_Source\PSoC4/CyLib.c ****     * Summary:
 122:.\Generated_Source\PSoC4/CyLib.c ****     *  Selects the direct source for the HFCLK.
 123:.\Generated_Source\PSoC4/CyLib.c ****     *
 124:.\Generated_Source\PSoC4/CyLib.c ****     * Parameters:
 125:.\Generated_Source\PSoC4/CyLib.c ****     *  clkSelect: One of the available HFCLK direct sources:
 126:.\Generated_Source\PSoC4/CyLib.c ****     *   Value        Define                    Source
 127:.\Generated_Source\PSoC4/CyLib.c ****     *    0            CY_SYS_CLK_HFCLK_IMO      IMO
 128:.\Generated_Source\PSoC4/CyLib.c ****     *    1            CY_SYS_CLK_HFCLK_EXTCLK   External clock pin
 129:.\Generated_Source\PSoC4/CyLib.c ****     *
 130:.\Generated_Source\PSoC4/CyLib.c ****     * Return:
 131:.\Generated_Source\PSoC4/CyLib.c ****     *  None
 132:.\Generated_Source\PSoC4/CyLib.c ****     *
 133:.\Generated_Source\PSoC4/CyLib.c ****     * Side Effects:
 134:.\Generated_Source\PSoC4/CyLib.c ****     *  The new source must be running and stable before calling this function.
 135:.\Generated_Source\PSoC4/CyLib.c ****     *  Direct source is default option for HFCLK.
 136:.\Generated_Source\PSoC4/CyLib.c ****     *
 137:.\Generated_Source\PSoC4/CyLib.c ****     *  If the SYSCLK clock frequency increases during device operation, call
 138:.\Generated_Source\PSoC4/CyLib.c ****     *  CySysFlashSetWaitCycles() with the appropriate parameter to adjust the number
 139:.\Generated_Source\PSoC4/CyLib.c ****     *  of clock cycles cache will wait before sampling data coming back from Flash.
 140:.\Generated_Source\PSoC4/CyLib.c ****     *  If the SYSCLK clock frequency decreases, you can call CyFlash_SetWaitCycles()
 141:.\Generated_Source\PSoC4/CyLib.c ****     *  to improve CPU performance. See CySysFlashSetWaitCycles() for more
 142:.\Generated_Source\PSoC4/CyLib.c ****     *  information.
 143:.\Generated_Source\PSoC4/CyLib.c ****     *
 144:.\Generated_Source\PSoC4/CyLib.c ****     *******************************************************************************/
 145:.\Generated_Source\PSoC4/CyLib.c ****     void CySysClkWriteHfclkDirect(uint32 clkSelect)
 146:.\Generated_Source\PSoC4/CyLib.c ****     {
 136              		.loc 1 146 0
 137              		.cfi_startproc
ARM GAS  C:\Users\vrnk\AppData\Local\Temp\cchVr3qk.s 			page 6


 138              	.LVL0:
 147:.\Generated_Source\PSoC4/CyLib.c ****         CY_SYS_CLK_SELECT_REG = ((CY_SYS_CLK_SELECT_REG & (( uint32 ) ~(( uint32 )CY_SYS_CLK_SELECT
 139              		.loc 1 147 0
 140 0000 044B     		ldr	r3, .L14
 148:.\Generated_Source\PSoC4/CyLib.c ****                             (( uint32 ) ( ( uint32 )clkSelect & ( uint32 )CY_SYS_CLK_SELECT_DIRECT_
 141              		.loc 1 148 0
 142 0002 0121     		mov	r1, #1
 147:.\Generated_Source\PSoC4/CyLib.c ****         CY_SYS_CLK_SELECT_REG = ((CY_SYS_CLK_SELECT_REG & (( uint32 ) ~(( uint32 )CY_SYS_CLK_SELECT
 143              		.loc 1 147 0
 144 0004 1A68     		ldr	r2, [r3]
 145              		.loc 1 148 0
 146 0006 0840     		and	r0, r1
 147              	.LVL1:
 147:.\Generated_Source\PSoC4/CyLib.c ****         CY_SYS_CLK_SELECT_REG = ((CY_SYS_CLK_SELECT_REG & (( uint32 ) ~(( uint32 )CY_SYS_CLK_SELECT
 148              		.loc 1 147 0
 149 0008 0721     		mov	r1, #7
 150 000a 8A43     		bic	r2, r1
 151 000c 1043     		orr	r0, r2
 152 000e 1860     		str	r0, [r3]
 149:.\Generated_Source\PSoC4/CyLib.c ****     }
 153              		.loc 1 149 0
 154              		@ sp needed for prologue
 155 0010 7047     		bx	lr
 156              	.L15:
 157 0012 C046     		.align	2
 158              	.L14:
 159 0014 00010B40 		.word	1074462976
 160              		.cfi_endproc
 161              	.LFE4:
 162              		.size	CySysClkWriteHfclkDirect, .-CySysClkWriteHfclkDirect
 163              		.section	.text.CySysClkWriteSysclkDiv,"ax",%progbits
 164              		.align	1
 165              		.global	CySysClkWriteSysclkDiv
 166              		.code	16
 167              		.thumb_func
 168              		.type	CySysClkWriteSysclkDiv, %function
 169              	CySysClkWriteSysclkDiv:
 170              	.LFB5:
 150:.\Generated_Source\PSoC4/CyLib.c **** 
 151:.\Generated_Source\PSoC4/CyLib.c **** 
 152:.\Generated_Source\PSoC4/CyLib.c ****     /*******************************************************************************
 153:.\Generated_Source\PSoC4/CyLib.c ****     * Function Name: CySysClkWriteSysclkDiv
 154:.\Generated_Source\PSoC4/CyLib.c ****     ********************************************************************************
 155:.\Generated_Source\PSoC4/CyLib.c ****     *
 156:.\Generated_Source\PSoC4/CyLib.c ****     * Summary:
 157:.\Generated_Source\PSoC4/CyLib.c ****     *  Selects SYSCLK from HFCLK pre-scaler value.
 158:.\Generated_Source\PSoC4/CyLib.c ****     *
 159:.\Generated_Source\PSoC4/CyLib.c ****     * Parameters:
 160:.\Generated_Source\PSoC4/CyLib.c ****     *  divider: Power of 2 prescaler selection
 161:.\Generated_Source\PSoC4/CyLib.c ****     *
 162:.\Generated_Source\PSoC4/CyLib.c ****     *   Define                        Description
 163:.\Generated_Source\PSoC4/CyLib.c ****     *   CY_SYS_CLK_SYSCLK_DIV1        SYSCLK = HFCLK / 1
 164:.\Generated_Source\PSoC4/CyLib.c ****     *   CY_SYS_CLK_SYSCLK_DIV2        SYSCLK = HFCLK / 2
 165:.\Generated_Source\PSoC4/CyLib.c ****     *   CY_SYS_CLK_SYSCLK_DIV4        SYSCLK = HFCLK / 4
 166:.\Generated_Source\PSoC4/CyLib.c ****     *   CY_SYS_CLK_SYSCLK_DIV8        SYSCLK = HFCLK / 8
 167:.\Generated_Source\PSoC4/CyLib.c ****     *   CY_SYS_CLK_SYSCLK_DIV16       SYSCLK = HFCLK / 16
 168:.\Generated_Source\PSoC4/CyLib.c ****     *   CY_SYS_CLK_SYSCLK_DIV32       SYSCLK = HFCLK / 32
ARM GAS  C:\Users\vrnk\AppData\Local\Temp\cchVr3qk.s 			page 7


 169:.\Generated_Source\PSoC4/CyLib.c ****     *   CY_SYS_CLK_SYSCLK_DIV64       SYSCLK = HFCLK / 64
 170:.\Generated_Source\PSoC4/CyLib.c ****     *   CY_SYS_CLK_SYSCLK_DIV128      SYSCLK = HFCLK / 128
 171:.\Generated_Source\PSoC4/CyLib.c ****     *
 172:.\Generated_Source\PSoC4/CyLib.c ****     * Return:
 173:.\Generated_Source\PSoC4/CyLib.c ****     *  None
 174:.\Generated_Source\PSoC4/CyLib.c ****     *
 175:.\Generated_Source\PSoC4/CyLib.c ****     * Side Effects:
 176:.\Generated_Source\PSoC4/CyLib.c ****     *  If the SYSCLK clock frequency increases during device operation, call
 177:.\Generated_Source\PSoC4/CyLib.c ****     *  CySysFlashSetWaitCycles() with the appropriate parameter to adjust the number
 178:.\Generated_Source\PSoC4/CyLib.c ****     *  of clock cycles cache will wait before sampling data coming back from Flash.
 179:.\Generated_Source\PSoC4/CyLib.c ****     *  If the SYSCLK clock frequency decreases, you can call CyFlash_SetWaitCycles()
 180:.\Generated_Source\PSoC4/CyLib.c ****     *  to improve CPU performance. See CySysFlashSetWaitCycles() for more
 181:.\Generated_Source\PSoC4/CyLib.c ****     *  information.
 182:.\Generated_Source\PSoC4/CyLib.c ****     *
 183:.\Generated_Source\PSoC4/CyLib.c ****     *******************************************************************************/
 184:.\Generated_Source\PSoC4/CyLib.c ****     void CySysClkWriteSysclkDiv(uint32 divider)
 185:.\Generated_Source\PSoC4/CyLib.c ****     {
 171              		.loc 1 185 0
 172              		.cfi_startproc
 173              	.LVL2:
 186:.\Generated_Source\PSoC4/CyLib.c ****         CY_SYS_CLK_SELECT_REG = ((uint32)(((uint32)divider & CY_SYS_CLK_SELECT_SYSCLK_DIV_MASK) <<
 187:.\Generated_Source\PSoC4/CyLib.c ****                                         CY_SYS_CLK_SELECT_SYSCLK_DIV_SHIFT)) |
 188:.\Generated_Source\PSoC4/CyLib.c ****                                 (CY_SYS_CLK_SELECT_REG & ((uint32)(~(uint32)(CY_SYS_CLK_SELECT_SYSC
 174              		.loc 1 188 0
 175 0000 054B     		ldr	r3, .L17
 185:.\Generated_Source\PSoC4/CyLib.c ****     {
 176              		.loc 1 185 0
 177 0002 10B5     		push	{r4, lr}
 178              	.LCFI0:
 179              		.cfi_def_cfa_offset 8
 180              		.cfi_offset 4, -8
 181              		.cfi_offset 14, -4
 186:.\Generated_Source\PSoC4/CyLib.c ****         CY_SYS_CLK_SELECT_REG = ((uint32)(((uint32)divider & CY_SYS_CLK_SELECT_SYSCLK_DIV_MASK) <<
 182              		.loc 1 186 0
 183 0004 0722     		mov	r2, #7
 184              		.loc 1 188 0
 185 0006 1C68     		ldr	r4, [r3]
 186:.\Generated_Source\PSoC4/CyLib.c ****         CY_SYS_CLK_SELECT_REG = ((uint32)(((uint32)divider & CY_SYS_CLK_SELECT_SYSCLK_DIV_MASK) <<
 186              		.loc 1 186 0
 187 0008 1040     		and	r0, r2
 188              	.LVL3:
 189              		.loc 1 188 0
 190 000a 0449     		ldr	r1, .L17+4
 186:.\Generated_Source\PSoC4/CyLib.c ****         CY_SYS_CLK_SELECT_REG = ((uint32)(((uint32)divider & CY_SYS_CLK_SELECT_SYSCLK_DIV_MASK) <<
 191              		.loc 1 186 0
 192 000c C204     		lsl	r2, r0, #19
 193              		.loc 1 188 0
 194 000e 201C     		mov	r0, r4
 195 0010 0840     		and	r0, r1
 187:.\Generated_Source\PSoC4/CyLib.c ****                                         CY_SYS_CLK_SELECT_SYSCLK_DIV_SHIFT)) |
 196              		.loc 1 187 0
 197 0012 1043     		orr	r0, r2
 186:.\Generated_Source\PSoC4/CyLib.c ****         CY_SYS_CLK_SELECT_REG = ((uint32)(((uint32)divider & CY_SYS_CLK_SELECT_SYSCLK_DIV_MASK) <<
 198              		.loc 1 186 0
 199 0014 1860     		str	r0, [r3]
 189:.\Generated_Source\PSoC4/CyLib.c ****                                         CY_SYS_CLK_SELECT_SYSCLK_DIV_SHIFT))));
 190:.\Generated_Source\PSoC4/CyLib.c ****     }
ARM GAS  C:\Users\vrnk\AppData\Local\Temp\cchVr3qk.s 			page 8


 200              		.loc 1 190 0
 201              		@ sp needed for prologue
 202 0016 10BD     		pop	{r4, pc}
 203              	.L18:
 204              		.align	2
 205              	.L17:
 206 0018 00010B40 		.word	1074462976
 207 001c FFFFC7FF 		.word	-3670017
 208              		.cfi_endproc
 209              	.LFE5:
 210              		.size	CySysClkWriteSysclkDiv, .-CySysClkWriteSysclkDiv
 211              		.section	.text.CySysWdtLock,"ax",%progbits
 212              		.align	1
 213              		.global	CySysWdtLock
 214              		.code	16
 215              		.thumb_func
 216              		.type	CySysWdtLock, %function
 217              	CySysWdtLock:
 218              	.LFB7:
 191:.\Generated_Source\PSoC4/CyLib.c **** 
 192:.\Generated_Source\PSoC4/CyLib.c **** 
 193:.\Generated_Source\PSoC4/CyLib.c ****     /*******************************************************************************
 194:.\Generated_Source\PSoC4/CyLib.c ****     * Function Name: CySysClkWriteImoFreq
 195:.\Generated_Source\PSoC4/CyLib.c ****     ********************************************************************************
 196:.\Generated_Source\PSoC4/CyLib.c ****     *
 197:.\Generated_Source\PSoC4/CyLib.c ****     * Summary:
 198:.\Generated_Source\PSoC4/CyLib.c ****     *  Sets the frequency of the IMO.
 199:.\Generated_Source\PSoC4/CyLib.c ****     *
 200:.\Generated_Source\PSoC4/CyLib.c ****     * Parameters:
 201:.\Generated_Source\PSoC4/CyLib.c ****     *  freq: Valid range [3-48].  Frequency for operation of the IMO.
 202:.\Generated_Source\PSoC4/CyLib.c ****     *  Note: Invalid frequency will be ignored.
 203:.\Generated_Source\PSoC4/CyLib.c ****     *
 204:.\Generated_Source\PSoC4/CyLib.c ****     * Return:
 205:.\Generated_Source\PSoC4/CyLib.c ****     *  None
 206:.\Generated_Source\PSoC4/CyLib.c ****     *
 207:.\Generated_Source\PSoC4/CyLib.c ****     * Side Effects:
 208:.\Generated_Source\PSoC4/CyLib.c ****     *  If the SYSCLK clock frequency increases during device operation, call
 209:.\Generated_Source\PSoC4/CyLib.c ****     *  CySysFlashSetWaitCycles() with the appropriate parameter to adjust the number
 210:.\Generated_Source\PSoC4/CyLib.c ****     *  of clock cycles cache will wait before sampling data coming back from Flash.
 211:.\Generated_Source\PSoC4/CyLib.c ****     *  If the SYSCLK clock frequency decreases, you can call CyFlash_SetWaitCycles()
 212:.\Generated_Source\PSoC4/CyLib.c ****     *  to improve CPU performance. See CySysFlashSetWaitCycles() for more
 213:.\Generated_Source\PSoC4/CyLib.c ****     *  information.
 214:.\Generated_Source\PSoC4/CyLib.c ****     *
 215:.\Generated_Source\PSoC4/CyLib.c ****     *******************************************************************************/
 216:.\Generated_Source\PSoC4/CyLib.c ****     void CySysClkWriteImoFreq(uint32 freq)
 217:.\Generated_Source\PSoC4/CyLib.c ****     {
 218:.\Generated_Source\PSoC4/CyLib.c ****         uint8  bgTrim4;
 219:.\Generated_Source\PSoC4/CyLib.c ****         uint8  bgTrim5;
 220:.\Generated_Source\PSoC4/CyLib.c ****         uint32 currentFreq = CY_SYS_CLK_IMO_MAX_FREQ_MHZ;
 221:.\Generated_Source\PSoC4/CyLib.c ****         uint8  interruptState;
 222:.\Generated_Source\PSoC4/CyLib.c ****         uint32 i;
 223:.\Generated_Source\PSoC4/CyLib.c **** 
 224:.\Generated_Source\PSoC4/CyLib.c ****         /* Convertion between CySysClkWriteImoFreq() parameter and register's value */
 225:.\Generated_Source\PSoC4/CyLib.c ****         static const uint8 cyImoFreqMhz2Reg[CY_SYS_CLK_IMO_FREQ_TABLE_SIZE] = {
 226:.\Generated_Source\PSoC4/CyLib.c ****             /*  3 MHz */ 0x03u,  /*  4 MHz */ 0x04u,  /*  5 MHz */ 0x05u,  /*  6 MHz */ 0x06u,
 227:.\Generated_Source\PSoC4/CyLib.c ****             /*  7 MHz */ 0x07u,  /*  8 MHz */ 0x08u,  /*  9 MHz */ 0x09u,  /* 10 MHz */ 0x0Au,
 228:.\Generated_Source\PSoC4/CyLib.c ****             /* 11 MHz */ 0x0Bu,  /* 12 MHz */ 0x0Cu,  /* 13 MHz */ 0x0Eu,  /* 14 MHz */ 0x0Fu,
ARM GAS  C:\Users\vrnk\AppData\Local\Temp\cchVr3qk.s 			page 9


 229:.\Generated_Source\PSoC4/CyLib.c ****             /* 15 MHz */ 0x10u,  /* 16 MHz */ 0x11u,  /* 17 MHz */ 0x12u,  /* 18 MHz */ 0x13u,
 230:.\Generated_Source\PSoC4/CyLib.c ****             /* 19 MHz */ 0x14u,  /* 20 MHz */ 0x15u,  /* 21 MHz */ 0x16u,  /* 22 MHz */ 0x17u,
 231:.\Generated_Source\PSoC4/CyLib.c ****             /* 23 MHz */ 0x18u,  /* 24 MHz */ 0x19u,  /* 25 MHz */ 0x1Bu,  /* 26 MHz */ 0x1Cu,
 232:.\Generated_Source\PSoC4/CyLib.c ****             /* 27 MHz */ 0x1Du,  /* 28 MHz */ 0x1Eu,  /* 29 MHz */ 0x1Fu,  /* 30 MHz */ 0x20u,
 233:.\Generated_Source\PSoC4/CyLib.c ****             /* 31 MHz */ 0x21u,  /* 32 MHz */ 0x22u,  /* 33 MHz */ 0x23u,  /* 34 MHz */ 0x25u,
 234:.\Generated_Source\PSoC4/CyLib.c ****             /* 35 MHz */ 0x26u,  /* 36 MHz */ 0x27u,  /* 37 MHz */ 0x28u,  /* 38 MHz */ 0x29u,
 235:.\Generated_Source\PSoC4/CyLib.c ****             /* 39 MHz */ 0x2Au,  /* 40 MHz */ 0x2Bu,  /* 41 MHz */ 0x2Eu,  /* 42 MHz */ 0x2Fu,
 236:.\Generated_Source\PSoC4/CyLib.c ****             /* 43 MHz */ 0x30u,  /* 44 MHz */ 0x31u,  /* 45 MHz */ 0x32u,  /* 46 MHz */ 0x33u,
 237:.\Generated_Source\PSoC4/CyLib.c ****             /* 47 MHz */ 0x34u,  /* 48 MHz */ 0x35u };
 238:.\Generated_Source\PSoC4/CyLib.c **** 
 239:.\Generated_Source\PSoC4/CyLib.c **** 
 240:.\Generated_Source\PSoC4/CyLib.c ****         if ((freq >= CY_SYS_CLK_IMO_MIN_FREQ_MHZ) && (freq <= CY_SYS_CLK_IMO_MAX_FREQ_MHZ))
 241:.\Generated_Source\PSoC4/CyLib.c ****         {
 242:.\Generated_Source\PSoC4/CyLib.c ****             interruptState = CyEnterCriticalSection();
 243:.\Generated_Source\PSoC4/CyLib.c **** 
 244:.\Generated_Source\PSoC4/CyLib.c ****             /* Get current IMO frequency */
 245:.\Generated_Source\PSoC4/CyLib.c ****             for (i = 0u; i < CY_SYS_CLK_IMO_FREQ_TABLE_SIZE; i++)
 246:.\Generated_Source\PSoC4/CyLib.c ****             {
 247:.\Generated_Source\PSoC4/CyLib.c ****                 if (cyImoFreqMhz2Reg[i] == (CY_SYS_CLK_IMO_TRIM2_REG & CY_SYS_CLK_IMO_FREQ_BITS_MAS
 248:.\Generated_Source\PSoC4/CyLib.c ****                 {
 249:.\Generated_Source\PSoC4/CyLib.c ****                     currentFreq = i + CY_SYS_CLK_IMO_FREQ_TABLE_OFFSET;
 250:.\Generated_Source\PSoC4/CyLib.c ****                     break;
 251:.\Generated_Source\PSoC4/CyLib.c ****                 }
 252:.\Generated_Source\PSoC4/CyLib.c ****             }
 253:.\Generated_Source\PSoC4/CyLib.c **** 
 254:.\Generated_Source\PSoC4/CyLib.c ****             if(freq <= CY_SFLASH_IMO_MAXF0_REG)
 255:.\Generated_Source\PSoC4/CyLib.c ****             {
 256:.\Generated_Source\PSoC4/CyLib.c ****                 bgTrim4 = CY_SFLASH_IMO_ABS0_REG;
 257:.\Generated_Source\PSoC4/CyLib.c ****                 bgTrim5 = CY_SFLASH_IMO_TMPCO0_REG;
 258:.\Generated_Source\PSoC4/CyLib.c ****             }
 259:.\Generated_Source\PSoC4/CyLib.c ****             else if(freq <= CY_SFLASH_IMO_MAXF1_REG)
 260:.\Generated_Source\PSoC4/CyLib.c ****             {
 261:.\Generated_Source\PSoC4/CyLib.c ****                 bgTrim4 = CY_SFLASH_IMO_ABS1_REG;
 262:.\Generated_Source\PSoC4/CyLib.c ****                 bgTrim5 = CY_SFLASH_IMO_TMPCO1_REG;
 263:.\Generated_Source\PSoC4/CyLib.c ****             }
 264:.\Generated_Source\PSoC4/CyLib.c ****             else if(freq <= CY_SFLASH_IMO_MAXF2_REG)
 265:.\Generated_Source\PSoC4/CyLib.c ****             {
 266:.\Generated_Source\PSoC4/CyLib.c ****                 bgTrim4 = CY_SFLASH_IMO_ABS2_REG;
 267:.\Generated_Source\PSoC4/CyLib.c ****                 bgTrim5 = CY_SFLASH_IMO_TMPCO2_REG;
 268:.\Generated_Source\PSoC4/CyLib.c ****             }
 269:.\Generated_Source\PSoC4/CyLib.c ****             else if(freq <= CY_SFLASH_IMO_MAXF3_REG)
 270:.\Generated_Source\PSoC4/CyLib.c ****             {
 271:.\Generated_Source\PSoC4/CyLib.c ****                 bgTrim4 = CY_SFLASH_IMO_ABS3_REG;
 272:.\Generated_Source\PSoC4/CyLib.c ****                 bgTrim5 = CY_SFLASH_IMO_TMPCO3_REG;
 273:.\Generated_Source\PSoC4/CyLib.c ****             }
 274:.\Generated_Source\PSoC4/CyLib.c ****             else
 275:.\Generated_Source\PSoC4/CyLib.c ****             {
 276:.\Generated_Source\PSoC4/CyLib.c ****                 bgTrim4 = CY_SFLASH_IMO_ABS4_REG;
 277:.\Generated_Source\PSoC4/CyLib.c ****                 bgTrim5 = CY_SFLASH_IMO_TMPCO4_REG;
 278:.\Generated_Source\PSoC4/CyLib.c ****             }
 279:.\Generated_Source\PSoC4/CyLib.c **** 
 280:.\Generated_Source\PSoC4/CyLib.c **** 
 281:.\Generated_Source\PSoC4/CyLib.c ****             /***************************************************************************
 282:.\Generated_Source\PSoC4/CyLib.c ****             * The IMO can have a different trim per frequency. To avoid possible corner
 283:.\Generated_Source\PSoC4/CyLib.c ****             * cases where a trim change can exceed the maximum frequency, the trim must
 284:.\Generated_Source\PSoC4/CyLib.c ****             * be applied at a frequency that is low enough.
 285:.\Generated_Source\PSoC4/CyLib.c ****             ***************************************************************************/
ARM GAS  C:\Users\vrnk\AppData\Local\Temp\cchVr3qk.s 			page 10


 286:.\Generated_Source\PSoC4/CyLib.c ****             if ((currentFreq >= CY_SYS_CLK_IMO_BOUNDARY_FREQ_MHZ) && (freq >= CY_SYS_CLK_IMO_BOUNDA
 287:.\Generated_Source\PSoC4/CyLib.c ****             {
 288:.\Generated_Source\PSoC4/CyLib.c ****                 /* Set boundary IMO frequency: safe for IMO above 48 MHZ trimming */
 289:.\Generated_Source\PSoC4/CyLib.c ****                 CY_SYS_CLK_IMO_TRIM2_REG = (uint32) cyImoFreqMhz2Reg[CY_SYS_CLK_IMO_TEMP_FREQ_MHZ -
 290:.\Generated_Source\PSoC4/CyLib.c ****                                                                      CY_SYS_CLK_IMO_FREQ_TABLE_OFFS
 291:.\Generated_Source\PSoC4/CyLib.c **** 
 292:.\Generated_Source\PSoC4/CyLib.c ****                 CyDelayCycles(CY_SYS_CLK_IMO_FREQ_TIMEOUT_CYCLES);
 293:.\Generated_Source\PSoC4/CyLib.c **** 
 294:.\Generated_Source\PSoC4/CyLib.c ****                 currentFreq = CY_SYS_CLK_IMO_TEMP_FREQ_MHZ;
 295:.\Generated_Source\PSoC4/CyLib.c ****             }
 296:.\Generated_Source\PSoC4/CyLib.c **** 
 297:.\Generated_Source\PSoC4/CyLib.c **** 
 298:.\Generated_Source\PSoC4/CyLib.c ****             /***************************************************************************
 299:.\Generated_Source\PSoC4/CyLib.c ****             * Trim change need to allowed to settle (within 5us) before the Freq can be
 300:.\Generated_Source\PSoC4/CyLib.c ****             * changed to the new frequency.
 301:.\Generated_Source\PSoC4/CyLib.c ****             ***************************************************************************/
 302:.\Generated_Source\PSoC4/CyLib.c ****             if (freq > currentFreq)
 303:.\Generated_Source\PSoC4/CyLib.c ****             {
 304:.\Generated_Source\PSoC4/CyLib.c ****                 /* Set trims for the new IMO frequency */
 305:.\Generated_Source\PSoC4/CyLib.c ****                 CY_SYS_CLK_IMO_TRIM1_REG = (uint32) CY_SFLASH_IMO_TRIM_REG(freq - CY_SYS_CLK_IMO_FR
 306:.\Generated_Source\PSoC4/CyLib.c ****                 CY_PWR_BG_TRIM4_REG  = bgTrim4;
 307:.\Generated_Source\PSoC4/CyLib.c ****                 CY_PWR_BG_TRIM5_REG  = bgTrim5;
 308:.\Generated_Source\PSoC4/CyLib.c ****                 CyDelayUs(CY_SYS_CLK_IMO_TRIM_TIMEOUT_US);
 309:.\Generated_Source\PSoC4/CyLib.c **** 
 310:.\Generated_Source\PSoC4/CyLib.c ****                 /* Set new IMO frequency */
 311:.\Generated_Source\PSoC4/CyLib.c ****                 CY_SYS_CLK_IMO_TRIM2_REG = cyImoFreqMhz2Reg[freq - CY_SYS_CLK_IMO_FREQ_TABLE_OFFSET
 312:.\Generated_Source\PSoC4/CyLib.c ****                 CyDelayCycles(CY_SYS_CLK_IMO_FREQ_TIMEOUT_CYCLES);
 313:.\Generated_Source\PSoC4/CyLib.c ****             }
 314:.\Generated_Source\PSoC4/CyLib.c ****             else
 315:.\Generated_Source\PSoC4/CyLib.c ****             {
 316:.\Generated_Source\PSoC4/CyLib.c ****                 /* Set new IMO frequency */
 317:.\Generated_Source\PSoC4/CyLib.c ****                 CY_SYS_CLK_IMO_TRIM2_REG = cyImoFreqMhz2Reg[freq - CY_SYS_CLK_IMO_FREQ_TABLE_OFFSET
 318:.\Generated_Source\PSoC4/CyLib.c ****                 CyDelayCycles(CY_SYS_CLK_IMO_FREQ_TIMEOUT_CYCLES);
 319:.\Generated_Source\PSoC4/CyLib.c **** 
 320:.\Generated_Source\PSoC4/CyLib.c ****                 /* Set trims for the new IMO frequency */
 321:.\Generated_Source\PSoC4/CyLib.c ****                 CY_SYS_CLK_IMO_TRIM1_REG = CY_SFLASH_IMO_TRIM_REG(freq - CY_SYS_CLK_IMO_FREQ_TABLE_
 322:.\Generated_Source\PSoC4/CyLib.c ****                 CY_PWR_BG_TRIM4_REG  = bgTrim4;
 323:.\Generated_Source\PSoC4/CyLib.c ****                 CY_PWR_BG_TRIM5_REG  = bgTrim5;
 324:.\Generated_Source\PSoC4/CyLib.c ****                 CyDelayUs(CY_SYS_CLK_IMO_TRIM_TIMEOUT_US);
 325:.\Generated_Source\PSoC4/CyLib.c ****             }
 326:.\Generated_Source\PSoC4/CyLib.c **** 
 327:.\Generated_Source\PSoC4/CyLib.c ****             CyExitCriticalSection(interruptState);
 328:.\Generated_Source\PSoC4/CyLib.c ****         }
 329:.\Generated_Source\PSoC4/CyLib.c ****         else
 330:.\Generated_Source\PSoC4/CyLib.c ****         {
 331:.\Generated_Source\PSoC4/CyLib.c ****             /* Halt CPU in debug mode if new frequency is invalid */
 332:.\Generated_Source\PSoC4/CyLib.c ****             CYASSERT(0u != 0u);
 333:.\Generated_Source\PSoC4/CyLib.c ****         }
 334:.\Generated_Source\PSoC4/CyLib.c ****     }
 335:.\Generated_Source\PSoC4/CyLib.c **** 
 336:.\Generated_Source\PSoC4/CyLib.c **** 
 337:.\Generated_Source\PSoC4/CyLib.c ****     /*******************************************************************************
 338:.\Generated_Source\PSoC4/CyLib.c ****     * Function Name: CySysWdtLock
 339:.\Generated_Source\PSoC4/CyLib.c ****     ********************************************************************************
 340:.\Generated_Source\PSoC4/CyLib.c ****     *
 341:.\Generated_Source\PSoC4/CyLib.c ****     * Summary:
 342:.\Generated_Source\PSoC4/CyLib.c ****     *  Locks out configuration changes to the Watchdog timer registers and ILO
ARM GAS  C:\Users\vrnk\AppData\Local\Temp\cchVr3qk.s 			page 11


 343:.\Generated_Source\PSoC4/CyLib.c ****     *  config register.
 344:.\Generated_Source\PSoC4/CyLib.c ****     *
 345:.\Generated_Source\PSoC4/CyLib.c ****     * Parameters:
 346:.\Generated_Source\PSoC4/CyLib.c ****     *  None
 347:.\Generated_Source\PSoC4/CyLib.c ****     *
 348:.\Generated_Source\PSoC4/CyLib.c ****     * Return:
 349:.\Generated_Source\PSoC4/CyLib.c ****     *  None
 350:.\Generated_Source\PSoC4/CyLib.c ****     *
 351:.\Generated_Source\PSoC4/CyLib.c ****     * Side effects:
 352:.\Generated_Source\PSoC4/CyLib.c ****     *  This API enables ILO, if it was disabled.
 353:.\Generated_Source\PSoC4/CyLib.c ****     *  After this API was called, ILO clock can't be disabled untill calling of
 354:.\Generated_Source\PSoC4/CyLib.c ****     *  CySysWdtUnlock().
 355:.\Generated_Source\PSoC4/CyLib.c ****     *
 356:.\Generated_Source\PSoC4/CyLib.c ****     *******************************************************************************/
 357:.\Generated_Source\PSoC4/CyLib.c ****     void CySysWdtLock(void)
 358:.\Generated_Source\PSoC4/CyLib.c ****     {
 219              		.loc 1 358 0
 220              		.cfi_startproc
 221 0000 10B5     		push	{r4, lr}
 222              	.LCFI1:
 223              		.cfi_def_cfa_offset 8
 224              		.cfi_offset 4, -8
 225              		.cfi_offset 14, -4
 359:.\Generated_Source\PSoC4/CyLib.c ****         uint8 interruptState;
 360:.\Generated_Source\PSoC4/CyLib.c ****         interruptState = CyEnterCriticalSection();
 226              		.loc 1 360 0
 227 0002 FFF7FEFF 		bl	CyEnterCriticalSection
 228              	.LVL4:
 361:.\Generated_Source\PSoC4/CyLib.c **** 
 362:.\Generated_Source\PSoC4/CyLib.c ****         /* Configuring the WDT involves passing control signals between clock domains,
 363:.\Generated_Source\PSoC4/CyLib.c ****         * which requires the ILO to be enabled.
 364:.\Generated_Source\PSoC4/CyLib.c ****         */
 365:.\Generated_Source\PSoC4/CyLib.c ****         if (0u == (CY_SYS_CLK_ILO_CONFIG_REG & CY_SYS_CLK_ILO_CONFIG_ENABLE))
 229              		.loc 1 365 0
 230 0006 084B     		ldr	r3, .L22
 360:.\Generated_Source\PSoC4/CyLib.c ****         interruptState = CyEnterCriticalSection();
 231              		.loc 1 360 0
 232 0008 041C     		mov	r4, r0
 233              	.LVL5:
 234              		.loc 1 365 0
 235 000a 1868     		ldr	r0, [r3]
 236              	.LVL6:
 237 000c 0028     		cmp	r0, #0
 238 000e 01DB     		blt	.L20
 366:.\Generated_Source\PSoC4/CyLib.c ****         {
 367:.\Generated_Source\PSoC4/CyLib.c ****             CySysClkIloStart();
 239              		.loc 1 367 0
 240 0010 FFF7FEFF 		bl	CySysClkIloStart
 241              	.LVL7:
 242              	.L20:
 368:.\Generated_Source\PSoC4/CyLib.c ****         }
 369:.\Generated_Source\PSoC4/CyLib.c **** 
 370:.\Generated_Source\PSoC4/CyLib.c ****         /* CLK_SELECT register's bits 15:14 are WDT_LOCK */
 371:.\Generated_Source\PSoC4/CyLib.c ****         CY_SYS_CLK_SELECT_REG = (CY_SYS_CLK_SELECT_REG & (uint32)(~CY_SYS_WDT_CLK_LOCK_BITS_MASK)) 
 243              		.loc 1 371 0
 244 0014 054B     		ldr	r3, .L22+4
 245 0016 C022     		mov	r2, #192
ARM GAS  C:\Users\vrnk\AppData\Local\Temp\cchVr3qk.s 			page 12


 246 0018 1968     		ldr	r1, [r3]
 247 001a 1002     		lsl	r0, r2, #8
 248 001c 0843     		orr	r0, r1
 249 001e 1860     		str	r0, [r3]
 372:.\Generated_Source\PSoC4/CyLib.c ****                  CY_SYS_WDT_CLK_LOCK_BITS_MASK;
 373:.\Generated_Source\PSoC4/CyLib.c **** 
 374:.\Generated_Source\PSoC4/CyLib.c ****         CyExitCriticalSection(interruptState);
 250              		.loc 1 374 0
 251 0020 201C     		mov	r0, r4
 252 0022 FFF7FEFF 		bl	CyExitCriticalSection
 253              	.LVL8:
 375:.\Generated_Source\PSoC4/CyLib.c ****     }
 254              		.loc 1 375 0
 255              		@ sp needed for prologue
 256              	.LVL9:
 257 0026 10BD     		pop	{r4, pc}
 258              	.L23:
 259              		.align	2
 260              	.L22:
 261 0028 04010B40 		.word	1074462980
 262 002c 00010B40 		.word	1074462976
 263              		.cfi_endproc
 264              	.LFE7:
 265              		.size	CySysWdtLock, .-CySysWdtLock
 266              		.section	.text.CySysWdtUnlock,"ax",%progbits
 267              		.align	1
 268              		.global	CySysWdtUnlock
 269              		.code	16
 270              		.thumb_func
 271              		.type	CySysWdtUnlock, %function
 272              	CySysWdtUnlock:
 273              	.LFB8:
 376:.\Generated_Source\PSoC4/CyLib.c **** 
 377:.\Generated_Source\PSoC4/CyLib.c **** 
 378:.\Generated_Source\PSoC4/CyLib.c ****     /*******************************************************************************
 379:.\Generated_Source\PSoC4/CyLib.c ****     * Function Name: CySysWdtUnlock
 380:.\Generated_Source\PSoC4/CyLib.c ****     ********************************************************************************
 381:.\Generated_Source\PSoC4/CyLib.c ****     *
 382:.\Generated_Source\PSoC4/CyLib.c ****     * Summary:
 383:.\Generated_Source\PSoC4/CyLib.c ****     *  Unlocks the Watchdog Timer configuration register.
 384:.\Generated_Source\PSoC4/CyLib.c ****     *
 385:.\Generated_Source\PSoC4/CyLib.c ****     * Parameters:
 386:.\Generated_Source\PSoC4/CyLib.c ****     *  None
 387:.\Generated_Source\PSoC4/CyLib.c ****     *
 388:.\Generated_Source\PSoC4/CyLib.c ****     * Return:
 389:.\Generated_Source\PSoC4/CyLib.c ****     *  None
 390:.\Generated_Source\PSoC4/CyLib.c ****     *
 391:.\Generated_Source\PSoC4/CyLib.c ****     * Side effects:
 392:.\Generated_Source\PSoC4/CyLib.c ****     *  This API enables ILO, if it was disabled.
 393:.\Generated_Source\PSoC4/CyLib.c ****     *
 394:.\Generated_Source\PSoC4/CyLib.c ****     *******************************************************************************/
 395:.\Generated_Source\PSoC4/CyLib.c ****     void CySysWdtUnlock(void)
 396:.\Generated_Source\PSoC4/CyLib.c ****     {
 274              		.loc 1 396 0
 275              		.cfi_startproc
 276 0000 10B5     		push	{r4, lr}
 277              	.LCFI2:
ARM GAS  C:\Users\vrnk\AppData\Local\Temp\cchVr3qk.s 			page 13


 278              		.cfi_def_cfa_offset 8
 279              		.cfi_offset 4, -8
 280              		.cfi_offset 14, -4
 397:.\Generated_Source\PSoC4/CyLib.c ****         uint8 interruptState;
 398:.\Generated_Source\PSoC4/CyLib.c ****         interruptState = CyEnterCriticalSection();
 281              		.loc 1 398 0
 282 0002 FFF7FEFF 		bl	CyEnterCriticalSection
 283              	.LVL10:
 399:.\Generated_Source\PSoC4/CyLib.c **** 
 400:.\Generated_Source\PSoC4/CyLib.c ****         /* Configuring the WDT involves passing control signals between clock domains,
 401:.\Generated_Source\PSoC4/CyLib.c ****         * which requires the ILO to be enabled.
 402:.\Generated_Source\PSoC4/CyLib.c ****         */
 403:.\Generated_Source\PSoC4/CyLib.c ****         if (0u == (CY_SYS_CLK_ILO_CONFIG_REG & CY_SYS_CLK_ILO_CONFIG_ENABLE))
 284              		.loc 1 403 0
 285 0006 0C4B     		ldr	r3, .L26
 398:.\Generated_Source\PSoC4/CyLib.c ****         interruptState = CyEnterCriticalSection();
 286              		.loc 1 398 0
 287 0008 041C     		mov	r4, r0
 288              	.LVL11:
 289              		.loc 1 403 0
 290 000a 1868     		ldr	r0, [r3]
 291              	.LVL12:
 292 000c 0028     		cmp	r0, #0
 293 000e 01DB     		blt	.L25
 404:.\Generated_Source\PSoC4/CyLib.c ****         {
 405:.\Generated_Source\PSoC4/CyLib.c ****             CySysClkIloStart();
 294              		.loc 1 405 0
 295 0010 FFF7FEFF 		bl	CySysClkIloStart
 296              	.LVL13:
 297              	.L25:
 406:.\Generated_Source\PSoC4/CyLib.c ****         }
 407:.\Generated_Source\PSoC4/CyLib.c **** 
 408:.\Generated_Source\PSoC4/CyLib.c ****         /* Removing WDT lock requires two writes */
 409:.\Generated_Source\PSoC4/CyLib.c ****         CY_SYS_CLK_SELECT_REG = ((CY_SYS_CLK_SELECT_REG & (uint32)(~CY_SYS_WDT_CLK_LOCK_BITS_MASK))
 298              		.loc 1 409 0
 299 0014 094B     		ldr	r3, .L26+4
 300 0016 0A4A     		ldr	r2, .L26+8
 301 0018 1968     		ldr	r1, [r3]
 302 001a 8020     		mov	r0, #128
 303 001c 1140     		and	r1, r2
 304 001e C001     		lsl	r0, r0, #7
 305 0020 0143     		orr	r1, r0
 306 0022 1960     		str	r1, [r3]
 410:.\Generated_Source\PSoC4/CyLib.c ****                 CY_SYS_WDT_CLK_LOCK_BIT0);
 411:.\Generated_Source\PSoC4/CyLib.c **** 
 412:.\Generated_Source\PSoC4/CyLib.c ****         CY_SYS_CLK_SELECT_REG = ((CY_SYS_CLK_SELECT_REG & (uint32)(~CY_SYS_WDT_CLK_LOCK_BITS_MASK))
 307              		.loc 1 412 0
 308 0024 1968     		ldr	r1, [r3]
 309 0026 8020     		mov	r0, #128
 310 0028 0A40     		and	r2, r1
 311 002a 0102     		lsl	r1, r0, #8
 312 002c 0A43     		orr	r2, r1
 313 002e 1A60     		str	r2, [r3]
 413:.\Generated_Source\PSoC4/CyLib.c ****                 CY_SYS_WDT_CLK_LOCK_BIT1);
 414:.\Generated_Source\PSoC4/CyLib.c **** 
 415:.\Generated_Source\PSoC4/CyLib.c ****         CyExitCriticalSection(interruptState);
 314              		.loc 1 415 0
ARM GAS  C:\Users\vrnk\AppData\Local\Temp\cchVr3qk.s 			page 14


 315 0030 201C     		mov	r0, r4
 316 0032 FFF7FEFF 		bl	CyExitCriticalSection
 317              	.LVL14:
 416:.\Generated_Source\PSoC4/CyLib.c ****     }
 318              		.loc 1 416 0
 319              		@ sp needed for prologue
 320              	.LVL15:
 321 0036 10BD     		pop	{r4, pc}
 322              	.L27:
 323              		.align	2
 324              	.L26:
 325 0038 04010B40 		.word	1074462980
 326 003c 00010B40 		.word	1074462976
 327 0040 FF3FFFFF 		.word	-49153
 328              		.cfi_endproc
 329              	.LFE8:
 330              		.size	CySysWdtUnlock, .-CySysWdtUnlock
 331              		.section	.text.CySysWdtReadEnabledStatus,"ax",%progbits
 332              		.align	1
 333              		.global	CySysWdtReadEnabledStatus
 334              		.code	16
 335              		.thumb_func
 336              		.type	CySysWdtReadEnabledStatus, %function
 337              	CySysWdtReadEnabledStatus:
 338              	.LFB9:
 417:.\Generated_Source\PSoC4/CyLib.c **** 
 418:.\Generated_Source\PSoC4/CyLib.c **** 
 419:.\Generated_Source\PSoC4/CyLib.c ****     /*******************************************************************************
 420:.\Generated_Source\PSoC4/CyLib.c ****     * Function Name: CySysWdtReadEnabledStatus
 421:.\Generated_Source\PSoC4/CyLib.c ****     ********************************************************************************
 422:.\Generated_Source\PSoC4/CyLib.c ****     *
 423:.\Generated_Source\PSoC4/CyLib.c ****     * Summary:
 424:.\Generated_Source\PSoC4/CyLib.c ****     *  Reads the enabled staus of one of the three WDT counters.
 425:.\Generated_Source\PSoC4/CyLib.c ****     *
 426:.\Generated_Source\PSoC4/CyLib.c ****     * Parameters:
 427:.\Generated_Source\PSoC4/CyLib.c ****     *  counterNum: Valid range [0-2].  Number of the WDT counter.
 428:.\Generated_Source\PSoC4/CyLib.c ****     *
 429:.\Generated_Source\PSoC4/CyLib.c ****     * Return:
 430:.\Generated_Source\PSoC4/CyLib.c ****     *  Status of WDT counter:
 431:.\Generated_Source\PSoC4/CyLib.c ****     *   0 - counter is disabled
 432:.\Generated_Source\PSoC4/CyLib.c ****     *   1 - counter is enabled
 433:.\Generated_Source\PSoC4/CyLib.c ****     *
 434:.\Generated_Source\PSoC4/CyLib.c ****     * Side Effects:
 435:.\Generated_Source\PSoC4/CyLib.c ****     *  This API returns actual WDT counter status from status register.
 436:.\Generated_Source\PSoC4/CyLib.c ****     *  It may take up to 3 LFCLK cycles since WDT counter was enabled for WDT status
 437:.\Generated_Source\PSoC4/CyLib.c ****     *  register to contain actual data.
 438:.\Generated_Source\PSoC4/CyLib.c ****     *
 439:.\Generated_Source\PSoC4/CyLib.c ****     *******************************************************************************/
 440:.\Generated_Source\PSoC4/CyLib.c ****     uint32 CySysWdtReadEnabledStatus(uint32 counterNum)
 441:.\Generated_Source\PSoC4/CyLib.c ****     {
 339              		.loc 1 441 0
 340              		.cfi_startproc
 341              	.LVL16:
 342 0000 00B5     		push	{lr}
 343              	.LCFI3:
 344              		.cfi_def_cfa_offset 4
 345              		.cfi_offset 14, -4
ARM GAS  C:\Users\vrnk\AppData\Local\Temp\cchVr3qk.s 			page 15


 442:.\Generated_Source\PSoC4/CyLib.c ****         CYASSERT(counterNum < CY_SYS_WDT_COUNTERS_MAX);
 346              		.loc 1 442 0
 347 0002 0228     		cmp	r0, #2
 348 0004 00D9     		bls	.L29
 349              	.LVL17:
 350              	.LBB34:
 351              	.LBB35:
 443:.\Generated_Source\PSoC4/CyLib.c ****         return ((CY_SYS_WDT_CONTROL_REG >> ((CY_SYS_WDT_CNT_SHIFT * counterNum) + CY_SYS_WDT_CNT_ST
 444:.\Generated_Source\PSoC4/CyLib.c ****     }
 445:.\Generated_Source\PSoC4/CyLib.c **** 
 446:.\Generated_Source\PSoC4/CyLib.c **** 
 447:.\Generated_Source\PSoC4/CyLib.c ****     /*******************************************************************************
 448:.\Generated_Source\PSoC4/CyLib.c ****     * Function Name: CySysWdtWriteMode
 449:.\Generated_Source\PSoC4/CyLib.c ****     ********************************************************************************
 450:.\Generated_Source\PSoC4/CyLib.c ****     *
 451:.\Generated_Source\PSoC4/CyLib.c ****     * Summary:
 452:.\Generated_Source\PSoC4/CyLib.c ****     *   Writes the mode of one of the three WDT counters.
 453:.\Generated_Source\PSoC4/CyLib.c ****     *
 454:.\Generated_Source\PSoC4/CyLib.c ****     * Parameters:
 455:.\Generated_Source\PSoC4/CyLib.c ****     *   counterNum: Valid range [0-2].  Number of the WDT counter.
 456:.\Generated_Source\PSoC4/CyLib.c ****     *   mode:       Mode of operation for the counter
 457:.\Generated_Source\PSoC4/CyLib.c ****     *       Define                   Mode
 458:.\Generated_Source\PSoC4/CyLib.c ****     *    CY_SYS_WDT_MODE_NONE       Free running
 459:.\Generated_Source\PSoC4/CyLib.c ****     *    CY_SYS_WDT_MODE_INT        Interrupt generated on match for counter 0
 460:.\Generated_Source\PSoC4/CyLib.c ****     *                               and 1, and on bit toggle for counter 2.
 461:.\Generated_Source\PSoC4/CyLib.c ****     *    CY_SYS_WDT_MODE_RESET      Reset on match (valid for counter 0 and 1
 462:.\Generated_Source\PSoC4/CyLib.c ****     *                               only)
 463:.\Generated_Source\PSoC4/CyLib.c ****     *    CY_SYS_WDT_MODE_INT_RESET  Generate an interrupt.  Generate a reset on
 464:.\Generated_Source\PSoC4/CyLib.c ****     *                                    the 3rd unhandled interrupt.
 465:.\Generated_Source\PSoC4/CyLib.c ****     *                                    (valid for counter 0 and 1 only)
 466:.\Generated_Source\PSoC4/CyLib.c ****     * Return:
 467:.\Generated_Source\PSoC4/CyLib.c ****     *   None
 468:.\Generated_Source\PSoC4/CyLib.c ****     *
 469:.\Generated_Source\PSoC4/CyLib.c ****     * Side Effects:
 470:.\Generated_Source\PSoC4/CyLib.c ****     *   WDT counter counterNum should be disabled to set mode. Othetwise function
 471:.\Generated_Source\PSoC4/CyLib.c ****     *   call will have no effect.
 472:.\Generated_Source\PSoC4/CyLib.c ****     *   This API enables ILO, if it was disabled.
 473:.\Generated_Source\PSoC4/CyLib.c ****     *
 474:.\Generated_Source\PSoC4/CyLib.c ****     *******************************************************************************/
 475:.\Generated_Source\PSoC4/CyLib.c ****     void CySysWdtWriteMode(uint32 counterNum, uint32 mode)
 476:.\Generated_Source\PSoC4/CyLib.c ****     {
 477:.\Generated_Source\PSoC4/CyLib.c ****         uint32 configRegValue;
 478:.\Generated_Source\PSoC4/CyLib.c **** 
 479:.\Generated_Source\PSoC4/CyLib.c ****         CYASSERT(counterNum < CY_SYS_WDT_COUNTERS_MAX);
 480:.\Generated_Source\PSoC4/CyLib.c **** 
 481:.\Generated_Source\PSoC4/CyLib.c ****         /* Configuring the WDT involves passing control signals between clock domains,
 482:.\Generated_Source\PSoC4/CyLib.c ****         * which requires the ILO to be enabled.
 483:.\Generated_Source\PSoC4/CyLib.c ****         */
 484:.\Generated_Source\PSoC4/CyLib.c ****         if (0u == (CY_SYS_CLK_ILO_CONFIG_REG & CY_SYS_CLK_ILO_CONFIG_ENABLE))
 485:.\Generated_Source\PSoC4/CyLib.c ****         {
 486:.\Generated_Source\PSoC4/CyLib.c ****             CySysClkIloStart();
 487:.\Generated_Source\PSoC4/CyLib.c ****         }
 488:.\Generated_Source\PSoC4/CyLib.c **** 
 489:.\Generated_Source\PSoC4/CyLib.c ****         if(0u == CySysWdtReadEnabledStatus(counterNum))
 490:.\Generated_Source\PSoC4/CyLib.c ****         {
 491:.\Generated_Source\PSoC4/CyLib.c ****             configRegValue = CY_SYS_WDT_CONFIG_REG &
 492:.\Generated_Source\PSoC4/CyLib.c ****                                 (uint32)~((uint32)(CY_SYS_WDT_MODE_MASK << (counterNum * CY_SYS_WDT
ARM GAS  C:\Users\vrnk\AppData\Local\Temp\cchVr3qk.s 			page 16


 493:.\Generated_Source\PSoC4/CyLib.c ****             configRegValue |= (uint32)((mode & CY_SYS_WDT_MODE_MASK) << (counterNum * CY_SYS_WDT_CN
 494:.\Generated_Source\PSoC4/CyLib.c ****             CY_SYS_WDT_CONFIG_REG = configRegValue;
 495:.\Generated_Source\PSoC4/CyLib.c ****         }
 496:.\Generated_Source\PSoC4/CyLib.c ****     }
 497:.\Generated_Source\PSoC4/CyLib.c **** 
 498:.\Generated_Source\PSoC4/CyLib.c **** 
 499:.\Generated_Source\PSoC4/CyLib.c ****     /*******************************************************************************
 500:.\Generated_Source\PSoC4/CyLib.c ****     * Function Name: CySysWdtReadMode
 501:.\Generated_Source\PSoC4/CyLib.c ****     ********************************************************************************
 502:.\Generated_Source\PSoC4/CyLib.c ****     *
 503:.\Generated_Source\PSoC4/CyLib.c ****     * Summary:
 504:.\Generated_Source\PSoC4/CyLib.c ****     *  Reads the mode of one of the three WDT counters.
 505:.\Generated_Source\PSoC4/CyLib.c ****     *
 506:.\Generated_Source\PSoC4/CyLib.c ****     * Parameters:
 507:.\Generated_Source\PSoC4/CyLib.c ****     *  counterNum: Valid range [0-2].  Number of the WDT counter.
 508:.\Generated_Source\PSoC4/CyLib.c ****     *
 509:.\Generated_Source\PSoC4/CyLib.c ****     * Return:
 510:.\Generated_Source\PSoC4/CyLib.c ****     *  Mode of the counter.  Same enumerated values as mode parameter used in
 511:.\Generated_Source\PSoC4/CyLib.c ****     *  CySysWdtWriteMode().
 512:.\Generated_Source\PSoC4/CyLib.c ****     *
 513:.\Generated_Source\PSoC4/CyLib.c ****     *******************************************************************************/
 514:.\Generated_Source\PSoC4/CyLib.c ****     uint32 CySysWdtReadMode(uint32 counterNum)
 515:.\Generated_Source\PSoC4/CyLib.c ****     {
 516:.\Generated_Source\PSoC4/CyLib.c ****         return ((CY_SYS_WDT_CONFIG_REG >> (counterNum * CY_SYS_WDT_CNT_SHIFT)) & CY_SYS_WDT_MODE_MA
 517:.\Generated_Source\PSoC4/CyLib.c ****     }
 518:.\Generated_Source\PSoC4/CyLib.c **** 
 519:.\Generated_Source\PSoC4/CyLib.c **** 
 520:.\Generated_Source\PSoC4/CyLib.c ****     /*******************************************************************************
 521:.\Generated_Source\PSoC4/CyLib.c ****     * Function Name: CySysWdtWriteClearOnMatch
 522:.\Generated_Source\PSoC4/CyLib.c ****     ********************************************************************************
 523:.\Generated_Source\PSoC4/CyLib.c ****     *
 524:.\Generated_Source\PSoC4/CyLib.c ****     * Summary:
 525:.\Generated_Source\PSoC4/CyLib.c ****     *  Configures the WDT counter clear on a match setting.  If configured to clear
 526:.\Generated_Source\PSoC4/CyLib.c ****     *  on match the counter will count from 0 to the MatchValue giving it a
 527:.\Generated_Source\PSoC4/CyLib.c ****     *  period of (MatchValue + 1).
 528:.\Generated_Source\PSoC4/CyLib.c ****     *
 529:.\Generated_Source\PSoC4/CyLib.c ****     * Parameters:
 530:.\Generated_Source\PSoC4/CyLib.c ****     *  counterNum:
 531:.\Generated_Source\PSoC4/CyLib.c ****     *   Valid range [0-1].  Number of the WDT counter.  Match values are not
 532:.\Generated_Source\PSoC4/CyLib.c ****     *   supported by counter 2.
 533:.\Generated_Source\PSoC4/CyLib.c ****     *
 534:.\Generated_Source\PSoC4/CyLib.c ****     * enable:
 535:.\Generated_Source\PSoC4/CyLib.c ****     *   0 to disable, 1 to enable
 536:.\Generated_Source\PSoC4/CyLib.c ****     *
 537:.\Generated_Source\PSoC4/CyLib.c ****     * Return:
 538:.\Generated_Source\PSoC4/CyLib.c ****     *   None
 539:.\Generated_Source\PSoC4/CyLib.c ****     *
 540:.\Generated_Source\PSoC4/CyLib.c ****     * Side Effects:
 541:.\Generated_Source\PSoC4/CyLib.c ****     *   WDT counter counterNum should be disabled. Othetwise function
 542:.\Generated_Source\PSoC4/CyLib.c ****     *   call will have no effect.
 543:.\Generated_Source\PSoC4/CyLib.c ****     *   This API enables ILO, if it was disabled.
 544:.\Generated_Source\PSoC4/CyLib.c ****     *
 545:.\Generated_Source\PSoC4/CyLib.c ****     *
 546:.\Generated_Source\PSoC4/CyLib.c ****     *******************************************************************************/
 547:.\Generated_Source\PSoC4/CyLib.c ****     void CySysWdtWriteClearOnMatch(uint32 counterNum, uint32 enable)
 548:.\Generated_Source\PSoC4/CyLib.c ****     {
 549:.\Generated_Source\PSoC4/CyLib.c ****         CYASSERT((counterNum == CY_SYS_WDT_COUNTER0) ||
ARM GAS  C:\Users\vrnk\AppData\Local\Temp\cchVr3qk.s 			page 17


 550:.\Generated_Source\PSoC4/CyLib.c ****                                              (counterNum == CY_SYS_WDT_COUNTER1));
 551:.\Generated_Source\PSoC4/CyLib.c **** 
 552:.\Generated_Source\PSoC4/CyLib.c ****         /* Configuring the WDT involves passing control signals between clock domains,
 553:.\Generated_Source\PSoC4/CyLib.c ****         * which requires the ILO to be enabled.
 554:.\Generated_Source\PSoC4/CyLib.c ****         */
 555:.\Generated_Source\PSoC4/CyLib.c ****         if (0u == (CY_SYS_CLK_ILO_CONFIG_REG & CY_SYS_CLK_ILO_CONFIG_ENABLE))
 556:.\Generated_Source\PSoC4/CyLib.c ****         {
 557:.\Generated_Source\PSoC4/CyLib.c ****             CySysClkIloStart();
 558:.\Generated_Source\PSoC4/CyLib.c ****         }
 559:.\Generated_Source\PSoC4/CyLib.c **** 
 560:.\Generated_Source\PSoC4/CyLib.c ****         if(0u == CySysWdtReadEnabledStatus(counterNum))
 561:.\Generated_Source\PSoC4/CyLib.c ****         {
 562:.\Generated_Source\PSoC4/CyLib.c ****             CY_SYS_WDT_CONFIG_REG |= (uint32)(enable << ((counterNum * CY_SYS_WDT_CNT_SHIFT) +
 563:.\Generated_Source\PSoC4/CyLib.c ****                                                             CY_SYS_WDT_CNT_MATCH_CLR_SHIFT));
 564:.\Generated_Source\PSoC4/CyLib.c ****         }
 565:.\Generated_Source\PSoC4/CyLib.c ****     }
 566:.\Generated_Source\PSoC4/CyLib.c **** 
 567:.\Generated_Source\PSoC4/CyLib.c **** 
 568:.\Generated_Source\PSoC4/CyLib.c ****     /*******************************************************************************
 569:.\Generated_Source\PSoC4/CyLib.c ****     * Function Name: CySysWdtReadClearOnMatch
 570:.\Generated_Source\PSoC4/CyLib.c ****     ********************************************************************************
 571:.\Generated_Source\PSoC4/CyLib.c ****     *
 572:.\Generated_Source\PSoC4/CyLib.c ****     * Summary:
 573:.\Generated_Source\PSoC4/CyLib.c ****     *  Reads the clear on match setting for the specified counter.
 574:.\Generated_Source\PSoC4/CyLib.c ****     *
 575:.\Generated_Source\PSoC4/CyLib.c ****     * Parameters:
 576:.\Generated_Source\PSoC4/CyLib.c ****     *   counterNum: Valid range [0-1].  Number of the WDT counter.  Match values are
 577:.\Generated_Source\PSoC4/CyLib.c ****     *               not supported by counter 2.
 578:.\Generated_Source\PSoC4/CyLib.c ****     *
 579:.\Generated_Source\PSoC4/CyLib.c ****     * Return:
 580:.\Generated_Source\PSoC4/CyLib.c ****     *   Clear on Match status: 1 if enabled, 0 if disabled
 581:.\Generated_Source\PSoC4/CyLib.c ****     *
 582:.\Generated_Source\PSoC4/CyLib.c ****     *******************************************************************************/
 583:.\Generated_Source\PSoC4/CyLib.c ****     uint32 CySysWdtReadClearOnMatch(uint32 counterNum)
 584:.\Generated_Source\PSoC4/CyLib.c ****     {
 585:.\Generated_Source\PSoC4/CyLib.c ****         CYASSERT((counterNum == CY_SYS_WDT_COUNTER0) ||
 586:.\Generated_Source\PSoC4/CyLib.c ****                                              (counterNum == CY_SYS_WDT_COUNTER1));
 587:.\Generated_Source\PSoC4/CyLib.c **** 
 588:.\Generated_Source\PSoC4/CyLib.c ****         return (uint32)((CY_SYS_WDT_CONFIG_REG >>
 589:.\Generated_Source\PSoC4/CyLib.c ****                             ((counterNum * CY_SYS_WDT_CNT_SHIFT) + CY_SYS_WDT_CNT_MATCH_CLR_SHIFT))
 590:.\Generated_Source\PSoC4/CyLib.c ****     }
 591:.\Generated_Source\PSoC4/CyLib.c **** 
 592:.\Generated_Source\PSoC4/CyLib.c **** 
 593:.\Generated_Source\PSoC4/CyLib.c ****     /*******************************************************************************
 594:.\Generated_Source\PSoC4/CyLib.c ****     * Function Name: CySysWdtEnable
 595:.\Generated_Source\PSoC4/CyLib.c ****     ********************************************************************************
 596:.\Generated_Source\PSoC4/CyLib.c ****     *
 597:.\Generated_Source\PSoC4/CyLib.c ****     * Summary:
 598:.\Generated_Source\PSoC4/CyLib.c ****     *  Enables the specified WDT counters.  All counters specified in the mask are
 599:.\Generated_Source\PSoC4/CyLib.c ****     *  enabled.
 600:.\Generated_Source\PSoC4/CyLib.c ****     *
 601:.\Generated_Source\PSoC4/CyLib.c ****     * Parameters:
 602:.\Generated_Source\PSoC4/CyLib.c ****     *  counterMask: Mask of all counters to enable
 603:.\Generated_Source\PSoC4/CyLib.c ****     *       Define                       Counter
 604:.\Generated_Source\PSoC4/CyLib.c ****     *      CY_SYS_WDT_COUNTER0_MASK      0
 605:.\Generated_Source\PSoC4/CyLib.c ****     *      CY_SYS_WDT_COUNTER1_MASK      1
 606:.\Generated_Source\PSoC4/CyLib.c ****     *      CY_SYS_WDT_COUNTER2_MASK      2
ARM GAS  C:\Users\vrnk\AppData\Local\Temp\cchVr3qk.s 			page 18


 607:.\Generated_Source\PSoC4/CyLib.c ****     *
 608:.\Generated_Source\PSoC4/CyLib.c ****     * Return:
 609:.\Generated_Source\PSoC4/CyLib.c ****     *  None
 610:.\Generated_Source\PSoC4/CyLib.c ****     *
 611:.\Generated_Source\PSoC4/CyLib.c ****     * Side Effects:
 612:.\Generated_Source\PSoC4/CyLib.c ****     *  Enabling or disabling a WDT requires 3 LF Clock cycles to come into effect.
 613:.\Generated_Source\PSoC4/CyLib.c ****     *  This API enables ILO, if it was disabled.
 614:.\Generated_Source\PSoC4/CyLib.c ****     *
 615:.\Generated_Source\PSoC4/CyLib.c ****     *******************************************************************************/
 616:.\Generated_Source\PSoC4/CyLib.c ****     void CySysWdtEnable(uint32 counterMask)
 617:.\Generated_Source\PSoC4/CyLib.c ****     {
 618:.\Generated_Source\PSoC4/CyLib.c ****         /* Configuring the WDT involves passing control signals between clock domains,
 619:.\Generated_Source\PSoC4/CyLib.c ****         * which requires the ILO to be enabled.
 620:.\Generated_Source\PSoC4/CyLib.c ****         */
 621:.\Generated_Source\PSoC4/CyLib.c ****         if (0u == (CY_SYS_CLK_ILO_CONFIG_REG & CY_SYS_CLK_ILO_CONFIG_ENABLE))
 622:.\Generated_Source\PSoC4/CyLib.c ****         {
 623:.\Generated_Source\PSoC4/CyLib.c ****             CySysClkIloStart();
 624:.\Generated_Source\PSoC4/CyLib.c ****         }
 625:.\Generated_Source\PSoC4/CyLib.c **** 
 626:.\Generated_Source\PSoC4/CyLib.c ****         CY_SYS_WDT_CONTROL_REG |= counterMask;
 627:.\Generated_Source\PSoC4/CyLib.c ****     }
 628:.\Generated_Source\PSoC4/CyLib.c **** 
 629:.\Generated_Source\PSoC4/CyLib.c **** 
 630:.\Generated_Source\PSoC4/CyLib.c ****     /*******************************************************************************
 631:.\Generated_Source\PSoC4/CyLib.c ****     * Function Name: CySysWdtDisable
 632:.\Generated_Source\PSoC4/CyLib.c ****     ********************************************************************************
 633:.\Generated_Source\PSoC4/CyLib.c ****     *
 634:.\Generated_Source\PSoC4/CyLib.c ****     * Summary:
 635:.\Generated_Source\PSoC4/CyLib.c ****     *  Disables the specified WDT counters.  All counters specified in the mask are
 636:.\Generated_Source\PSoC4/CyLib.c ****     *  disabled.
 637:.\Generated_Source\PSoC4/CyLib.c ****     *
 638:.\Generated_Source\PSoC4/CyLib.c ****     * Parameters:
 639:.\Generated_Source\PSoC4/CyLib.c ****     *  uint32 counterMask: Mask of all counters to disable
 640:.\Generated_Source\PSoC4/CyLib.c ****     *    Define                       Counter
 641:.\Generated_Source\PSoC4/CyLib.c ****     *   CY_SYS_WDT_COUNTER0_MASK      0
 642:.\Generated_Source\PSoC4/CyLib.c ****     *   CY_SYS_WDT_COUNTER1_MASK      1
 643:.\Generated_Source\PSoC4/CyLib.c ****     *   CY_SYS_WDT_COUNTER2_MASK      2
 644:.\Generated_Source\PSoC4/CyLib.c ****     *
 645:.\Generated_Source\PSoC4/CyLib.c ****     * Return:
 646:.\Generated_Source\PSoC4/CyLib.c ****     *   None
 647:.\Generated_Source\PSoC4/CyLib.c ****     *
 648:.\Generated_Source\PSoC4/CyLib.c ****     * Side Effects:
 649:.\Generated_Source\PSoC4/CyLib.c ****     *  Enabling or disabling a WDT requires 3 LF Clock cycles to come into effect.
 650:.\Generated_Source\PSoC4/CyLib.c ****     *  This API enables ILO, if it was disabled.
 651:.\Generated_Source\PSoC4/CyLib.c ****     *
 652:.\Generated_Source\PSoC4/CyLib.c ****     *******************************************************************************/
 653:.\Generated_Source\PSoC4/CyLib.c ****     void CySysWdtDisable(uint32 counterMask)
 654:.\Generated_Source\PSoC4/CyLib.c ****     {
 655:.\Generated_Source\PSoC4/CyLib.c ****         /* Configuring the WDT involves passing control signals between clock domains,
 656:.\Generated_Source\PSoC4/CyLib.c ****         * which requires the ILO to be enabled.
 657:.\Generated_Source\PSoC4/CyLib.c ****         */
 658:.\Generated_Source\PSoC4/CyLib.c ****         if (0u == (CY_SYS_CLK_ILO_CONFIG_REG & CY_SYS_CLK_ILO_CONFIG_ENABLE))
 659:.\Generated_Source\PSoC4/CyLib.c ****         {
 660:.\Generated_Source\PSoC4/CyLib.c ****             CySysClkIloStart();
 661:.\Generated_Source\PSoC4/CyLib.c ****         }
 662:.\Generated_Source\PSoC4/CyLib.c **** 
 663:.\Generated_Source\PSoC4/CyLib.c ****         CY_SYS_WDT_CONTROL_REG &= ~counterMask;
ARM GAS  C:\Users\vrnk\AppData\Local\Temp\cchVr3qk.s 			page 19


 664:.\Generated_Source\PSoC4/CyLib.c ****     }
 665:.\Generated_Source\PSoC4/CyLib.c **** 
 666:.\Generated_Source\PSoC4/CyLib.c **** 
 667:.\Generated_Source\PSoC4/CyLib.c ****     /*******************************************************************************
 668:.\Generated_Source\PSoC4/CyLib.c ****     * Function Name: CySysWdtWriteCascade
 669:.\Generated_Source\PSoC4/CyLib.c ****     ********************************************************************************
 670:.\Generated_Source\PSoC4/CyLib.c ****     *
 671:.\Generated_Source\PSoC4/CyLib.c ****     * Summary:
 672:.\Generated_Source\PSoC4/CyLib.c ****     *   Writes the two WDT cascade values based on the combination of mask values
 673:.\Generated_Source\PSoC4/CyLib.c ****     *   specified.
 674:.\Generated_Source\PSoC4/CyLib.c ****     *
 675:.\Generated_Source\PSoC4/CyLib.c ****     * Parameters:
 676:.\Generated_Source\PSoC4/CyLib.c ****     *   cascadeMask: Mask value used to set or clear the cascade values.
 677:.\Generated_Source\PSoC4/CyLib.c ****     *   Define                     Cascade
 678:.\Generated_Source\PSoC4/CyLib.c ****     *   CY_SYS_WDT_CASCADE_NONE    Neither
 679:.\Generated_Source\PSoC4/CyLib.c ****     *   CY_SYS_WDT_CASCADE_01      Cascade 01
 680:.\Generated_Source\PSoC4/CyLib.c ****     *   CY_SYS_WDT_CASCADE_12      Cascade 12
 681:.\Generated_Source\PSoC4/CyLib.c ****     *
 682:.\Generated_Source\PSoC4/CyLib.c ****     * Return:
 683:.\Generated_Source\PSoC4/CyLib.c ****     *   None
 684:.\Generated_Source\PSoC4/CyLib.c ****     *
 685:.\Generated_Source\PSoC4/CyLib.c ****     * Side effects:
 686:.\Generated_Source\PSoC4/CyLib.c ****     *   If only one cascasde mask is specified, the second cascade is disabled.
 687:.\Generated_Source\PSoC4/CyLib.c ****     *   To set both cascade modes two defines should be ORed:
 688:.\Generated_Source\PSoC4/CyLib.c ****     *    (CY_SYS_WDT_CASCADE_01 | CY_SYS_WDT_CASCADE_12)
 689:.\Generated_Source\PSoC4/CyLib.c ****     *   This API enables ILO, if it was disabled.
 690:.\Generated_Source\PSoC4/CyLib.c ****     *
 691:.\Generated_Source\PSoC4/CyLib.c ****     *******************************************************************************/
 692:.\Generated_Source\PSoC4/CyLib.c ****     void CySysWdtWriteCascade(uint32 cascadeMask)
 693:.\Generated_Source\PSoC4/CyLib.c ****     {
 694:.\Generated_Source\PSoC4/CyLib.c ****         uint32 configRegValue;
 695:.\Generated_Source\PSoC4/CyLib.c ****         uint32 countersEnableStatus;
 696:.\Generated_Source\PSoC4/CyLib.c **** 
 697:.\Generated_Source\PSoC4/CyLib.c ****         countersEnableStatus = CySysWdtReadEnabledStatus(CY_SYS_WDT_COUNTER0) |
 698:.\Generated_Source\PSoC4/CyLib.c ****                             CySysWdtReadEnabledStatus(CY_SYS_WDT_COUNTER1) |
 699:.\Generated_Source\PSoC4/CyLib.c ****                             CySysWdtReadEnabledStatus(CY_SYS_WDT_COUNTER2);
 700:.\Generated_Source\PSoC4/CyLib.c **** 
 701:.\Generated_Source\PSoC4/CyLib.c ****         if (0u == countersEnableStatus)
 702:.\Generated_Source\PSoC4/CyLib.c ****         {
 703:.\Generated_Source\PSoC4/CyLib.c ****             /* Configuring the WDT involves passing control signals between clock domains,
 704:.\Generated_Source\PSoC4/CyLib.c ****             * which requires the ILO to be enabled.
 705:.\Generated_Source\PSoC4/CyLib.c ****             */
 706:.\Generated_Source\PSoC4/CyLib.c ****             if (0u == (CY_SYS_CLK_ILO_CONFIG_REG & CY_SYS_CLK_ILO_CONFIG_ENABLE))
 707:.\Generated_Source\PSoC4/CyLib.c ****             {
 708:.\Generated_Source\PSoC4/CyLib.c ****                 CySysClkIloStart();
 709:.\Generated_Source\PSoC4/CyLib.c ****             }
 710:.\Generated_Source\PSoC4/CyLib.c **** 
 711:.\Generated_Source\PSoC4/CyLib.c ****             configRegValue = CY_SYS_WDT_CONFIG_REG;
 712:.\Generated_Source\PSoC4/CyLib.c ****             configRegValue &= ((uint32)(~(CY_SYS_WDT_CASCADE_01|CY_SYS_WDT_CASCADE_12)));
 713:.\Generated_Source\PSoC4/CyLib.c ****             configRegValue |= cascadeMask;
 714:.\Generated_Source\PSoC4/CyLib.c ****             CY_SYS_WDT_CONFIG_REG = configRegValue;
 715:.\Generated_Source\PSoC4/CyLib.c ****         }
 716:.\Generated_Source\PSoC4/CyLib.c ****     }
 717:.\Generated_Source\PSoC4/CyLib.c **** 
 718:.\Generated_Source\PSoC4/CyLib.c **** 
 719:.\Generated_Source\PSoC4/CyLib.c ****     /*******************************************************************************
 720:.\Generated_Source\PSoC4/CyLib.c ****     * Function Name: CySysWdtReadCascade
ARM GAS  C:\Users\vrnk\AppData\Local\Temp\cchVr3qk.s 			page 20


 721:.\Generated_Source\PSoC4/CyLib.c ****     ********************************************************************************
 722:.\Generated_Source\PSoC4/CyLib.c ****     *
 723:.\Generated_Source\PSoC4/CyLib.c ****     * Summary:
 724:.\Generated_Source\PSoC4/CyLib.c ****     *   Reads the two WDT cascade values returning a mask of the bits set.
 725:.\Generated_Source\PSoC4/CyLib.c ****     *
 726:.\Generated_Source\PSoC4/CyLib.c ****     * Parameters:
 727:.\Generated_Source\PSoC4/CyLib.c ****     *   None
 728:.\Generated_Source\PSoC4/CyLib.c ****     *
 729:.\Generated_Source\PSoC4/CyLib.c ****     * Return:
 730:.\Generated_Source\PSoC4/CyLib.c ****     *   Mask of cascade values set.
 731:.\Generated_Source\PSoC4/CyLib.c ****     *   Define                     Cascade
 732:.\Generated_Source\PSoC4/CyLib.c ****     *   CY_SYS_WDT_CASCADE_NONE    Neither
 733:.\Generated_Source\PSoC4/CyLib.c ****     *   CY_SYS_WDT_CASCADE_01      Cascade 01
 734:.\Generated_Source\PSoC4/CyLib.c ****     *   CY_SYS_WDT_CASCADE_12      Cascade 12
 735:.\Generated_Source\PSoC4/CyLib.c ****     *
 736:.\Generated_Source\PSoC4/CyLib.c ****     *******************************************************************************/
 737:.\Generated_Source\PSoC4/CyLib.c ****     uint32 CySysWdtReadCascade(void)
 738:.\Generated_Source\PSoC4/CyLib.c ****     {
 739:.\Generated_Source\PSoC4/CyLib.c ****         return (CY_SYS_WDT_CONFIG_REG & (CY_SYS_WDT_CASCADE_01 | CY_SYS_WDT_CASCADE_12));
 740:.\Generated_Source\PSoC4/CyLib.c ****     }
 741:.\Generated_Source\PSoC4/CyLib.c **** 
 742:.\Generated_Source\PSoC4/CyLib.c **** 
 743:.\Generated_Source\PSoC4/CyLib.c ****     /*******************************************************************************
 744:.\Generated_Source\PSoC4/CyLib.c ****     * Function Name: CySysWdtWriteMatch
 745:.\Generated_Source\PSoC4/CyLib.c ****     ********************************************************************************
 746:.\Generated_Source\PSoC4/CyLib.c ****     *
 747:.\Generated_Source\PSoC4/CyLib.c ****     * Summary:
 748:.\Generated_Source\PSoC4/CyLib.c ****     *  Configures the WDT counter match comparison value.
 749:.\Generated_Source\PSoC4/CyLib.c ****     *
 750:.\Generated_Source\PSoC4/CyLib.c ****     * Parameters:
 751:.\Generated_Source\PSoC4/CyLib.c ****     *  counterNum:
 752:.\Generated_Source\PSoC4/CyLib.c ****     *   Valid range [0-1]. Number of the WDT counter. Match values are not
 753:.\Generated_Source\PSoC4/CyLib.c ****     *   supported by counter 2.
 754:.\Generated_Source\PSoC4/CyLib.c ****     *
 755:.\Generated_Source\PSoC4/CyLib.c ****     *  match:
 756:.\Generated_Source\PSoC4/CyLib.c ****     *   Valid range [0-65535]. Value to be used to match against the counter.
 757:.\Generated_Source\PSoC4/CyLib.c ****     *
 758:.\Generated_Source\PSoC4/CyLib.c ****     * Return:
 759:.\Generated_Source\PSoC4/CyLib.c ****     *   None
 760:.\Generated_Source\PSoC4/CyLib.c ****     *
 761:.\Generated_Source\PSoC4/CyLib.c ****     * Side effects:
 762:.\Generated_Source\PSoC4/CyLib.c ****     *   This API enables ILO, if it was disabled.
 763:.\Generated_Source\PSoC4/CyLib.c ****     *
 764:.\Generated_Source\PSoC4/CyLib.c ****     *******************************************************************************/
 765:.\Generated_Source\PSoC4/CyLib.c ****     void CySysWdtWriteMatch(uint32 counterNum, uint32 match)
 766:.\Generated_Source\PSoC4/CyLib.c ****     {
 767:.\Generated_Source\PSoC4/CyLib.c ****         uint32 regValue;
 768:.\Generated_Source\PSoC4/CyLib.c **** 
 769:.\Generated_Source\PSoC4/CyLib.c ****         CYASSERT((counterNum == CY_SYS_WDT_COUNTER0) ||
 770:.\Generated_Source\PSoC4/CyLib.c ****                                              (counterNum == CY_SYS_WDT_COUNTER1));
 771:.\Generated_Source\PSoC4/CyLib.c **** 
 772:.\Generated_Source\PSoC4/CyLib.c ****         /* Configuring the WDT involves passing control signals between clock domains,
 773:.\Generated_Source\PSoC4/CyLib.c ****         * which requires the ILO to be enabled.
 774:.\Generated_Source\PSoC4/CyLib.c ****         */
 775:.\Generated_Source\PSoC4/CyLib.c ****         if (0u == (CY_SYS_CLK_ILO_CONFIG_REG & CY_SYS_CLK_ILO_CONFIG_ENABLE))
 776:.\Generated_Source\PSoC4/CyLib.c ****         {
 777:.\Generated_Source\PSoC4/CyLib.c ****             CySysClkIloStart();
ARM GAS  C:\Users\vrnk\AppData\Local\Temp\cchVr3qk.s 			page 21


 778:.\Generated_Source\PSoC4/CyLib.c ****         }
 779:.\Generated_Source\PSoC4/CyLib.c **** 
 780:.\Generated_Source\PSoC4/CyLib.c ****         /* Delay ~ 3LFCK in order to male sure previos changes are applied */
 781:.\Generated_Source\PSoC4/CyLib.c ****         CyDelayUs(CY_SYS_WDT_3LFCLK_DELAY_US);
 782:.\Generated_Source\PSoC4/CyLib.c **** 
 783:.\Generated_Source\PSoC4/CyLib.c ****         regValue = CY_SYS_WDT_MATCH_REG;
 784:.\Generated_Source\PSoC4/CyLib.c ****         regValue &= (uint32)~((uint32)(CY_SYS_WDT_LOWER_16BITS_MASK << (counterNum * CY_SYS_WDT_CNT
 785:.\Generated_Source\PSoC4/CyLib.c ****         CY_SYS_WDT_MATCH_REG = (regValue | (match << (counterNum * CY_SYS_WDT_CNT_MATCH_SHIFT)));
 786:.\Generated_Source\PSoC4/CyLib.c ****     }
 787:.\Generated_Source\PSoC4/CyLib.c **** 
 788:.\Generated_Source\PSoC4/CyLib.c **** 
 789:.\Generated_Source\PSoC4/CyLib.c ****     /*******************************************************************************
 790:.\Generated_Source\PSoC4/CyLib.c ****     * Function Name: CySysWdtWriteToggleBit
 791:.\Generated_Source\PSoC4/CyLib.c ****     ********************************************************************************
 792:.\Generated_Source\PSoC4/CyLib.c ****     *
 793:.\Generated_Source\PSoC4/CyLib.c ****     * Summary:
 794:.\Generated_Source\PSoC4/CyLib.c ****     *  Configures which bit in the WDT counter 2 to monitor for a toggle.  When that
 795:.\Generated_Source\PSoC4/CyLib.c ****     *  bit toggles an interrupt is generated if the mode for counter 2 has
 796:.\Generated_Source\PSoC4/CyLib.c ****     *  interrupts enabled.
 797:.\Generated_Source\PSoC4/CyLib.c ****     *
 798:.\Generated_Source\PSoC4/CyLib.c ****     * Parameters:
 799:.\Generated_Source\PSoC4/CyLib.c ****     *  bit:
 800:.\Generated_Source\PSoC4/CyLib.c ****     *   Valid range [0-31].  Counter 2 bit to monitor for a toggle.
 801:.\Generated_Source\PSoC4/CyLib.c ****     *
 802:.\Generated_Source\PSoC4/CyLib.c ****     * Return:
 803:.\Generated_Source\PSoC4/CyLib.c ****     *   None
 804:.\Generated_Source\PSoC4/CyLib.c ****     *
 805:.\Generated_Source\PSoC4/CyLib.c ****     * Side effects:
 806:.\Generated_Source\PSoC4/CyLib.c ****     *   WDT counter 2 should be disabled. Othetwise function
 807:.\Generated_Source\PSoC4/CyLib.c ****     *   call will have no effect.
 808:.\Generated_Source\PSoC4/CyLib.c ****     *   This API enables ILO, if it was disabled.
 809:.\Generated_Source\PSoC4/CyLib.c ****     *
 810:.\Generated_Source\PSoC4/CyLib.c ****     *******************************************************************************/
 811:.\Generated_Source\PSoC4/CyLib.c ****     void CySysWdtWriteToggleBit(uint32 bits)
 812:.\Generated_Source\PSoC4/CyLib.c ****     {
 813:.\Generated_Source\PSoC4/CyLib.c ****         uint32 configRegValue;
 814:.\Generated_Source\PSoC4/CyLib.c **** 
 815:.\Generated_Source\PSoC4/CyLib.c ****         if (0u == CySysWdtReadEnabledStatus(CY_SYS_WDT_COUNTER2))
 816:.\Generated_Source\PSoC4/CyLib.c ****         {
 817:.\Generated_Source\PSoC4/CyLib.c ****             /* Configuring the WDT involves passing control signals between clock domains,
 818:.\Generated_Source\PSoC4/CyLib.c ****             * which requires the ILO to be enabled.
 819:.\Generated_Source\PSoC4/CyLib.c ****             */
 820:.\Generated_Source\PSoC4/CyLib.c ****             if (0u == (CY_SYS_CLK_ILO_CONFIG_REG & CY_SYS_CLK_ILO_CONFIG_ENABLE))
 821:.\Generated_Source\PSoC4/CyLib.c ****             {
 822:.\Generated_Source\PSoC4/CyLib.c ****                 CySysClkIloStart();
 823:.\Generated_Source\PSoC4/CyLib.c ****             }
 824:.\Generated_Source\PSoC4/CyLib.c **** 
 825:.\Generated_Source\PSoC4/CyLib.c ****             configRegValue = CY_SYS_WDT_CONFIG_REG;
 826:.\Generated_Source\PSoC4/CyLib.c ****             configRegValue &= (uint32)(~((uint32)(CY_SYS_WDT_CONFIG_BITS2_MASK << CY_SYS_WDT_CONFIG
 827:.\Generated_Source\PSoC4/CyLib.c ****             configRegValue |= ((bits & CY_SYS_WDT_CONFIG_BITS2_MASK) << CY_SYS_WDT_CONFIG_BITS2_POS
 828:.\Generated_Source\PSoC4/CyLib.c ****             CY_SYS_WDT_CONFIG_REG = configRegValue;
 829:.\Generated_Source\PSoC4/CyLib.c ****         }
 830:.\Generated_Source\PSoC4/CyLib.c ****     }
 831:.\Generated_Source\PSoC4/CyLib.c **** 
 832:.\Generated_Source\PSoC4/CyLib.c **** 
 833:.\Generated_Source\PSoC4/CyLib.c ****     /*******************************************************************************
 834:.\Generated_Source\PSoC4/CyLib.c ****     * Function Name: CySysWdtReadToggleBit
ARM GAS  C:\Users\vrnk\AppData\Local\Temp\cchVr3qk.s 			page 22


 835:.\Generated_Source\PSoC4/CyLib.c ****     ********************************************************************************
 836:.\Generated_Source\PSoC4/CyLib.c ****     *
 837:.\Generated_Source\PSoC4/CyLib.c ****     * Summary:
 838:.\Generated_Source\PSoC4/CyLib.c ****     *  Reads which bit in the WDT counter 2 is monitored for a toggle.
 839:.\Generated_Source\PSoC4/CyLib.c ****     *
 840:.\Generated_Source\PSoC4/CyLib.c ****     * Parameters:
 841:.\Generated_Source\PSoC4/CyLib.c ****     *  None
 842:.\Generated_Source\PSoC4/CyLib.c ****     *
 843:.\Generated_Source\PSoC4/CyLib.c ****     * Return:
 844:.\Generated_Source\PSoC4/CyLib.c ****     *  Bit that is monitored (range of 0 to 31)
 845:.\Generated_Source\PSoC4/CyLib.c ****     *
 846:.\Generated_Source\PSoC4/CyLib.c ****     *******************************************************************************/
 847:.\Generated_Source\PSoC4/CyLib.c ****     uint32 CySysWdtReadToggleBit(void)
 848:.\Generated_Source\PSoC4/CyLib.c ****     {
 849:.\Generated_Source\PSoC4/CyLib.c ****         return ((CY_SYS_WDT_CONFIG_REG >> CY_SYS_WDT_CONFIG_BITS2_POS) & CY_SYS_WDT_CONFIG_BITS2_MA
 850:.\Generated_Source\PSoC4/CyLib.c ****     }
 851:.\Generated_Source\PSoC4/CyLib.c **** 
 852:.\Generated_Source\PSoC4/CyLib.c **** 
 853:.\Generated_Source\PSoC4/CyLib.c ****     /*******************************************************************************
 854:.\Generated_Source\PSoC4/CyLib.c ****     * Function Name: CySysWdtReadMatch
 855:.\Generated_Source\PSoC4/CyLib.c ****     ********************************************************************************
 856:.\Generated_Source\PSoC4/CyLib.c ****     *
 857:.\Generated_Source\PSoC4/CyLib.c ****     * Summary:
 858:.\Generated_Source\PSoC4/CyLib.c ****     *  Reads the WDT counter match comparison value.
 859:.\Generated_Source\PSoC4/CyLib.c ****     *
 860:.\Generated_Source\PSoC4/CyLib.c ****     * Parameters:
 861:.\Generated_Source\PSoC4/CyLib.c ****     *  counterNum: Valid range [0-1].  Number of the WDT counter.  Match values
 862:.\Generated_Source\PSoC4/CyLib.c ****     *               are not supported by counter 2.
 863:.\Generated_Source\PSoC4/CyLib.c ****     *
 864:.\Generated_Source\PSoC4/CyLib.c ****     * Return:
 865:.\Generated_Source\PSoC4/CyLib.c ****     *  Counter match value
 866:.\Generated_Source\PSoC4/CyLib.c ****     *
 867:.\Generated_Source\PSoC4/CyLib.c ****     *******************************************************************************/
 868:.\Generated_Source\PSoC4/CyLib.c ****     uint32 CySysWdtReadMatch(uint32 counterNum)
 869:.\Generated_Source\PSoC4/CyLib.c ****     {
 870:.\Generated_Source\PSoC4/CyLib.c ****         CYASSERT((counterNum == CY_SYS_WDT_COUNTER0) ||
 871:.\Generated_Source\PSoC4/CyLib.c ****                                              (counterNum == CY_SYS_WDT_COUNTER1));
 872:.\Generated_Source\PSoC4/CyLib.c ****         return ((uint32)(CY_SYS_WDT_MATCH_REG >> (counterNum * CY_SYS_WDT_CNT_MATCH_SHIFT)) & CY_SY
 873:.\Generated_Source\PSoC4/CyLib.c ****     }
 874:.\Generated_Source\PSoC4/CyLib.c **** 
 875:.\Generated_Source\PSoC4/CyLib.c **** 
 876:.\Generated_Source\PSoC4/CyLib.c ****     /*******************************************************************************
 877:.\Generated_Source\PSoC4/CyLib.c ****     * Function Name: CySysWdtReadCount
 878:.\Generated_Source\PSoC4/CyLib.c ****     ********************************************************************************
 879:.\Generated_Source\PSoC4/CyLib.c ****     *
 880:.\Generated_Source\PSoC4/CyLib.c ****     * Summary:
 881:.\Generated_Source\PSoC4/CyLib.c ****     *  Reads the current WDT counter value.
 882:.\Generated_Source\PSoC4/CyLib.c ****     *
 883:.\Generated_Source\PSoC4/CyLib.c ****     * Parameters:
 884:.\Generated_Source\PSoC4/CyLib.c ****     *  counterNum: Valid range [0-2].  Number of the WDT counter.
 885:.\Generated_Source\PSoC4/CyLib.c ****     *
 886:.\Generated_Source\PSoC4/CyLib.c ****     * Return:
 887:.\Generated_Source\PSoC4/CyLib.c ****     *  Live counter value.  Counter 0 and 1 are 16 bit counters and counter
 888:.\Generated_Source\PSoC4/CyLib.c ****     *  2 is a 32 bit counter.
 889:.\Generated_Source\PSoC4/CyLib.c ****     *
 890:.\Generated_Source\PSoC4/CyLib.c ****     *******************************************************************************/
 891:.\Generated_Source\PSoC4/CyLib.c ****     uint32 CySysWdtReadCount(uint32 counterNum)
ARM GAS  C:\Users\vrnk\AppData\Local\Temp\cchVr3qk.s 			page 23


 892:.\Generated_Source\PSoC4/CyLib.c ****     {
 893:.\Generated_Source\PSoC4/CyLib.c ****         uint32 regValue = 0u;
 894:.\Generated_Source\PSoC4/CyLib.c **** 
 895:.\Generated_Source\PSoC4/CyLib.c ****         switch(counterNum)
 896:.\Generated_Source\PSoC4/CyLib.c ****         {
 897:.\Generated_Source\PSoC4/CyLib.c ****             /* WDT Counter 0 */
 898:.\Generated_Source\PSoC4/CyLib.c ****             case 0u:
 899:.\Generated_Source\PSoC4/CyLib.c ****                 regValue = CY_SYS_WDT_CTRLOW_REG & CY_SYS_WDT_LOWER_16BITS_MASK;
 900:.\Generated_Source\PSoC4/CyLib.c ****             break;
 901:.\Generated_Source\PSoC4/CyLib.c **** 
 902:.\Generated_Source\PSoC4/CyLib.c ****             /* WDT Counter 1 */
 903:.\Generated_Source\PSoC4/CyLib.c ****             case 1u:
 904:.\Generated_Source\PSoC4/CyLib.c ****                 regValue = (CY_SYS_WDT_CTRLOW_REG >> CY_SYS_WDT_CNT_MATCH_SHIFT) & CY_SYS_WDT_LOWER
 905:.\Generated_Source\PSoC4/CyLib.c ****             break;
 906:.\Generated_Source\PSoC4/CyLib.c **** 
 907:.\Generated_Source\PSoC4/CyLib.c ****             /* WDT Counter 2 */
 908:.\Generated_Source\PSoC4/CyLib.c ****             case 2u:
 909:.\Generated_Source\PSoC4/CyLib.c ****                 regValue = CY_SYS_WDT_CTRHIGH_REG;
 910:.\Generated_Source\PSoC4/CyLib.c ****             break;
 911:.\Generated_Source\PSoC4/CyLib.c **** 
 912:.\Generated_Source\PSoC4/CyLib.c ****             default:
 913:.\Generated_Source\PSoC4/CyLib.c ****                 CYASSERT(0u != 0u);
 914:.\Generated_Source\PSoC4/CyLib.c ****             break;
 915:.\Generated_Source\PSoC4/CyLib.c ****         }
 916:.\Generated_Source\PSoC4/CyLib.c **** 
 917:.\Generated_Source\PSoC4/CyLib.c ****         return (regValue);
 918:.\Generated_Source\PSoC4/CyLib.c ****     }
 919:.\Generated_Source\PSoC4/CyLib.c **** 
 920:.\Generated_Source\PSoC4/CyLib.c **** 
 921:.\Generated_Source\PSoC4/CyLib.c ****     /*******************************************************************************
 922:.\Generated_Source\PSoC4/CyLib.c ****     * Function Name: CySysWdtGetInterruptSource
 923:.\Generated_Source\PSoC4/CyLib.c ****     ********************************************************************************
 924:.\Generated_Source\PSoC4/CyLib.c ****     *
 925:.\Generated_Source\PSoC4/CyLib.c ****     * Summary:
 926:.\Generated_Source\PSoC4/CyLib.c ****     *   Reads a mask containing all the WDT counters interrupts that are currently
 927:.\Generated_Source\PSoC4/CyLib.c ****     *   set by hardware, if corresponding mode is selected.
 928:.\Generated_Source\PSoC4/CyLib.c ****     *
 929:.\Generated_Source\PSoC4/CyLib.c ****     * Parameters:
 930:.\Generated_Source\PSoC4/CyLib.c ****     *   None
 931:.\Generated_Source\PSoC4/CyLib.c ****     *
 932:.\Generated_Source\PSoC4/CyLib.c ****     * Return:
 933:.\Generated_Source\PSoC4/CyLib.c ****     *   Mask of interrupts set.
 934:.\Generated_Source\PSoC4/CyLib.c ****     *   Define                    Counter
 935:.\Generated_Source\PSoC4/CyLib.c ****     *   CY_SYS_WDT_COUNTER0_INT    0
 936:.\Generated_Source\PSoC4/CyLib.c ****     *   CY_SYS_WDT_COUNTER1_INT    1
 937:.\Generated_Source\PSoC4/CyLib.c ****     *   CY_SYS_WDT_COUNTER2_INT    2
 938:.\Generated_Source\PSoC4/CyLib.c ****     *
 939:.\Generated_Source\PSoC4/CyLib.c ****     *******************************************************************************/
 940:.\Generated_Source\PSoC4/CyLib.c ****     uint32 CySysWdtGetInterruptSource(void)
 941:.\Generated_Source\PSoC4/CyLib.c ****     {
 942:.\Generated_Source\PSoC4/CyLib.c ****         return (CY_SYS_WDT_CONTROL_REG & (CY_SYS_WDT_COUNTER0_INT | CY_SYS_WDT_COUNTER1_INT | CY_SY
 943:.\Generated_Source\PSoC4/CyLib.c ****     }
 944:.\Generated_Source\PSoC4/CyLib.c **** 
 945:.\Generated_Source\PSoC4/CyLib.c **** 
 946:.\Generated_Source\PSoC4/CyLib.c ****     /*******************************************************************************
 947:.\Generated_Source\PSoC4/CyLib.c ****     * Function Name: CySysWdtClearInterrupt
 948:.\Generated_Source\PSoC4/CyLib.c ****     ********************************************************************************
ARM GAS  C:\Users\vrnk\AppData\Local\Temp\cchVr3qk.s 			page 24


 949:.\Generated_Source\PSoC4/CyLib.c ****     *
 950:.\Generated_Source\PSoC4/CyLib.c ****     * Summary:
 951:.\Generated_Source\PSoC4/CyLib.c ****     *   Clears all WDT counter interrupts set in the mask. Calling this API also
 952:.\Generated_Source\PSoC4/CyLib.c ****     *   prevents Reset from happening when counter mode is set to generate
 953:.\Generated_Source\PSoC4/CyLib.c ****     *   3 interrupts and then reset device.
 954:.\Generated_Source\PSoC4/CyLib.c ****     *   All WDT interrupts are to be cleared by firmware, otherwise interrupts will
 955:.\Generated_Source\PSoC4/CyLib.c ****     *   be generated continuously.
 956:.\Generated_Source\PSoC4/CyLib.c ****     *
 957:.\Generated_Source\PSoC4/CyLib.c ****     * Parameters:
 958:.\Generated_Source\PSoC4/CyLib.c ****     *   counterMask: Mask of all counters to enable
 959:.\Generated_Source\PSoC4/CyLib.c ****     *   Define                    Counter
 960:.\Generated_Source\PSoC4/CyLib.c ****     *   CY_SYS_WDT_COUNTER0_INT    0
 961:.\Generated_Source\PSoC4/CyLib.c ****     *   CY_SYS_WDT_COUNTER1_INT    1
 962:.\Generated_Source\PSoC4/CyLib.c ****     *   CY_SYS_WDT_COUNTER2_INT    2
 963:.\Generated_Source\PSoC4/CyLib.c ****     *
 964:.\Generated_Source\PSoC4/CyLib.c ****     * Return:
 965:.\Generated_Source\PSoC4/CyLib.c ****     *   None
 966:.\Generated_Source\PSoC4/CyLib.c ****     *
 967:.\Generated_Source\PSoC4/CyLib.c ****     * Side effects:
 968:.\Generated_Source\PSoC4/CyLib.c ****     *   This API enables ILO, if it was disabled and temporary removes Watchdog
 969:.\Generated_Source\PSoC4/CyLib.c ****     *   lock, if it was set, and restores lock state, after cleaning WDT interrupts,
 970:.\Generated_Source\PSoC4/CyLib.c ****     *   that are set in mask.
 971:.\Generated_Source\PSoC4/CyLib.c ****     *
 972:.\Generated_Source\PSoC4/CyLib.c ****     *******************************************************************************/
 973:.\Generated_Source\PSoC4/CyLib.c ****     void CySysWdtClearInterrupt(uint32 counterMask)
 974:.\Generated_Source\PSoC4/CyLib.c ****     {
 975:.\Generated_Source\PSoC4/CyLib.c ****         uint8 interruptState;
 976:.\Generated_Source\PSoC4/CyLib.c ****         uint32 wdtLockState;
 977:.\Generated_Source\PSoC4/CyLib.c **** 
 978:.\Generated_Source\PSoC4/CyLib.c ****         interruptState = CyEnterCriticalSection();
 979:.\Generated_Source\PSoC4/CyLib.c **** 
 980:.\Generated_Source\PSoC4/CyLib.c ****         /* Configuring the WDT involves passing control signals between clock domains,
 981:.\Generated_Source\PSoC4/CyLib.c ****         * which requires the ILO to be enabled.
 982:.\Generated_Source\PSoC4/CyLib.c ****         */
 983:.\Generated_Source\PSoC4/CyLib.c ****         if (0u == (CY_SYS_CLK_ILO_CONFIG_REG & CY_SYS_CLK_ILO_CONFIG_ENABLE))
 984:.\Generated_Source\PSoC4/CyLib.c ****         {
 985:.\Generated_Source\PSoC4/CyLib.c ****             CySysClkIloStart();
 986:.\Generated_Source\PSoC4/CyLib.c ****         }
 987:.\Generated_Source\PSoC4/CyLib.c **** 
 988:.\Generated_Source\PSoC4/CyLib.c ****         if ((CY_SYS_CLK_SELECT_REG & (uint32)(CY_SYS_WDT_CLK_LOCK_BITS_MASK)) == CY_SYS_WDT_CLK_LOC
 989:.\Generated_Source\PSoC4/CyLib.c ****         {
 990:.\Generated_Source\PSoC4/CyLib.c ****             wdtLockState = 1u;
 991:.\Generated_Source\PSoC4/CyLib.c **** 
 992:.\Generated_Source\PSoC4/CyLib.c ****             /* Removing WDT lock requires two writes */
 993:.\Generated_Source\PSoC4/CyLib.c ****             CY_SYS_CLK_SELECT_REG = ((CY_SYS_CLK_SELECT_REG & (uint32)(~CY_SYS_WDT_CLK_LOCK_BITS_MA
 994:.\Generated_Source\PSoC4/CyLib.c ****                     CY_SYS_WDT_CLK_LOCK_BIT0);
 995:.\Generated_Source\PSoC4/CyLib.c **** 
 996:.\Generated_Source\PSoC4/CyLib.c ****             CY_SYS_CLK_SELECT_REG = ((CY_SYS_CLK_SELECT_REG & (uint32)(~CY_SYS_WDT_CLK_LOCK_BITS_MA
 997:.\Generated_Source\PSoC4/CyLib.c ****                     CY_SYS_WDT_CLK_LOCK_BIT1);
 998:.\Generated_Source\PSoC4/CyLib.c ****         }
 999:.\Generated_Source\PSoC4/CyLib.c ****         else
1000:.\Generated_Source\PSoC4/CyLib.c ****         {
1001:.\Generated_Source\PSoC4/CyLib.c ****             wdtLockState = 0u;
1002:.\Generated_Source\PSoC4/CyLib.c ****         }
1003:.\Generated_Source\PSoC4/CyLib.c **** 
1004:.\Generated_Source\PSoC4/CyLib.c ****         /* Set the new WDT control register value */
1005:.\Generated_Source\PSoC4/CyLib.c ****         CY_SYS_WDT_CONTROL_REG |= (counterMask & (CY_SYS_WDT_COUNTER0_INT |
ARM GAS  C:\Users\vrnk\AppData\Local\Temp\cchVr3qk.s 			page 25


1006:.\Generated_Source\PSoC4/CyLib.c ****             CY_SYS_WDT_COUNTER1_INT | CY_SYS_WDT_COUNTER2_INT));
1007:.\Generated_Source\PSoC4/CyLib.c **** 
1008:.\Generated_Source\PSoC4/CyLib.c ****         if (1u == wdtLockState)
1009:.\Generated_Source\PSoC4/CyLib.c ****         {
1010:.\Generated_Source\PSoC4/CyLib.c ****             /* CLK_SELECT register's bits 15:14 are WDT_LOCK */
1011:.\Generated_Source\PSoC4/CyLib.c ****             CY_SYS_CLK_SELECT_REG = (CY_SYS_CLK_SELECT_REG & (uint32)(~CY_SYS_WDT_CLK_LOCK_BITS_MAS
1012:.\Generated_Source\PSoC4/CyLib.c ****                      CY_SYS_WDT_CLK_LOCK_BITS_MASK;
1013:.\Generated_Source\PSoC4/CyLib.c ****         }
1014:.\Generated_Source\PSoC4/CyLib.c **** 
1015:.\Generated_Source\PSoC4/CyLib.c ****         CyExitCriticalSection(interruptState);
1016:.\Generated_Source\PSoC4/CyLib.c ****     }
1017:.\Generated_Source\PSoC4/CyLib.c **** 
1018:.\Generated_Source\PSoC4/CyLib.c **** 
1019:.\Generated_Source\PSoC4/CyLib.c ****     /*******************************************************************************
1020:.\Generated_Source\PSoC4/CyLib.c ****     * Function Name: CySysWdtResetCounters
1021:.\Generated_Source\PSoC4/CyLib.c ****     ********************************************************************************
1022:.\Generated_Source\PSoC4/CyLib.c ****     *
1023:.\Generated_Source\PSoC4/CyLib.c ****     * Summary:
1024:.\Generated_Source\PSoC4/CyLib.c ****     *  Resets all WDT counters set in the mask.
1025:.\Generated_Source\PSoC4/CyLib.c ****     *
1026:.\Generated_Source\PSoC4/CyLib.c ****     * Parameters:
1027:.\Generated_Source\PSoC4/CyLib.c ****     *  counterMask: Mask of all counters to reset.
1028:.\Generated_Source\PSoC4/CyLib.c ****     *   Define                       Counter
1029:.\Generated_Source\PSoC4/CyLib.c ****     *   CY_SYS_WDT_COUNTER0_RESET    0
1030:.\Generated_Source\PSoC4/CyLib.c ****     *   CY_SYS_WDT_COUNTER1_RESET    1
1031:.\Generated_Source\PSoC4/CyLib.c ****     *   CY_SYS_WDT_COUNTER2_RESET    2
1032:.\Generated_Source\PSoC4/CyLib.c ****     *
1033:.\Generated_Source\PSoC4/CyLib.c ****     * Return:
1034:.\Generated_Source\PSoC4/CyLib.c ****     *   None
1035:.\Generated_Source\PSoC4/CyLib.c ****     *
1036:.\Generated_Source\PSoC4/CyLib.c ****     * Side effects:
1037:.\Generated_Source\PSoC4/CyLib.c ****     *   This API enables ILO, if it was disabled, this API call will not reset
1038:.\Generated_Source\PSoC4/CyLib.c ****     *   counter values, if Watchdog is locked.
1039:.\Generated_Source\PSoC4/CyLib.c ****     *
1040:.\Generated_Source\PSoC4/CyLib.c ****     *******************************************************************************/
1041:.\Generated_Source\PSoC4/CyLib.c ****     void CySysWdtResetCounters(uint32 countersMask)
1042:.\Generated_Source\PSoC4/CyLib.c ****     {
1043:.\Generated_Source\PSoC4/CyLib.c ****         /* Configuring the WDT involves passing control signals between clock domains,
1044:.\Generated_Source\PSoC4/CyLib.c ****         * which requires the ILO to be enabled.
1045:.\Generated_Source\PSoC4/CyLib.c ****         */
1046:.\Generated_Source\PSoC4/CyLib.c ****         if (0u == (CY_SYS_CLK_ILO_CONFIG_REG & CY_SYS_CLK_ILO_CONFIG_ENABLE))
1047:.\Generated_Source\PSoC4/CyLib.c ****         {
1048:.\Generated_Source\PSoC4/CyLib.c ****             CySysClkIloStart();
1049:.\Generated_Source\PSoC4/CyLib.c ****         }
1050:.\Generated_Source\PSoC4/CyLib.c **** 
1051:.\Generated_Source\PSoC4/CyLib.c ****         /* Set the new WDT reset value */
1052:.\Generated_Source\PSoC4/CyLib.c ****         CY_SYS_WDT_CONTROL_REG |= (countersMask & (CY_SYS_WDT_COUNTER0_RESET |
1053:.\Generated_Source\PSoC4/CyLib.c ****             CY_SYS_WDT_COUNTER1_RESET | CY_SYS_WDT_COUNTER2_RESET));
1054:.\Generated_Source\PSoC4/CyLib.c ****     }
1055:.\Generated_Source\PSoC4/CyLib.c **** 
1056:.\Generated_Source\PSoC4/CyLib.c **** #else
1057:.\Generated_Source\PSoC4/CyLib.c **** 
1058:.\Generated_Source\PSoC4/CyLib.c ****     /*******************************************************************************
1059:.\Generated_Source\PSoC4/CyLib.c ****     * Function Name: CySysClkWriteImoFreq
1060:.\Generated_Source\PSoC4/CyLib.c ****     ********************************************************************************
1061:.\Generated_Source\PSoC4/CyLib.c ****     *
1062:.\Generated_Source\PSoC4/CyLib.c ****     * Summary:
ARM GAS  C:\Users\vrnk\AppData\Local\Temp\cchVr3qk.s 			page 26


1063:.\Generated_Source\PSoC4/CyLib.c ****     *  Sets the frequency of the IMO.
1064:.\Generated_Source\PSoC4/CyLib.c ****     *
1065:.\Generated_Source\PSoC4/CyLib.c ****     * Parameters:
1066:.\Generated_Source\PSoC4/CyLib.c ****     *  freq: Valid range [24-48] with step size equal to 4.
1067:.\Generated_Source\PSoC4/CyLib.c ****     *        Frequency for operation of the IMO.
1068:.\Generated_Source\PSoC4/CyLib.c ****     *  Note: Invalid frequency will be ignored.
1069:.\Generated_Source\PSoC4/CyLib.c ****     *
1070:.\Generated_Source\PSoC4/CyLib.c ****     * Return:
1071:.\Generated_Source\PSoC4/CyLib.c ****     *  None
1072:.\Generated_Source\PSoC4/CyLib.c ****     *
1073:.\Generated_Source\PSoC4/CyLib.c ****     * Side Effects:
1074:.\Generated_Source\PSoC4/CyLib.c ****     *  If the SYSCLK clock frequency increases during device operation, call
1075:.\Generated_Source\PSoC4/CyLib.c ****     *  CySysFlashSetWaitCycles() with the appropriate parameter to adjust the number
1076:.\Generated_Source\PSoC4/CyLib.c ****     *  of clock cycles cache will wait before sampling data coming back from Flash.
1077:.\Generated_Source\PSoC4/CyLib.c ****     *  If the SYSCLK clock frequency decreases, you can call CyFlash_SetWaitCycles()
1078:.\Generated_Source\PSoC4/CyLib.c ****     *  to improve CPU performance. See CySysFlashSetWaitCycles() for more
1079:.\Generated_Source\PSoC4/CyLib.c ****     *  information.
1080:.\Generated_Source\PSoC4/CyLib.c ****     *
1081:.\Generated_Source\PSoC4/CyLib.c ****     *******************************************************************************/
1082:.\Generated_Source\PSoC4/CyLib.c ****     void CySysClkWriteImoFreq(uint32 freq)
1083:.\Generated_Source\PSoC4/CyLib.c ****     {
1084:.\Generated_Source\PSoC4/CyLib.c ****         uint8  interruptState;
1085:.\Generated_Source\PSoC4/CyLib.c **** 
1086:.\Generated_Source\PSoC4/CyLib.c ****         /* IMO frequency constrained to 24MHz-48MHz */
1087:.\Generated_Source\PSoC4/CyLib.c ****         if ((freq >= CY_SYS_CLK_IMO_MIN_FREQ_MHZ) &&
1088:.\Generated_Source\PSoC4/CyLib.c ****             (freq <= CY_SYS_CLK_IMO_MAX_FREQ_MHZ) &&
1089:.\Generated_Source\PSoC4/CyLib.c ****             ((freq & 3u) == 0u))
1090:.\Generated_Source\PSoC4/CyLib.c ****         {
1091:.\Generated_Source\PSoC4/CyLib.c ****             interruptState = CyEnterCriticalSection();
1092:.\Generated_Source\PSoC4/CyLib.c **** 
1093:.\Generated_Source\PSoC4/CyLib.c ****             CY_SYS_CLK_IMO_TRIM1_REG = 0u;
1094:.\Generated_Source\PSoC4/CyLib.c ****             CY_SYS_CLK_IMO_TRIM2_REG = 0u;
1095:.\Generated_Source\PSoC4/CyLib.c ****             CY_SYS_CLK_IMO_SELECT_REG = (freq - CY_SYS_CLK_IMO_MIN_FREQ_MHZ) >> 2u;
1096:.\Generated_Source\PSoC4/CyLib.c ****             CY_SYS_CLK_IMO_TRIM3_REG = CY_SFLASH_IMO_TCTRIM_REG(freq - CY_SYS_CLK_IMO_MIN_FREQ_MHZ)
1097:.\Generated_Source\PSoC4/CyLib.c ****             CY_SYS_CLK_IMO_TRIM1_REG = CY_SFLASH_IMO_TRIM_REG(freq - CY_SYS_CLK_IMO_MIN_FREQ_MHZ);
1098:.\Generated_Source\PSoC4/CyLib.c **** 
1099:.\Generated_Source\PSoC4/CyLib.c ****             CyExitCriticalSection(interruptState);
1100:.\Generated_Source\PSoC4/CyLib.c ****         }
1101:.\Generated_Source\PSoC4/CyLib.c ****         else
1102:.\Generated_Source\PSoC4/CyLib.c ****         {
1103:.\Generated_Source\PSoC4/CyLib.c ****             /* Halt CPU in debug mode if new frequency is invalid */
1104:.\Generated_Source\PSoC4/CyLib.c ****             CYASSERT(0u != 0u);
1105:.\Generated_Source\PSoC4/CyLib.c ****         }
1106:.\Generated_Source\PSoC4/CyLib.c ****     }
1107:.\Generated_Source\PSoC4/CyLib.c **** 
1108:.\Generated_Source\PSoC4/CyLib.c **** 
1109:.\Generated_Source\PSoC4/CyLib.c ****     /*******************************************************************************
1110:.\Generated_Source\PSoC4/CyLib.c ****     * Function Name: CySysWdtReadEnabledStatus
1111:.\Generated_Source\PSoC4/CyLib.c ****     ********************************************************************************
1112:.\Generated_Source\PSoC4/CyLib.c ****     *
1113:.\Generated_Source\PSoC4/CyLib.c ****     * Summary:
1114:.\Generated_Source\PSoC4/CyLib.c ****     *  Reads the enabled staus WDT counter.
1115:.\Generated_Source\PSoC4/CyLib.c ****     *
1116:.\Generated_Source\PSoC4/CyLib.c ****     * Parameters:
1117:.\Generated_Source\PSoC4/CyLib.c ****     *  None
1118:.\Generated_Source\PSoC4/CyLib.c ****     *
1119:.\Generated_Source\PSoC4/CyLib.c ****     * Return:
ARM GAS  C:\Users\vrnk\AppData\Local\Temp\cchVr3qk.s 			page 27


1120:.\Generated_Source\PSoC4/CyLib.c ****     *  Status of WDT counter:
1121:.\Generated_Source\PSoC4/CyLib.c ****     *   0 - counter is disabled
1122:.\Generated_Source\PSoC4/CyLib.c ****     *   1 - counter is enabled
1123:.\Generated_Source\PSoC4/CyLib.c ****     *
1124:.\Generated_Source\PSoC4/CyLib.c ****     * Side Effects:
1125:.\Generated_Source\PSoC4/CyLib.c ****     *  None
1126:.\Generated_Source\PSoC4/CyLib.c ****     *
1127:.\Generated_Source\PSoC4/CyLib.c ****     *******************************************************************************/
1128:.\Generated_Source\PSoC4/CyLib.c ****     uint32 CySysWdtReadEnabledStatus(void)
1129:.\Generated_Source\PSoC4/CyLib.c ****     {
1130:.\Generated_Source\PSoC4/CyLib.c ****         return ((CY_SYS_WDT_DISABLE_KEY_REG == CY_SYS_WDT_KEY) ? 0u : 1u);
1131:.\Generated_Source\PSoC4/CyLib.c ****     }
1132:.\Generated_Source\PSoC4/CyLib.c **** 
1133:.\Generated_Source\PSoC4/CyLib.c **** 
1134:.\Generated_Source\PSoC4/CyLib.c ****     /*******************************************************************************
1135:.\Generated_Source\PSoC4/CyLib.c ****     * Function Name: CySysWdtEnable
1136:.\Generated_Source\PSoC4/CyLib.c ****     ********************************************************************************
1137:.\Generated_Source\PSoC4/CyLib.c ****     *
1138:.\Generated_Source\PSoC4/CyLib.c ****     * Summary:
1139:.\Generated_Source\PSoC4/CyLib.c ****     *  Enables the WDT counter.
1140:.\Generated_Source\PSoC4/CyLib.c ****     *
1141:.\Generated_Source\PSoC4/CyLib.c ****     * Parameters:
1142:.\Generated_Source\PSoC4/CyLib.c ****     *  None
1143:.\Generated_Source\PSoC4/CyLib.c ****     *
1144:.\Generated_Source\PSoC4/CyLib.c ****     * Return:
1145:.\Generated_Source\PSoC4/CyLib.c ****     *  None
1146:.\Generated_Source\PSoC4/CyLib.c ****     *
1147:.\Generated_Source\PSoC4/CyLib.c ****     * Side Effects:
1148:.\Generated_Source\PSoC4/CyLib.c ****     *  This API enables ILO, if it was disabled.
1149:.\Generated_Source\PSoC4/CyLib.c ****     *
1150:.\Generated_Source\PSoC4/CyLib.c ****     *******************************************************************************/
1151:.\Generated_Source\PSoC4/CyLib.c ****     void CySysWdtEnable(void)
1152:.\Generated_Source\PSoC4/CyLib.c ****     {
1153:.\Generated_Source\PSoC4/CyLib.c ****         /* Configuring the WDT involves passing control signals between clock domains,
1154:.\Generated_Source\PSoC4/CyLib.c ****         * which requires the ILO to be enabled.
1155:.\Generated_Source\PSoC4/CyLib.c ****         */
1156:.\Generated_Source\PSoC4/CyLib.c ****         if (0u == (CY_SYS_CLK_ILO_CONFIG_REG & CY_SYS_CLK_ILO_CONFIG_ENABLE))
1157:.\Generated_Source\PSoC4/CyLib.c ****         {
1158:.\Generated_Source\PSoC4/CyLib.c ****             CySysClkIloStart();
1159:.\Generated_Source\PSoC4/CyLib.c ****         }
1160:.\Generated_Source\PSoC4/CyLib.c **** 
1161:.\Generated_Source\PSoC4/CyLib.c ****         CY_SYS_WDT_DISABLE_KEY_REG = 0u;
1162:.\Generated_Source\PSoC4/CyLib.c ****     }
1163:.\Generated_Source\PSoC4/CyLib.c **** 
1164:.\Generated_Source\PSoC4/CyLib.c **** 
1165:.\Generated_Source\PSoC4/CyLib.c ****     /*******************************************************************************
1166:.\Generated_Source\PSoC4/CyLib.c ****     * Function Name: CySysWdtDisable
1167:.\Generated_Source\PSoC4/CyLib.c ****     ********************************************************************************
1168:.\Generated_Source\PSoC4/CyLib.c ****     *
1169:.\Generated_Source\PSoC4/CyLib.c ****     * Summary:
1170:.\Generated_Source\PSoC4/CyLib.c ****     *  Disables the WDT counter.
1171:.\Generated_Source\PSoC4/CyLib.c ****     *
1172:.\Generated_Source\PSoC4/CyLib.c ****     * Parameters:
1173:.\Generated_Source\PSoC4/CyLib.c ****     *  None
1174:.\Generated_Source\PSoC4/CyLib.c ****     *
1175:.\Generated_Source\PSoC4/CyLib.c ****     * Return:
1176:.\Generated_Source\PSoC4/CyLib.c ****     *  None
ARM GAS  C:\Users\vrnk\AppData\Local\Temp\cchVr3qk.s 			page 28


1177:.\Generated_Source\PSoC4/CyLib.c ****     *
1178:.\Generated_Source\PSoC4/CyLib.c ****     * Side Effects:
1179:.\Generated_Source\PSoC4/CyLib.c ****     *  In order to disable ILO clock WDT counter should be disabled.
1180:.\Generated_Source\PSoC4/CyLib.c ****     *
1181:.\Generated_Source\PSoC4/CyLib.c ****     *******************************************************************************/
1182:.\Generated_Source\PSoC4/CyLib.c ****     void CySysWdtDisable(void)
1183:.\Generated_Source\PSoC4/CyLib.c ****     {
1184:.\Generated_Source\PSoC4/CyLib.c ****         CY_SYS_WDT_DISABLE_KEY_REG = CY_SYS_WDT_KEY;
1185:.\Generated_Source\PSoC4/CyLib.c ****     }
1186:.\Generated_Source\PSoC4/CyLib.c **** 
1187:.\Generated_Source\PSoC4/CyLib.c **** 
1188:.\Generated_Source\PSoC4/CyLib.c ****     /*******************************************************************************
1189:.\Generated_Source\PSoC4/CyLib.c ****     * Function Name: CySysWdtWriteMatch
1190:.\Generated_Source\PSoC4/CyLib.c ****     ********************************************************************************
1191:.\Generated_Source\PSoC4/CyLib.c ****     *
1192:.\Generated_Source\PSoC4/CyLib.c ****     * Summary:
1193:.\Generated_Source\PSoC4/CyLib.c ****     *  Configures the WDT counter match comparison value.
1194:.\Generated_Source\PSoC4/CyLib.c ****     *
1195:.\Generated_Source\PSoC4/CyLib.c ****     * Parameters:
1196:.\Generated_Source\PSoC4/CyLib.c ****     *  match:
1197:.\Generated_Source\PSoC4/CyLib.c ****     *   Valid range [0-65535]. Value to be used to match against the counter.
1198:.\Generated_Source\PSoC4/CyLib.c ****     *
1199:.\Generated_Source\PSoC4/CyLib.c ****     * Return:
1200:.\Generated_Source\PSoC4/CyLib.c ****     *  None
1201:.\Generated_Source\PSoC4/CyLib.c ****     *
1202:.\Generated_Source\PSoC4/CyLib.c ****     * Side Effects:
1203:.\Generated_Source\PSoC4/CyLib.c ****     *  This API enables ILO, if it was disabled.
1204:.\Generated_Source\PSoC4/CyLib.c ****     *
1205:.\Generated_Source\PSoC4/CyLib.c ****     *******************************************************************************/
1206:.\Generated_Source\PSoC4/CyLib.c ****     void CySysWdtWriteMatch(uint32 match)
1207:.\Generated_Source\PSoC4/CyLib.c ****     {
1208:.\Generated_Source\PSoC4/CyLib.c ****         /* Configuring the WDT involves passing control signals between clock domains,
1209:.\Generated_Source\PSoC4/CyLib.c ****         * which requires the ILO to be enabled.
1210:.\Generated_Source\PSoC4/CyLib.c ****         */
1211:.\Generated_Source\PSoC4/CyLib.c ****         if (0u == (CY_SYS_CLK_ILO_CONFIG_REG & CY_SYS_CLK_ILO_CONFIG_ENABLE))
1212:.\Generated_Source\PSoC4/CyLib.c ****         {
1213:.\Generated_Source\PSoC4/CyLib.c ****             CySysClkIloStart();
1214:.\Generated_Source\PSoC4/CyLib.c ****         }
1215:.\Generated_Source\PSoC4/CyLib.c **** 
1216:.\Generated_Source\PSoC4/CyLib.c ****         CY_SYS_WDT_MATCH_REG = (CY_SYS_WDT_MATCH_REG & (uint32)(~CY_SYS_WDT_MATCH_MASK)) | match;
1217:.\Generated_Source\PSoC4/CyLib.c ****     }
1218:.\Generated_Source\PSoC4/CyLib.c **** 
1219:.\Generated_Source\PSoC4/CyLib.c **** 
1220:.\Generated_Source\PSoC4/CyLib.c ****     /*******************************************************************************
1221:.\Generated_Source\PSoC4/CyLib.c ****     * Function Name: CySysWdtReadMatch
1222:.\Generated_Source\PSoC4/CyLib.c ****     ********************************************************************************
1223:.\Generated_Source\PSoC4/CyLib.c ****     *
1224:.\Generated_Source\PSoC4/CyLib.c ****     * Summary:
1225:.\Generated_Source\PSoC4/CyLib.c ****     *  Reads the WDT counter match comparison value.
1226:.\Generated_Source\PSoC4/CyLib.c ****     *
1227:.\Generated_Source\PSoC4/CyLib.c ****     * Parameters:
1228:.\Generated_Source\PSoC4/CyLib.c ****     *  None
1229:.\Generated_Source\PSoC4/CyLib.c ****     *
1230:.\Generated_Source\PSoC4/CyLib.c ****     * Return:
1231:.\Generated_Source\PSoC4/CyLib.c ****     *  Counter match value
1232:.\Generated_Source\PSoC4/CyLib.c ****     *
1233:.\Generated_Source\PSoC4/CyLib.c ****     * Side Effects:
ARM GAS  C:\Users\vrnk\AppData\Local\Temp\cchVr3qk.s 			page 29


1234:.\Generated_Source\PSoC4/CyLib.c ****     *  None
1235:.\Generated_Source\PSoC4/CyLib.c ****     *
1236:.\Generated_Source\PSoC4/CyLib.c ****     *******************************************************************************/
1237:.\Generated_Source\PSoC4/CyLib.c ****     uint32 CySysWdtReadMatch(void)
1238:.\Generated_Source\PSoC4/CyLib.c ****     {
1239:.\Generated_Source\PSoC4/CyLib.c ****         return (CY_SYS_WDT_MATCH_REG & CY_SYS_WDT_MATCH_MASK);
1240:.\Generated_Source\PSoC4/CyLib.c ****     }
1241:.\Generated_Source\PSoC4/CyLib.c **** 
1242:.\Generated_Source\PSoC4/CyLib.c **** 
1243:.\Generated_Source\PSoC4/CyLib.c ****     /*******************************************************************************
1244:.\Generated_Source\PSoC4/CyLib.c ****     * Function Name: CySysWdtReadCount
1245:.\Generated_Source\PSoC4/CyLib.c ****     ********************************************************************************
1246:.\Generated_Source\PSoC4/CyLib.c ****     *
1247:.\Generated_Source\PSoC4/CyLib.c ****     * Summary:
1248:.\Generated_Source\PSoC4/CyLib.c ****     *  Reads the current WDT counter value.
1249:.\Generated_Source\PSoC4/CyLib.c ****     *
1250:.\Generated_Source\PSoC4/CyLib.c ****     * Parameters:
1251:.\Generated_Source\PSoC4/CyLib.c ****     *  None
1252:.\Generated_Source\PSoC4/CyLib.c ****     *
1253:.\Generated_Source\PSoC4/CyLib.c ****     * Return:
1254:.\Generated_Source\PSoC4/CyLib.c ****     *  Live counter value
1255:.\Generated_Source\PSoC4/CyLib.c ****     *
1256:.\Generated_Source\PSoC4/CyLib.c ****     * Side Effects:
1257:.\Generated_Source\PSoC4/CyLib.c ****     *  None
1258:.\Generated_Source\PSoC4/CyLib.c ****     *
1259:.\Generated_Source\PSoC4/CyLib.c ****     *******************************************************************************/
1260:.\Generated_Source\PSoC4/CyLib.c ****     uint32 CySysWdtReadCount(void)
1261:.\Generated_Source\PSoC4/CyLib.c ****     {
1262:.\Generated_Source\PSoC4/CyLib.c ****         return ((uint32)CY_SYS_WDT_COUNTER_REG);
1263:.\Generated_Source\PSoC4/CyLib.c ****     }
1264:.\Generated_Source\PSoC4/CyLib.c **** 
1265:.\Generated_Source\PSoC4/CyLib.c **** 
1266:.\Generated_Source\PSoC4/CyLib.c ****     /*******************************************************************************
1267:.\Generated_Source\PSoC4/CyLib.c ****     * Function Name: CySysWdtWriteIgnoreBits
1268:.\Generated_Source\PSoC4/CyLib.c ****     ********************************************************************************
1269:.\Generated_Source\PSoC4/CyLib.c ****     *
1270:.\Generated_Source\PSoC4/CyLib.c ****     * Summary:
1271:.\Generated_Source\PSoC4/CyLib.c ****     *  Configures the number of MSB bits of the watchdog timer that are not
1272:.\Generated_Source\PSoC4/CyLib.c ****     *  checked against match.
1273:.\Generated_Source\PSoC4/CyLib.c ****     *
1274:.\Generated_Source\PSoC4/CyLib.c ****     * Parameters:
1275:.\Generated_Source\PSoC4/CyLib.c ****     *  bitsNum:
1276:.\Generated_Source\PSoC4/CyLib.c ****     *   Valid range [0-15]. Number of MSB bits.
1277:.\Generated_Source\PSoC4/CyLib.c ****     *
1278:.\Generated_Source\PSoC4/CyLib.c ****     * Return:
1279:.\Generated_Source\PSoC4/CyLib.c ****     *  None
1280:.\Generated_Source\PSoC4/CyLib.c ****     *
1281:.\Generated_Source\PSoC4/CyLib.c ****     * Side Effects:
1282:.\Generated_Source\PSoC4/CyLib.c ****     *  The value of bitsNum provides control over the time-to-reset of the watchdog
1283:.\Generated_Source\PSoC4/CyLib.c ****     *  (which happens after 3 successive matches).
1284:.\Generated_Source\PSoC4/CyLib.c ****     *
1285:.\Generated_Source\PSoC4/CyLib.c ****     *******************************************************************************/
1286:.\Generated_Source\PSoC4/CyLib.c ****     void CySysWdtWriteIgnoreBits(uint32 bitsNum)
1287:.\Generated_Source\PSoC4/CyLib.c ****     {
1288:.\Generated_Source\PSoC4/CyLib.c ****         bitsNum = ((uint32)(bitsNum << 16u) & CY_SYS_WDT_IGNORE_BITS_MASK);
1289:.\Generated_Source\PSoC4/CyLib.c ****         CY_SYS_WDT_MATCH_REG = (CY_SYS_WDT_MATCH_REG & (uint32)(~CY_SYS_WDT_IGNORE_BITS_MASK)) | bi
1290:.\Generated_Source\PSoC4/CyLib.c ****     }
ARM GAS  C:\Users\vrnk\AppData\Local\Temp\cchVr3qk.s 			page 30


1291:.\Generated_Source\PSoC4/CyLib.c **** 
1292:.\Generated_Source\PSoC4/CyLib.c **** 
1293:.\Generated_Source\PSoC4/CyLib.c ****     /*******************************************************************************
1294:.\Generated_Source\PSoC4/CyLib.c ****     * Function Name: CySysWdtReadIgnoreBits
1295:.\Generated_Source\PSoC4/CyLib.c ****     ********************************************************************************
1296:.\Generated_Source\PSoC4/CyLib.c ****     *
1297:.\Generated_Source\PSoC4/CyLib.c ****     * Summary:
1298:.\Generated_Source\PSoC4/CyLib.c ****     *  Reads the number of MSB bits of the watchdog timer that are not
1299:.\Generated_Source\PSoC4/CyLib.c ****     *  checked against match.
1300:.\Generated_Source\PSoC4/CyLib.c ****     *
1301:.\Generated_Source\PSoC4/CyLib.c ****     * Parameters:
1302:.\Generated_Source\PSoC4/CyLib.c ****     *  None
1303:.\Generated_Source\PSoC4/CyLib.c ****     *
1304:.\Generated_Source\PSoC4/CyLib.c ****     * Return:
1305:.\Generated_Source\PSoC4/CyLib.c ****     *  Number of MSB bits.
1306:.\Generated_Source\PSoC4/CyLib.c ****     *
1307:.\Generated_Source\PSoC4/CyLib.c ****     * Side Effects:
1308:.\Generated_Source\PSoC4/CyLib.c ****     *  None
1309:.\Generated_Source\PSoC4/CyLib.c ****     *
1310:.\Generated_Source\PSoC4/CyLib.c ****     *******************************************************************************/
1311:.\Generated_Source\PSoC4/CyLib.c ****     uint32 CySysWdtReadIgnoreBits(void)
1312:.\Generated_Source\PSoC4/CyLib.c ****     {
1313:.\Generated_Source\PSoC4/CyLib.c ****         return((uint32)(CY_SYS_WDT_MATCH_REG  >> 16u) & CY_SYS_WDT_IGNORE_BITS_MASK);
1314:.\Generated_Source\PSoC4/CyLib.c ****     }
1315:.\Generated_Source\PSoC4/CyLib.c **** 
1316:.\Generated_Source\PSoC4/CyLib.c **** 
1317:.\Generated_Source\PSoC4/CyLib.c ****     /*******************************************************************************
1318:.\Generated_Source\PSoC4/CyLib.c ****     * Function Name: CySysWdtClearInterrupt
1319:.\Generated_Source\PSoC4/CyLib.c ****     ********************************************************************************
1320:.\Generated_Source\PSoC4/CyLib.c ****     *
1321:.\Generated_Source\PSoC4/CyLib.c ****     * Summary:
1322:.\Generated_Source\PSoC4/CyLib.c ****     *  Cleans WDT match flag, which is set every time WDT counter reaches WDT match
1323:.\Generated_Source\PSoC4/CyLib.c ****     *  value.
1324:.\Generated_Source\PSoC4/CyLib.c ****     *
1325:.\Generated_Source\PSoC4/CyLib.c ****     * Parameters:
1326:.\Generated_Source\PSoC4/CyLib.c ****     *  None
1327:.\Generated_Source\PSoC4/CyLib.c ****     *
1328:.\Generated_Source\PSoC4/CyLib.c ****     * Return:
1329:.\Generated_Source\PSoC4/CyLib.c ****     *  None
1330:.\Generated_Source\PSoC4/CyLib.c ****     *
1331:.\Generated_Source\PSoC4/CyLib.c ****     * Side Effects:
1332:.\Generated_Source\PSoC4/CyLib.c ****     *  Clearing this bit also feeds the watch dog.  Missing 2 interrupts in a row
1333:.\Generated_Source\PSoC4/CyLib.c ****     *  will generate brown-out reset.
1334:.\Generated_Source\PSoC4/CyLib.c ****     *
1335:.\Generated_Source\PSoC4/CyLib.c ****     *******************************************************************************/
1336:.\Generated_Source\PSoC4/CyLib.c ****     void CySysWdtClearInterrupt(void)
1337:.\Generated_Source\PSoC4/CyLib.c ****     {
1338:.\Generated_Source\PSoC4/CyLib.c ****         CY_SYS_SRSS_INTR_REG |= CY_SYS_WDT_LOWER_BIT_MASK;
1339:.\Generated_Source\PSoC4/CyLib.c ****     }
1340:.\Generated_Source\PSoC4/CyLib.c **** 
1341:.\Generated_Source\PSoC4/CyLib.c **** 
1342:.\Generated_Source\PSoC4/CyLib.c ****     /*******************************************************************************
1343:.\Generated_Source\PSoC4/CyLib.c ****     * Function Name: CySysWdtMaskInterrupt
1344:.\Generated_Source\PSoC4/CyLib.c ****     ********************************************************************************
1345:.\Generated_Source\PSoC4/CyLib.c ****     *
1346:.\Generated_Source\PSoC4/CyLib.c ****     * Summary:
1347:.\Generated_Source\PSoC4/CyLib.c ****     *  After masking interrupts from WDT, they are not passed to CPU.
ARM GAS  C:\Users\vrnk\AppData\Local\Temp\cchVr3qk.s 			page 31


1348:.\Generated_Source\PSoC4/CyLib.c ****     *
1349:.\Generated_Source\PSoC4/CyLib.c ****     * Parameters:
1350:.\Generated_Source\PSoC4/CyLib.c ****     *  None
1351:.\Generated_Source\PSoC4/CyLib.c ****     *
1352:.\Generated_Source\PSoC4/CyLib.c ****     * Return:
1353:.\Generated_Source\PSoC4/CyLib.c ****     *  None
1354:.\Generated_Source\PSoC4/CyLib.c ****     *
1355:.\Generated_Source\PSoC4/CyLib.c ****     * Side Effects:
1356:.\Generated_Source\PSoC4/CyLib.c ****     *  This API does notdisable the WDT reset generation on 2 missed interrupts.
1357:.\Generated_Source\PSoC4/CyLib.c ****     *
1358:.\Generated_Source\PSoC4/CyLib.c ****     *******************************************************************************/
1359:.\Generated_Source\PSoC4/CyLib.c ****     void CySysWdtMaskInterrupt(void)
1360:.\Generated_Source\PSoC4/CyLib.c ****     {
1361:.\Generated_Source\PSoC4/CyLib.c ****         CY_SYS_SRSS_INTR_MASK_REG &= (uint32)(~CY_SYS_WDT_LOWER_BIT_MASK);
1362:.\Generated_Source\PSoC4/CyLib.c ****     }
1363:.\Generated_Source\PSoC4/CyLib.c **** 
1364:.\Generated_Source\PSoC4/CyLib.c **** 
1365:.\Generated_Source\PSoC4/CyLib.c ****     /*******************************************************************************
1366:.\Generated_Source\PSoC4/CyLib.c ****     * Function Name: CySysWdtUnmaskInterrupt
1367:.\Generated_Source\PSoC4/CyLib.c ****     ********************************************************************************
1368:.\Generated_Source\PSoC4/CyLib.c ****     *
1369:.\Generated_Source\PSoC4/CyLib.c ****     * Summary:
1370:.\Generated_Source\PSoC4/CyLib.c ****     *  Unmasks WDT interrupts.
1371:.\Generated_Source\PSoC4/CyLib.c ****     *
1372:.\Generated_Source\PSoC4/CyLib.c ****     * Parameters:
1373:.\Generated_Source\PSoC4/CyLib.c ****     *  None
1374:.\Generated_Source\PSoC4/CyLib.c ****     *
1375:.\Generated_Source\PSoC4/CyLib.c ****     * Return:
1376:.\Generated_Source\PSoC4/CyLib.c ****     *  None
1377:.\Generated_Source\PSoC4/CyLib.c ****     *
1378:.\Generated_Source\PSoC4/CyLib.c ****     * Side Effects:
1379:.\Generated_Source\PSoC4/CyLib.c ****     *  None
1380:.\Generated_Source\PSoC4/CyLib.c ****     *
1381:.\Generated_Source\PSoC4/CyLib.c ****     *******************************************************************************/
1382:.\Generated_Source\PSoC4/CyLib.c ****     void CySysWdtUnmaskInterrupt(void)
1383:.\Generated_Source\PSoC4/CyLib.c ****     {
1384:.\Generated_Source\PSoC4/CyLib.c ****         CY_SYS_SRSS_INTR_MASK_REG |= CY_SYS_WDT_LOWER_BIT_MASK;
1385:.\Generated_Source\PSoC4/CyLib.c ****     }
1386:.\Generated_Source\PSoC4/CyLib.c **** 
1387:.\Generated_Source\PSoC4/CyLib.c **** #endif /* (CY_PSOC4A) */
1388:.\Generated_Source\PSoC4/CyLib.c **** 
1389:.\Generated_Source\PSoC4/CyLib.c **** 
1390:.\Generated_Source\PSoC4/CyLib.c **** #if(CY_PSOC4A)
1391:.\Generated_Source\PSoC4/CyLib.c **** 
1392:.\Generated_Source\PSoC4/CyLib.c ****     /*******************************************************************************
1393:.\Generated_Source\PSoC4/CyLib.c ****     * Function Name: CySysLvdEnable
1394:.\Generated_Source\PSoC4/CyLib.c ****     ********************************************************************************
1395:.\Generated_Source\PSoC4/CyLib.c ****     *
1396:.\Generated_Source\PSoC4/CyLib.c ****     * Summary:
1397:.\Generated_Source\PSoC4/CyLib.c ****     *  Enables the output of the low-voltage monitor when Vddd is at or below the
1398:.\Generated_Source\PSoC4/CyLib.c ****     *  trip point, configures device to generate an interrupt, and sets the voltage
1399:.\Generated_Source\PSoC4/CyLib.c ****     *  trip level.
1400:.\Generated_Source\PSoC4/CyLib.c ****     *
1401:.\Generated_Source\PSoC4/CyLib.c ****     * Parameters:
1402:.\Generated_Source\PSoC4/CyLib.c ****     *  threshold: Threshold selection for Low Voltage Detect circuit.
1403:.\Generated_Source\PSoC4/CyLib.c ****     *  Threshold variation is +/- 2.5% from these typical voltage choices.
1404:.\Generated_Source\PSoC4/CyLib.c ****     *         Define                     Voltage threshold
ARM GAS  C:\Users\vrnk\AppData\Local\Temp\cchVr3qk.s 			page 32


1405:.\Generated_Source\PSoC4/CyLib.c ****     *    CY_LVD_THRESHOLD_1_75_V       1.7500 V
1406:.\Generated_Source\PSoC4/CyLib.c ****     *    CY_LVD_THRESHOLD_1_80_V       1.8000 V
1407:.\Generated_Source\PSoC4/CyLib.c ****     *    CY_LVD_THRESHOLD_1_90_V       1.9000 V
1408:.\Generated_Source\PSoC4/CyLib.c ****     *    CY_LVD_THRESHOLD_2_00_V       2.0000 V
1409:.\Generated_Source\PSoC4/CyLib.c ****     *    CY_LVD_THRESHOLD_2_10_V       2.1000 V
1410:.\Generated_Source\PSoC4/CyLib.c ****     *    CY_LVD_THRESHOLD_2_20_V       2.2000 V
1411:.\Generated_Source\PSoC4/CyLib.c ****     *    CY_LVD_THRESHOLD_2_30_V       2.3000 V
1412:.\Generated_Source\PSoC4/CyLib.c ****     *    CY_LVD_THRESHOLD_2_40_V       2.4000 V
1413:.\Generated_Source\PSoC4/CyLib.c ****     *    CY_LVD_THRESHOLD_2_50_V       2.5000 V
1414:.\Generated_Source\PSoC4/CyLib.c ****     *    CY_LVD_THRESHOLD_2_60_V       2.6000 V
1415:.\Generated_Source\PSoC4/CyLib.c ****     *    CY_LVD_THRESHOLD_2_70_V       2.7000 V
1416:.\Generated_Source\PSoC4/CyLib.c ****     *    CY_LVD_THRESHOLD_2_80_V       2.8000 V
1417:.\Generated_Source\PSoC4/CyLib.c ****     *    CY_LVD_THRESHOLD_2_90_V       2.9000 V
1418:.\Generated_Source\PSoC4/CyLib.c ****     *    CY_LVD_THRESHOLD_3_00_V       3.0000 V
1419:.\Generated_Source\PSoC4/CyLib.c ****     *    CY_LVD_THRESHOLD_3_20_V       3.2000 V
1420:.\Generated_Source\PSoC4/CyLib.c ****     *    CY_LVD_THRESHOLD_4_50_V       4.5000 V
1421:.\Generated_Source\PSoC4/CyLib.c ****     *
1422:.\Generated_Source\PSoC4/CyLib.c ****     * Return:
1423:.\Generated_Source\PSoC4/CyLib.c ****     *  None
1424:.\Generated_Source\PSoC4/CyLib.c ****     *
1425:.\Generated_Source\PSoC4/CyLib.c ****     *******************************************************************************/
1426:.\Generated_Source\PSoC4/CyLib.c ****     void CySysLvdEnable(uint32 threshold)
1427:.\Generated_Source\PSoC4/CyLib.c ****     {
1428:.\Generated_Source\PSoC4/CyLib.c ****         /* Set threshold */
1429:.\Generated_Source\PSoC4/CyLib.c ****         CY_LVD_PWR_VMON_CONFIG_REG = (CY_LVD_PWR_VMON_CONFIG_REG & ~CY_LVD_PWR_VMON_CONFIG_LVD_SEL_
1430:.\Generated_Source\PSoC4/CyLib.c ****                 ((threshold << CY_LVD_PWR_VMON_CONFIG_LVD_SEL_SHIFT) & CY_LVD_PWR_VMON_CONFIG_LVD_S
1431:.\Generated_Source\PSoC4/CyLib.c **** 
1432:.\Generated_Source\PSoC4/CyLib.c ****         CY_LVD_PWR_VMON_CONFIG_REG |= CY_LVD_PWR_VMON_CONFIG_LVD_EN;
1433:.\Generated_Source\PSoC4/CyLib.c ****         CY_LVD_PWR_INTR_MASK_REG   |= CY_LVD_PROPAGATE_INT_TO_CPU;
1434:.\Generated_Source\PSoC4/CyLib.c ****     }
1435:.\Generated_Source\PSoC4/CyLib.c **** 
1436:.\Generated_Source\PSoC4/CyLib.c **** 
1437:.\Generated_Source\PSoC4/CyLib.c ****     /*******************************************************************************
1438:.\Generated_Source\PSoC4/CyLib.c ****     * Function Name: CySysLvdDisable
1439:.\Generated_Source\PSoC4/CyLib.c ****     ********************************************************************************
1440:.\Generated_Source\PSoC4/CyLib.c ****     *
1441:.\Generated_Source\PSoC4/CyLib.c ****     * Summary:
1442:.\Generated_Source\PSoC4/CyLib.c ****     *  Disables the low voltage detection. Low voltage interrupt is disabled.
1443:.\Generated_Source\PSoC4/CyLib.c ****     *
1444:.\Generated_Source\PSoC4/CyLib.c ****     * Parameters:
1445:.\Generated_Source\PSoC4/CyLib.c ****     *  None
1446:.\Generated_Source\PSoC4/CyLib.c ****     *
1447:.\Generated_Source\PSoC4/CyLib.c ****     * Return:
1448:.\Generated_Source\PSoC4/CyLib.c ****     *  None
1449:.\Generated_Source\PSoC4/CyLib.c ****     *
1450:.\Generated_Source\PSoC4/CyLib.c ****     *******************************************************************************/
1451:.\Generated_Source\PSoC4/CyLib.c ****     void CySysLvdDisable(void)
1452:.\Generated_Source\PSoC4/CyLib.c ****     {
1453:.\Generated_Source\PSoC4/CyLib.c ****         CY_LVD_PWR_INTR_MASK_REG   &= ~CY_LVD_PROPAGATE_INT_TO_CPU;
1454:.\Generated_Source\PSoC4/CyLib.c ****         CY_LVD_PWR_VMON_CONFIG_REG &= ~CY_LVD_PWR_VMON_CONFIG_LVD_EN;
1455:.\Generated_Source\PSoC4/CyLib.c ****     }
1456:.\Generated_Source\PSoC4/CyLib.c **** 
1457:.\Generated_Source\PSoC4/CyLib.c **** 
1458:.\Generated_Source\PSoC4/CyLib.c ****     /*******************************************************************************
1459:.\Generated_Source\PSoC4/CyLib.c ****     * Function Name: CySysLvdGetInterruptSource
1460:.\Generated_Source\PSoC4/CyLib.c ****     ********************************************************************************
1461:.\Generated_Source\PSoC4/CyLib.c ****     *
ARM GAS  C:\Users\vrnk\AppData\Local\Temp\cchVr3qk.s 			page 33


1462:.\Generated_Source\PSoC4/CyLib.c ****     * Summary:
1463:.\Generated_Source\PSoC4/CyLib.c ****     *  Gets the low voltage detection interrupt status (without clearing).
1464:.\Generated_Source\PSoC4/CyLib.c ****     *
1465:.\Generated_Source\PSoC4/CyLib.c ****     * Parameters:
1466:.\Generated_Source\PSoC4/CyLib.c ****     *  None
1467:.\Generated_Source\PSoC4/CyLib.c ****     *
1468:.\Generated_Source\PSoC4/CyLib.c ****     * Return:
1469:.\Generated_Source\PSoC4/CyLib.c ****     *  Interrupt request value:
1470:.\Generated_Source\PSoC4/CyLib.c ****     *    CY_SYS_LVD_INT - Indicates an Low Voltage Detect interrupt
1471:.\Generated_Source\PSoC4/CyLib.c ****     *
1472:.\Generated_Source\PSoC4/CyLib.c ****     *******************************************************************************/
1473:.\Generated_Source\PSoC4/CyLib.c ****     uint32 CySysLvdGetInterruptSource(void)
1474:.\Generated_Source\PSoC4/CyLib.c ****     {
1475:.\Generated_Source\PSoC4/CyLib.c ****         return (CY_LVD_PWR_INTR_REG & CY_SYS_LVD_INT);
1476:.\Generated_Source\PSoC4/CyLib.c ****     }
1477:.\Generated_Source\PSoC4/CyLib.c **** 
1478:.\Generated_Source\PSoC4/CyLib.c **** 
1479:.\Generated_Source\PSoC4/CyLib.c ****     /*******************************************************************************
1480:.\Generated_Source\PSoC4/CyLib.c ****     * Function Name: CySysLvdClearInterrupt
1481:.\Generated_Source\PSoC4/CyLib.c ****     ********************************************************************************
1482:.\Generated_Source\PSoC4/CyLib.c ****     *
1483:.\Generated_Source\PSoC4/CyLib.c ****     * Summary:
1484:.\Generated_Source\PSoC4/CyLib.c ****     *  Clears the low voltage detection interrupt status.
1485:.\Generated_Source\PSoC4/CyLib.c ****     *
1486:.\Generated_Source\PSoC4/CyLib.c ****     * Parameters:
1487:.\Generated_Source\PSoC4/CyLib.c ****     *  None
1488:.\Generated_Source\PSoC4/CyLib.c ****     *
1489:.\Generated_Source\PSoC4/CyLib.c ****     * Return:
1490:.\Generated_Source\PSoC4/CyLib.c ****     *  None
1491:.\Generated_Source\PSoC4/CyLib.c ****     *
1492:.\Generated_Source\PSoC4/CyLib.c ****     *******************************************************************************/
1493:.\Generated_Source\PSoC4/CyLib.c ****     void CySysLvdClearInterrupt(void)
1494:.\Generated_Source\PSoC4/CyLib.c ****     {
1495:.\Generated_Source\PSoC4/CyLib.c ****         CY_LVD_PWR_INTR_REG = CY_SYS_LVD_INT;
1496:.\Generated_Source\PSoC4/CyLib.c ****     }
1497:.\Generated_Source\PSoC4/CyLib.c **** 
1498:.\Generated_Source\PSoC4/CyLib.c **** #endif /* (CY_PSOC4A) */
1499:.\Generated_Source\PSoC4/CyLib.c **** 
1500:.\Generated_Source\PSoC4/CyLib.c **** 
1501:.\Generated_Source\PSoC4/CyLib.c **** /*******************************************************************************
1502:.\Generated_Source\PSoC4/CyLib.c **** * Function Name: CyDisableInts
1503:.\Generated_Source\PSoC4/CyLib.c **** ********************************************************************************
1504:.\Generated_Source\PSoC4/CyLib.c **** *
1505:.\Generated_Source\PSoC4/CyLib.c **** * Summary:
1506:.\Generated_Source\PSoC4/CyLib.c **** *  Disables all interrupts.
1507:.\Generated_Source\PSoC4/CyLib.c **** *
1508:.\Generated_Source\PSoC4/CyLib.c **** * Parameters:
1509:.\Generated_Source\PSoC4/CyLib.c **** *  None
1510:.\Generated_Source\PSoC4/CyLib.c **** *
1511:.\Generated_Source\PSoC4/CyLib.c **** * Return:
1512:.\Generated_Source\PSoC4/CyLib.c **** *  32 bit mask of previously enabled interrupts.
1513:.\Generated_Source\PSoC4/CyLib.c **** *
1514:.\Generated_Source\PSoC4/CyLib.c **** *******************************************************************************/
1515:.\Generated_Source\PSoC4/CyLib.c **** uint32 CyDisableInts(void)
1516:.\Generated_Source\PSoC4/CyLib.c **** {
1517:.\Generated_Source\PSoC4/CyLib.c ****     uint32 intState;
1518:.\Generated_Source\PSoC4/CyLib.c **** 
ARM GAS  C:\Users\vrnk\AppData\Local\Temp\cchVr3qk.s 			page 34


1519:.\Generated_Source\PSoC4/CyLib.c ****     /* Get the curreent interrupt state. */
1520:.\Generated_Source\PSoC4/CyLib.c ****     intState = CY_INT_CLEAR_REG;
1521:.\Generated_Source\PSoC4/CyLib.c **** 
1522:.\Generated_Source\PSoC4/CyLib.c ****     /* Disable all of the interrupts. */
1523:.\Generated_Source\PSoC4/CyLib.c ****     CY_INT_CLEAR_REG = CY_INT_CLEAR_DISABLE_ALL;
1524:.\Generated_Source\PSoC4/CyLib.c **** 
1525:.\Generated_Source\PSoC4/CyLib.c ****     return (intState);
1526:.\Generated_Source\PSoC4/CyLib.c **** }
1527:.\Generated_Source\PSoC4/CyLib.c **** 
1528:.\Generated_Source\PSoC4/CyLib.c **** 
1529:.\Generated_Source\PSoC4/CyLib.c **** /*******************************************************************************
1530:.\Generated_Source\PSoC4/CyLib.c **** * Function Name: CyEnableInts
1531:.\Generated_Source\PSoC4/CyLib.c **** ********************************************************************************
1532:.\Generated_Source\PSoC4/CyLib.c **** *
1533:.\Generated_Source\PSoC4/CyLib.c **** * Summary:
1534:.\Generated_Source\PSoC4/CyLib.c **** *  Enables interrupts to a given state.
1535:.\Generated_Source\PSoC4/CyLib.c **** *
1536:.\Generated_Source\PSoC4/CyLib.c **** * Parameters:
1537:.\Generated_Source\PSoC4/CyLib.c **** *   mask, 32 bit mask of interrupts to enable.
1538:.\Generated_Source\PSoC4/CyLib.c **** *
1539:.\Generated_Source\PSoC4/CyLib.c **** * Return:
1540:.\Generated_Source\PSoC4/CyLib.c **** *  None
1541:.\Generated_Source\PSoC4/CyLib.c **** *
1542:.\Generated_Source\PSoC4/CyLib.c **** *******************************************************************************/
1543:.\Generated_Source\PSoC4/CyLib.c **** void CyEnableInts(uint32 mask)
1544:.\Generated_Source\PSoC4/CyLib.c **** {
1545:.\Generated_Source\PSoC4/CyLib.c ****     CY_INT_ENABLE_REG = mask;
1546:.\Generated_Source\PSoC4/CyLib.c **** }
1547:.\Generated_Source\PSoC4/CyLib.c **** 
1548:.\Generated_Source\PSoC4/CyLib.c **** 
1549:.\Generated_Source\PSoC4/CyLib.c **** /*******************************************************************************
1550:.\Generated_Source\PSoC4/CyLib.c **** * Function Name: CyIntSetSysVector
1551:.\Generated_Source\PSoC4/CyLib.c **** ********************************************************************************
1552:.\Generated_Source\PSoC4/CyLib.c **** *
1553:.\Generated_Source\PSoC4/CyLib.c **** * Summary:
1554:.\Generated_Source\PSoC4/CyLib.c **** *  Sets the interrupt vector of the specified system interrupt number. These
1555:.\Generated_Source\PSoC4/CyLib.c **** *  interrupts are for SysTick, PendSV and others.
1556:.\Generated_Source\PSoC4/CyLib.c **** *
1557:.\Generated_Source\PSoC4/CyLib.c **** * Parameters:
1558:.\Generated_Source\PSoC4/CyLib.c **** *  number: Interrupt number, valid range [0-15].
1559:.\Generated_Source\PSoC4/CyLib.c **** *  address: Pointer to an interrupt service routine.
1560:.\Generated_Source\PSoC4/CyLib.c **** *
1561:.\Generated_Source\PSoC4/CyLib.c **** * Return:
1562:.\Generated_Source\PSoC4/CyLib.c **** *  The old ISR vector at this location.
1563:.\Generated_Source\PSoC4/CyLib.c **** *
1564:.\Generated_Source\PSoC4/CyLib.c **** *******************************************************************************/
1565:.\Generated_Source\PSoC4/CyLib.c **** cyisraddress CyIntSetSysVector(uint8 number, cyisraddress address)
1566:.\Generated_Source\PSoC4/CyLib.c **** {
1567:.\Generated_Source\PSoC4/CyLib.c ****     cyisraddress oldIsr;
1568:.\Generated_Source\PSoC4/CyLib.c ****     cyisraddress *ramVectorTable = (cyisraddress *) CY_INT_VECT_TABLE;
1569:.\Generated_Source\PSoC4/CyLib.c **** 
1570:.\Generated_Source\PSoC4/CyLib.c ****     CYASSERT(number < CY_INT_IRQ_BASE);
1571:.\Generated_Source\PSoC4/CyLib.c **** 
1572:.\Generated_Source\PSoC4/CyLib.c ****     /* Save old Interrupt service routine. */
1573:.\Generated_Source\PSoC4/CyLib.c ****     oldIsr = ramVectorTable[number];
1574:.\Generated_Source\PSoC4/CyLib.c **** 
1575:.\Generated_Source\PSoC4/CyLib.c ****     /* Set new Interrupt service routine. */
ARM GAS  C:\Users\vrnk\AppData\Local\Temp\cchVr3qk.s 			page 35


1576:.\Generated_Source\PSoC4/CyLib.c ****     ramVectorTable[number] = address;
1577:.\Generated_Source\PSoC4/CyLib.c **** 
1578:.\Generated_Source\PSoC4/CyLib.c ****     return(oldIsr);
1579:.\Generated_Source\PSoC4/CyLib.c **** }
1580:.\Generated_Source\PSoC4/CyLib.c **** 
1581:.\Generated_Source\PSoC4/CyLib.c **** 
1582:.\Generated_Source\PSoC4/CyLib.c **** /*******************************************************************************
1583:.\Generated_Source\PSoC4/CyLib.c **** * Function Name: CyIntGetSysVector
1584:.\Generated_Source\PSoC4/CyLib.c **** ********************************************************************************
1585:.\Generated_Source\PSoC4/CyLib.c **** *
1586:.\Generated_Source\PSoC4/CyLib.c **** * Summary:
1587:.\Generated_Source\PSoC4/CyLib.c **** *   Gets the interrupt vector of the specified system interrupt number. These
1588:.\Generated_Source\PSoC4/CyLib.c **** *   interrupts are for SysTick, PendSV and others.
1589:.\Generated_Source\PSoC4/CyLib.c **** *
1590:.\Generated_Source\PSoC4/CyLib.c **** * Parameters:
1591:.\Generated_Source\PSoC4/CyLib.c **** *   number: The interrupt number, valid range [0-15].
1592:.\Generated_Source\PSoC4/CyLib.c **** *
1593:.\Generated_Source\PSoC4/CyLib.c **** * Return:
1594:.\Generated_Source\PSoC4/CyLib.c **** *   Address of the ISR in the interrupt vector table.
1595:.\Generated_Source\PSoC4/CyLib.c **** *
1596:.\Generated_Source\PSoC4/CyLib.c **** *******************************************************************************/
1597:.\Generated_Source\PSoC4/CyLib.c **** cyisraddress CyIntGetSysVector(uint8 number)
1598:.\Generated_Source\PSoC4/CyLib.c **** {
1599:.\Generated_Source\PSoC4/CyLib.c ****     cyisraddress *ramVectorTable = (cyisraddress *) CY_INT_VECT_TABLE;
1600:.\Generated_Source\PSoC4/CyLib.c **** 
1601:.\Generated_Source\PSoC4/CyLib.c ****     CYASSERT(number < CY_INT_IRQ_BASE);
1602:.\Generated_Source\PSoC4/CyLib.c **** 
1603:.\Generated_Source\PSoC4/CyLib.c ****     return(ramVectorTable[number]);
1604:.\Generated_Source\PSoC4/CyLib.c **** }
1605:.\Generated_Source\PSoC4/CyLib.c **** 
1606:.\Generated_Source\PSoC4/CyLib.c **** 
1607:.\Generated_Source\PSoC4/CyLib.c **** /*******************************************************************************
1608:.\Generated_Source\PSoC4/CyLib.c **** * Function Name: CyIntSetVector
1609:.\Generated_Source\PSoC4/CyLib.c **** ********************************************************************************
1610:.\Generated_Source\PSoC4/CyLib.c **** *
1611:.\Generated_Source\PSoC4/CyLib.c **** * Summary:
1612:.\Generated_Source\PSoC4/CyLib.c **** *  Sets the interrupt vector of the specified interrupt number.
1613:.\Generated_Source\PSoC4/CyLib.c **** *
1614:.\Generated_Source\PSoC4/CyLib.c **** * Parameters:
1615:.\Generated_Source\PSoC4/CyLib.c **** *  number: Valid range [0-31].  Interrupt number
1616:.\Generated_Source\PSoC4/CyLib.c **** *  address: Pointer to an interrupt service routine
1617:.\Generated_Source\PSoC4/CyLib.c **** *
1618:.\Generated_Source\PSoC4/CyLib.c **** * Return:
1619:.\Generated_Source\PSoC4/CyLib.c **** *   Previous interrupt vector value.
1620:.\Generated_Source\PSoC4/CyLib.c **** *
1621:.\Generated_Source\PSoC4/CyLib.c **** *******************************************************************************/
1622:.\Generated_Source\PSoC4/CyLib.c **** cyisraddress CyIntSetVector(uint8 number, cyisraddress address)
1623:.\Generated_Source\PSoC4/CyLib.c **** {
1624:.\Generated_Source\PSoC4/CyLib.c ****     cyisraddress oldIsr;
1625:.\Generated_Source\PSoC4/CyLib.c ****     cyisraddress *ramVectorTable = (cyisraddress *) CY_INT_VECT_TABLE;
1626:.\Generated_Source\PSoC4/CyLib.c **** 
1627:.\Generated_Source\PSoC4/CyLib.c ****     CYASSERT(number < CY_NUM_INTERRUPTS);
1628:.\Generated_Source\PSoC4/CyLib.c **** 
1629:.\Generated_Source\PSoC4/CyLib.c ****     /* Save old Interrupt service routine. */
1630:.\Generated_Source\PSoC4/CyLib.c ****     oldIsr = ramVectorTable[CY_INT_IRQ_BASE + number];
1631:.\Generated_Source\PSoC4/CyLib.c **** 
1632:.\Generated_Source\PSoC4/CyLib.c ****     /* Set new Interrupt service routine. */
ARM GAS  C:\Users\vrnk\AppData\Local\Temp\cchVr3qk.s 			page 36


1633:.\Generated_Source\PSoC4/CyLib.c ****     ramVectorTable[CY_INT_IRQ_BASE + number] = address;
1634:.\Generated_Source\PSoC4/CyLib.c **** 
1635:.\Generated_Source\PSoC4/CyLib.c ****     return(oldIsr);
1636:.\Generated_Source\PSoC4/CyLib.c **** }
1637:.\Generated_Source\PSoC4/CyLib.c **** 
1638:.\Generated_Source\PSoC4/CyLib.c **** 
1639:.\Generated_Source\PSoC4/CyLib.c **** /*******************************************************************************
1640:.\Generated_Source\PSoC4/CyLib.c **** * Function Name: CyIntGetVector
1641:.\Generated_Source\PSoC4/CyLib.c **** ********************************************************************************
1642:.\Generated_Source\PSoC4/CyLib.c **** *
1643:.\Generated_Source\PSoC4/CyLib.c **** * Summary:
1644:.\Generated_Source\PSoC4/CyLib.c **** *  Gets the interrupt vector of the specified interrupt number.
1645:.\Generated_Source\PSoC4/CyLib.c **** *
1646:.\Generated_Source\PSoC4/CyLib.c **** * Parameters:
1647:.\Generated_Source\PSoC4/CyLib.c **** *  number: Valid range [0-31].  Interrupt number
1648:.\Generated_Source\PSoC4/CyLib.c **** *
1649:.\Generated_Source\PSoC4/CyLib.c **** * Return:
1650:.\Generated_Source\PSoC4/CyLib.c **** *  Address of the ISR in the interrupt vector table.
1651:.\Generated_Source\PSoC4/CyLib.c **** *
1652:.\Generated_Source\PSoC4/CyLib.c **** *******************************************************************************/
1653:.\Generated_Source\PSoC4/CyLib.c **** cyisraddress CyIntGetVector(uint8 number)
1654:.\Generated_Source\PSoC4/CyLib.c **** {
1655:.\Generated_Source\PSoC4/CyLib.c ****     cyisraddress *ramVectorTable = (cyisraddress *) CY_INT_VECT_TABLE;
1656:.\Generated_Source\PSoC4/CyLib.c **** 
1657:.\Generated_Source\PSoC4/CyLib.c ****     CYASSERT(number < CY_NUM_INTERRUPTS);
1658:.\Generated_Source\PSoC4/CyLib.c **** 
1659:.\Generated_Source\PSoC4/CyLib.c ****     return (ramVectorTable[CY_INT_IRQ_BASE + number]);
1660:.\Generated_Source\PSoC4/CyLib.c **** }
1661:.\Generated_Source\PSoC4/CyLib.c **** 
1662:.\Generated_Source\PSoC4/CyLib.c **** /*******************************************************************************
1663:.\Generated_Source\PSoC4/CyLib.c **** * Function Name: CyIntSetPriority
1664:.\Generated_Source\PSoC4/CyLib.c **** ********************************************************************************
1665:.\Generated_Source\PSoC4/CyLib.c **** *
1666:.\Generated_Source\PSoC4/CyLib.c **** * Summary:
1667:.\Generated_Source\PSoC4/CyLib.c **** *  Sets the priority of the interrupt.
1668:.\Generated_Source\PSoC4/CyLib.c **** *
1669:.\Generated_Source\PSoC4/CyLib.c **** * Parameters:
1670:.\Generated_Source\PSoC4/CyLib.c **** *  priority: Priority of the interrupt. 0 - 3, 0 being the highest.
1671:.\Generated_Source\PSoC4/CyLib.c **** *  number: The number of the interrupt, 0 - 31.
1672:.\Generated_Source\PSoC4/CyLib.c **** *
1673:.\Generated_Source\PSoC4/CyLib.c **** * Return:
1674:.\Generated_Source\PSoC4/CyLib.c **** *  None
1675:.\Generated_Source\PSoC4/CyLib.c **** *
1676:.\Generated_Source\PSoC4/CyLib.c **** *******************************************************************************/
1677:.\Generated_Source\PSoC4/CyLib.c **** void CyIntSetPriority(uint8 number, uint8 priority)
1678:.\Generated_Source\PSoC4/CyLib.c **** {
1679:.\Generated_Source\PSoC4/CyLib.c ****     uint8 interruptState;
1680:.\Generated_Source\PSoC4/CyLib.c ****     uint32 shift;
1681:.\Generated_Source\PSoC4/CyLib.c ****     uint32 value;
1682:.\Generated_Source\PSoC4/CyLib.c **** 
1683:.\Generated_Source\PSoC4/CyLib.c ****     CYASSERT(priority <= CY_MIN_PRIORITY);
1684:.\Generated_Source\PSoC4/CyLib.c ****     CYASSERT(number < CY_NUM_INTERRUPTS);
1685:.\Generated_Source\PSoC4/CyLib.c **** 
1686:.\Generated_Source\PSoC4/CyLib.c ****     shift = CY_INT_PRIORITY_SHIFT(number);
1687:.\Generated_Source\PSoC4/CyLib.c **** 
1688:.\Generated_Source\PSoC4/CyLib.c ****     interruptState = CyEnterCriticalSection();
1689:.\Generated_Source\PSoC4/CyLib.c **** 
ARM GAS  C:\Users\vrnk\AppData\Local\Temp\cchVr3qk.s 			page 37


1690:.\Generated_Source\PSoC4/CyLib.c ****     value = CY_INT_PRIORITY_REG(number);
1691:.\Generated_Source\PSoC4/CyLib.c ****     value &= (uint32)(~((uint32)(CY_INT_PRIORITY_MASK << shift)));
1692:.\Generated_Source\PSoC4/CyLib.c ****     value |= ((uint32)priority << shift);
1693:.\Generated_Source\PSoC4/CyLib.c ****     CY_INT_PRIORITY_REG(number) = value;
1694:.\Generated_Source\PSoC4/CyLib.c **** 
1695:.\Generated_Source\PSoC4/CyLib.c ****     CyExitCriticalSection(interruptState);
1696:.\Generated_Source\PSoC4/CyLib.c **** }
1697:.\Generated_Source\PSoC4/CyLib.c **** 
1698:.\Generated_Source\PSoC4/CyLib.c **** 
1699:.\Generated_Source\PSoC4/CyLib.c **** /*******************************************************************************
1700:.\Generated_Source\PSoC4/CyLib.c **** * Function Name: CyIntGetPriority
1701:.\Generated_Source\PSoC4/CyLib.c **** ********************************************************************************
1702:.\Generated_Source\PSoC4/CyLib.c **** *
1703:.\Generated_Source\PSoC4/CyLib.c **** * Summary:
1704:.\Generated_Source\PSoC4/CyLib.c **** *  Gets the priority of the interrupt.
1705:.\Generated_Source\PSoC4/CyLib.c **** *
1706:.\Generated_Source\PSoC4/CyLib.c **** * Parameters:
1707:.\Generated_Source\PSoC4/CyLib.c **** *  number: The number of the interrupt, 0 - 31.
1708:.\Generated_Source\PSoC4/CyLib.c **** *
1709:.\Generated_Source\PSoC4/CyLib.c **** * Return:
1710:.\Generated_Source\PSoC4/CyLib.c **** *  Priority of the interrupt. 0 - 3, 0 being the highest.
1711:.\Generated_Source\PSoC4/CyLib.c **** *
1712:.\Generated_Source\PSoC4/CyLib.c **** *******************************************************************************/
1713:.\Generated_Source\PSoC4/CyLib.c **** uint8 CyIntGetPriority(uint8 number)
1714:.\Generated_Source\PSoC4/CyLib.c **** {
1715:.\Generated_Source\PSoC4/CyLib.c ****     uint8 priority;
1716:.\Generated_Source\PSoC4/CyLib.c **** 
1717:.\Generated_Source\PSoC4/CyLib.c ****     CYASSERT(number < CY_NUM_INTERRUPTS);
1718:.\Generated_Source\PSoC4/CyLib.c **** 
1719:.\Generated_Source\PSoC4/CyLib.c ****     priority = (uint8) (CY_INT_PRIORITY_REG(number) >> CY_INT_PRIORITY_SHIFT(number));
1720:.\Generated_Source\PSoC4/CyLib.c **** 
1721:.\Generated_Source\PSoC4/CyLib.c ****     return (priority & (uint8) CY_INT_PRIORITY_MASK);
1722:.\Generated_Source\PSoC4/CyLib.c **** }
1723:.\Generated_Source\PSoC4/CyLib.c **** 
1724:.\Generated_Source\PSoC4/CyLib.c **** 
1725:.\Generated_Source\PSoC4/CyLib.c **** /*******************************************************************************
1726:.\Generated_Source\PSoC4/CyLib.c **** * Function Name: CyIntEnable
1727:.\Generated_Source\PSoC4/CyLib.c **** ********************************************************************************
1728:.\Generated_Source\PSoC4/CyLib.c **** *
1729:.\Generated_Source\PSoC4/CyLib.c **** * Summary:
1730:.\Generated_Source\PSoC4/CyLib.c **** *  Enables the specified interrupt number.
1731:.\Generated_Source\PSoC4/CyLib.c **** *
1732:.\Generated_Source\PSoC4/CyLib.c **** * Parameters:
1733:.\Generated_Source\PSoC4/CyLib.c **** *  number: Valid range [0-31].  Interrupt number
1734:.\Generated_Source\PSoC4/CyLib.c **** *
1735:.\Generated_Source\PSoC4/CyLib.c **** * Return:
1736:.\Generated_Source\PSoC4/CyLib.c **** *  None
1737:.\Generated_Source\PSoC4/CyLib.c **** *
1738:.\Generated_Source\PSoC4/CyLib.c **** *******************************************************************************/
1739:.\Generated_Source\PSoC4/CyLib.c **** void CyIntEnable(uint8 number)
1740:.\Generated_Source\PSoC4/CyLib.c **** {
1741:.\Generated_Source\PSoC4/CyLib.c ****     CY_INT_ENABLE_REG = ((uint32) 0x01u << (CY_INT_ENABLE_RANGE_MASK & number));
1742:.\Generated_Source\PSoC4/CyLib.c **** }
1743:.\Generated_Source\PSoC4/CyLib.c **** 
1744:.\Generated_Source\PSoC4/CyLib.c **** 
1745:.\Generated_Source\PSoC4/CyLib.c **** /*******************************************************************************
1746:.\Generated_Source\PSoC4/CyLib.c **** * Function Name: CyIntGetState
ARM GAS  C:\Users\vrnk\AppData\Local\Temp\cchVr3qk.s 			page 38


1747:.\Generated_Source\PSoC4/CyLib.c **** ********************************************************************************
1748:.\Generated_Source\PSoC4/CyLib.c **** *
1749:.\Generated_Source\PSoC4/CyLib.c **** * Summary:
1750:.\Generated_Source\PSoC4/CyLib.c **** *  Gets the enable state of the specified interrupt number.
1751:.\Generated_Source\PSoC4/CyLib.c **** *
1752:.\Generated_Source\PSoC4/CyLib.c **** * Parameters:
1753:.\Generated_Source\PSoC4/CyLib.c **** *  number: Valid range [0-31].  Interrupt number.
1754:.\Generated_Source\PSoC4/CyLib.c **** *
1755:.\Generated_Source\PSoC4/CyLib.c **** * Return:
1756:.\Generated_Source\PSoC4/CyLib.c **** *  Enable status: 1 if enabled, 0 if disabled
1757:.\Generated_Source\PSoC4/CyLib.c **** *
1758:.\Generated_Source\PSoC4/CyLib.c **** *******************************************************************************/
1759:.\Generated_Source\PSoC4/CyLib.c **** uint8 CyIntGetState(uint8 number)
1760:.\Generated_Source\PSoC4/CyLib.c **** {
1761:.\Generated_Source\PSoC4/CyLib.c ****     /* Get the state of the interrupt. */
1762:.\Generated_Source\PSoC4/CyLib.c ****     return ((0u != (CY_INT_ENABLE_REG & ((uint32) 0x01u << (CY_INT_ENABLE_RANGE_MASK & number)))) ?
1763:.\Generated_Source\PSoC4/CyLib.c **** }
1764:.\Generated_Source\PSoC4/CyLib.c **** 
1765:.\Generated_Source\PSoC4/CyLib.c **** 
1766:.\Generated_Source\PSoC4/CyLib.c **** /*******************************************************************************
1767:.\Generated_Source\PSoC4/CyLib.c **** * Function Name: CyIntDisable
1768:.\Generated_Source\PSoC4/CyLib.c **** ********************************************************************************
1769:.\Generated_Source\PSoC4/CyLib.c **** *
1770:.\Generated_Source\PSoC4/CyLib.c **** * Summary:
1771:.\Generated_Source\PSoC4/CyLib.c **** *   Disables the specified interrupt number.
1772:.\Generated_Source\PSoC4/CyLib.c **** *
1773:.\Generated_Source\PSoC4/CyLib.c **** * Parameters:
1774:.\Generated_Source\PSoC4/CyLib.c **** *   number: Valid range [0-31].  Interrupt number.
1775:.\Generated_Source\PSoC4/CyLib.c **** *
1776:.\Generated_Source\PSoC4/CyLib.c **** * Return:
1777:.\Generated_Source\PSoC4/CyLib.c **** *  None
1778:.\Generated_Source\PSoC4/CyLib.c **** *
1779:.\Generated_Source\PSoC4/CyLib.c **** *******************************************************************************/
1780:.\Generated_Source\PSoC4/CyLib.c **** void CyIntDisable(uint8 number)
1781:.\Generated_Source\PSoC4/CyLib.c **** {
1782:.\Generated_Source\PSoC4/CyLib.c ****     CY_INT_CLEAR_REG = ((uint32) 0x01u << (CY_INT_ENABLE_RANGE_MASK & number));
1783:.\Generated_Source\PSoC4/CyLib.c **** }
1784:.\Generated_Source\PSoC4/CyLib.c **** 
1785:.\Generated_Source\PSoC4/CyLib.c **** /*******************************************************************************
1786:.\Generated_Source\PSoC4/CyLib.c **** * Function Name: CyIntSetPending
1787:.\Generated_Source\PSoC4/CyLib.c **** ********************************************************************************
1788:.\Generated_Source\PSoC4/CyLib.c **** *
1789:.\Generated_Source\PSoC4/CyLib.c **** * Summary:
1790:.\Generated_Source\PSoC4/CyLib.c **** *  Forces the specified interrupt number to be pending.
1791:.\Generated_Source\PSoC4/CyLib.c **** *
1792:.\Generated_Source\PSoC4/CyLib.c **** * Parameters:
1793:.\Generated_Source\PSoC4/CyLib.c **** *  number: Valid range [0-31].  Interrupt number.
1794:.\Generated_Source\PSoC4/CyLib.c **** *
1795:.\Generated_Source\PSoC4/CyLib.c **** * Return:
1796:.\Generated_Source\PSoC4/CyLib.c **** *  None
1797:.\Generated_Source\PSoC4/CyLib.c **** *
1798:.\Generated_Source\PSoC4/CyLib.c **** *******************************************************************************/
1799:.\Generated_Source\PSoC4/CyLib.c **** void CyIntSetPending(uint8 number)
1800:.\Generated_Source\PSoC4/CyLib.c **** {
1801:.\Generated_Source\PSoC4/CyLib.c ****     CY_INT_SET_PEND_REG = ((uint32) 0x01u << (CY_INT_ENABLE_RANGE_MASK & number));
1802:.\Generated_Source\PSoC4/CyLib.c **** }
1803:.\Generated_Source\PSoC4/CyLib.c **** 
ARM GAS  C:\Users\vrnk\AppData\Local\Temp\cchVr3qk.s 			page 39


1804:.\Generated_Source\PSoC4/CyLib.c **** 
1805:.\Generated_Source\PSoC4/CyLib.c **** /*******************************************************************************
1806:.\Generated_Source\PSoC4/CyLib.c **** * Function Name: CyIntClearPending
1807:.\Generated_Source\PSoC4/CyLib.c **** ********************************************************************************
1808:.\Generated_Source\PSoC4/CyLib.c **** *
1809:.\Generated_Source\PSoC4/CyLib.c **** * Summary:
1810:.\Generated_Source\PSoC4/CyLib.c **** *  Clears any pending interrupt for the specified interrupt number.
1811:.\Generated_Source\PSoC4/CyLib.c **** *
1812:.\Generated_Source\PSoC4/CyLib.c **** * Parameters:
1813:.\Generated_Source\PSoC4/CyLib.c **** *  number: Valid range [0-31].  Interrupt number.
1814:.\Generated_Source\PSoC4/CyLib.c **** *
1815:.\Generated_Source\PSoC4/CyLib.c **** * Return:
1816:.\Generated_Source\PSoC4/CyLib.c **** *  None
1817:.\Generated_Source\PSoC4/CyLib.c **** *
1818:.\Generated_Source\PSoC4/CyLib.c **** *******************************************************************************/
1819:.\Generated_Source\PSoC4/CyLib.c **** void CyIntClearPending(uint8 number)
1820:.\Generated_Source\PSoC4/CyLib.c **** {
1821:.\Generated_Source\PSoC4/CyLib.c ****     CY_INT_CLR_PEND_REG = ((uint32) 0x01u << (CY_INT_ENABLE_RANGE_MASK & number));
1822:.\Generated_Source\PSoC4/CyLib.c **** }
1823:.\Generated_Source\PSoC4/CyLib.c **** 
1824:.\Generated_Source\PSoC4/CyLib.c **** 
1825:.\Generated_Source\PSoC4/CyLib.c **** /*******************************************************************************
1826:.\Generated_Source\PSoC4/CyLib.c **** * Function Name: CyHalt
1827:.\Generated_Source\PSoC4/CyLib.c **** ********************************************************************************
1828:.\Generated_Source\PSoC4/CyLib.c **** *
1829:.\Generated_Source\PSoC4/CyLib.c **** * Summary:
1830:.\Generated_Source\PSoC4/CyLib.c **** *  Halts the CPU.
1831:.\Generated_Source\PSoC4/CyLib.c **** *
1832:.\Generated_Source\PSoC4/CyLib.c **** * Parameters:
1833:.\Generated_Source\PSoC4/CyLib.c **** *  reason: Value to be used during debugging.
1834:.\Generated_Source\PSoC4/CyLib.c **** *
1835:.\Generated_Source\PSoC4/CyLib.c **** * Return:
1836:.\Generated_Source\PSoC4/CyLib.c **** *  None
1837:.\Generated_Source\PSoC4/CyLib.c **** *
1838:.\Generated_Source\PSoC4/CyLib.c **** *******************************************************************************/
1839:.\Generated_Source\PSoC4/CyLib.c **** void CyHalt(uint8 reason)
1840:.\Generated_Source\PSoC4/CyLib.c **** {
1841:.\Generated_Source\PSoC4/CyLib.c ****     if(0u != reason)
1842:.\Generated_Source\PSoC4/CyLib.c ****     {
1843:.\Generated_Source\PSoC4/CyLib.c ****         /* To remove unreferenced local variable warning */
1844:.\Generated_Source\PSoC4/CyLib.c ****     }
1845:.\Generated_Source\PSoC4/CyLib.c **** 
1846:.\Generated_Source\PSoC4/CyLib.c ****     #if defined (__ARMCC_VERSION)
1847:.\Generated_Source\PSoC4/CyLib.c ****         __breakpoint(0x0);
1848:.\Generated_Source\PSoC4/CyLib.c ****     #elif defined(__GNUC__) || defined (__ICCARM__)
1849:.\Generated_Source\PSoC4/CyLib.c ****         __asm("    bkpt    1");
 352              		.loc 1 1849 0
 353              	@ 1849 ".\Generated_Source\PSoC4\CyLib.c" 1
 354 0006 01BE     		    bkpt    1
 355              	@ 0 "" 2
 356              	.LVL18:
 357              		.code	16
 358              	.L29:
 359              	.LBE35:
 360              	.LBE34:
 443:.\Generated_Source\PSoC4/CyLib.c ****         return ((CY_SYS_WDT_CONTROL_REG >> ((CY_SYS_WDT_CNT_SHIFT * counterNum) + CY_SYS_WDT_CNT_ST
 361              		.loc 1 443 0
ARM GAS  C:\Users\vrnk\AppData\Local\Temp\cchVr3qk.s 			page 40


 362 0008 044B     		ldr	r3, .L30
 363 000a C000     		lsl	r0, r0, #3
 364              	.LVL19:
 365 000c 1968     		ldr	r1, [r3]
 366 000e 0130     		add	r0, r0, #1
 367 0010 C140     		lsr	r1, r1, r0
 368 0012 081C     		mov	r0, r1
 369 0014 0122     		mov	r2, #1
 370 0016 1040     		and	r0, r2
 444:.\Generated_Source\PSoC4/CyLib.c ****     }
 371              		.loc 1 444 0
 372              		@ sp needed for prologue
 373 0018 00BD     		pop	{pc}
 374              	.L31:
 375 001a C046     		.align	2
 376              	.L30:
 377 001c 10020B40 		.word	1074463248
 378              		.cfi_endproc
 379              	.LFE9:
 380              		.size	CySysWdtReadEnabledStatus, .-CySysWdtReadEnabledStatus
 381              		.section	.text.CySysWdtWriteMode,"ax",%progbits
 382              		.align	1
 383              		.global	CySysWdtWriteMode
 384              		.code	16
 385              		.thumb_func
 386              		.type	CySysWdtWriteMode, %function
 387              	CySysWdtWriteMode:
 388              	.LFB10:
 476:.\Generated_Source\PSoC4/CyLib.c ****     {
 389              		.loc 1 476 0
 390              		.cfi_startproc
 391              	.LVL20:
 392 0000 38B5     		push	{r3, r4, r5, lr}
 393              	.LCFI4:
 394              		.cfi_def_cfa_offset 16
 395              		.cfi_offset 3, -16
 396              		.cfi_offset 4, -12
 397              		.cfi_offset 5, -8
 398              		.cfi_offset 14, -4
 476:.\Generated_Source\PSoC4/CyLib.c ****     {
 399              		.loc 1 476 0
 400 0002 041C     		mov	r4, r0
 401 0004 0D1C     		mov	r5, r1
 479:.\Generated_Source\PSoC4/CyLib.c ****         CYASSERT(counterNum < CY_SYS_WDT_COUNTERS_MAX);
 402              		.loc 1 479 0
 403 0006 0228     		cmp	r0, #2
 404 0008 00D9     		bls	.L33
 405              	.LVL21:
 406              	.LBB36:
 407              	.LBB37:
 408              		.loc 1 1849 0
 409              	@ 1849 ".\Generated_Source\PSoC4\CyLib.c" 1
 410 000a 01BE     		    bkpt    1
 411              	@ 0 "" 2
 412              	.LVL22:
 413              		.code	16
 414              	.L33:
ARM GAS  C:\Users\vrnk\AppData\Local\Temp\cchVr3qk.s 			page 41


 415              	.LBE37:
 416              	.LBE36:
 484:.\Generated_Source\PSoC4/CyLib.c ****         if (0u == (CY_SYS_CLK_ILO_CONFIG_REG & CY_SYS_CLK_ILO_CONFIG_ENABLE))
 417              		.loc 1 484 0
 418 000c 0B4B     		ldr	r3, .L36
 419 000e 1868     		ldr	r0, [r3]
 420              	.LVL23:
 421 0010 0028     		cmp	r0, #0
 422 0012 01DB     		blt	.L34
 486:.\Generated_Source\PSoC4/CyLib.c ****             CySysClkIloStart();
 423              		.loc 1 486 0
 424 0014 FFF7FEFF 		bl	CySysClkIloStart
 425              	.LVL24:
 426              	.L34:
 489:.\Generated_Source\PSoC4/CyLib.c ****         if(0u == CySysWdtReadEnabledStatus(counterNum))
 427              		.loc 1 489 0
 428 0018 201C     		mov	r0, r4
 429 001a FFF7FEFF 		bl	CySysWdtReadEnabledStatus
 430              	.LVL25:
 431 001e 0028     		cmp	r0, #0
 432 0020 0AD1     		bne	.L32
 491:.\Generated_Source\PSoC4/CyLib.c ****             configRegValue = CY_SYS_WDT_CONFIG_REG &
 433              		.loc 1 491 0
 434 0022 074B     		ldr	r3, .L36+4
 492:.\Generated_Source\PSoC4/CyLib.c ****                                 (uint32)~((uint32)(CY_SYS_WDT_MODE_MASK << (counterNum * CY_SYS_WDT
 435              		.loc 1 492 0
 436 0024 0322     		mov	r2, #3
 491:.\Generated_Source\PSoC4/CyLib.c ****             configRegValue = CY_SYS_WDT_CONFIG_REG &
 437              		.loc 1 491 0
 438 0026 1968     		ldr	r1, [r3]
 492:.\Generated_Source\PSoC4/CyLib.c ****                                 (uint32)~((uint32)(CY_SYS_WDT_MODE_MASK << (counterNum * CY_SYS_WDT
 439              		.loc 1 492 0
 440 0028 E400     		lsl	r4, r4, #3
 441              	.LVL26:
 442 002a 101C     		mov	r0, r2
 443 002c A040     		lsl	r0, r0, r4
 493:.\Generated_Source\PSoC4/CyLib.c ****             configRegValue |= (uint32)((mode & CY_SYS_WDT_MODE_MASK) << (counterNum * CY_SYS_WDT_CN
 444              		.loc 1 493 0
 445 002e 1540     		and	r5, r2
 446              	.LVL27:
 491:.\Generated_Source\PSoC4/CyLib.c ****             configRegValue = CY_SYS_WDT_CONFIG_REG &
 447              		.loc 1 491 0
 448 0030 8143     		bic	r1, r0
 449              	.LVL28:
 493:.\Generated_Source\PSoC4/CyLib.c ****             configRegValue |= (uint32)((mode & CY_SYS_WDT_MODE_MASK) << (counterNum * CY_SYS_WDT_CN
 450              		.loc 1 493 0
 451 0032 A540     		lsl	r5, r5, r4
 452 0034 2943     		orr	r1, r5
 453              	.LVL29:
 494:.\Generated_Source\PSoC4/CyLib.c ****             CY_SYS_WDT_CONFIG_REG = configRegValue;
 454              		.loc 1 494 0
 455 0036 1960     		str	r1, [r3]
 456              	.LVL30:
 457              	.L32:
 496:.\Generated_Source\PSoC4/CyLib.c ****     }
 458              		.loc 1 496 0
 459              		@ sp needed for prologue
ARM GAS  C:\Users\vrnk\AppData\Local\Temp\cchVr3qk.s 			page 42


 460 0038 38BD     		pop	{r3, r4, r5, pc}
 461              	.L37:
 462 003a C046     		.align	2
 463              	.L36:
 464 003c 04010B40 		.word	1074462980
 465 0040 0C020B40 		.word	1074463244
 466              		.cfi_endproc
 467              	.LFE10:
 468              		.size	CySysWdtWriteMode, .-CySysWdtWriteMode
 469              		.section	.text.CySysWdtReadMode,"ax",%progbits
 470              		.align	1
 471              		.global	CySysWdtReadMode
 472              		.code	16
 473              		.thumb_func
 474              		.type	CySysWdtReadMode, %function
 475              	CySysWdtReadMode:
 476              	.LFB11:
 515:.\Generated_Source\PSoC4/CyLib.c ****     {
 477              		.loc 1 515 0
 478              		.cfi_startproc
 479              	.LVL31:
 516:.\Generated_Source\PSoC4/CyLib.c ****         return ((CY_SYS_WDT_CONFIG_REG >> (counterNum * CY_SYS_WDT_CNT_SHIFT)) & CY_SYS_WDT_MODE_MA
 480              		.loc 1 516 0
 481 0000 034B     		ldr	r3, .L39
 482 0002 C000     		lsl	r0, r0, #3
 483              	.LVL32:
 484 0004 1968     		ldr	r1, [r3]
 485 0006 0322     		mov	r2, #3
 486 0008 C140     		lsr	r1, r1, r0
 487 000a 081C     		mov	r0, r1
 488 000c 1040     		and	r0, r2
 517:.\Generated_Source\PSoC4/CyLib.c ****     }
 489              		.loc 1 517 0
 490              		@ sp needed for prologue
 491 000e 7047     		bx	lr
 492              	.L40:
 493              		.align	2
 494              	.L39:
 495 0010 0C020B40 		.word	1074463244
 496              		.cfi_endproc
 497              	.LFE11:
 498              		.size	CySysWdtReadMode, .-CySysWdtReadMode
 499              		.section	.text.CySysWdtWriteClearOnMatch,"ax",%progbits
 500              		.align	1
 501              		.global	CySysWdtWriteClearOnMatch
 502              		.code	16
 503              		.thumb_func
 504              		.type	CySysWdtWriteClearOnMatch, %function
 505              	CySysWdtWriteClearOnMatch:
 506              	.LFB12:
 548:.\Generated_Source\PSoC4/CyLib.c ****     {
 507              		.loc 1 548 0
 508              		.cfi_startproc
 509              	.LVL33:
 510 0000 38B5     		push	{r3, r4, r5, lr}
 511              	.LCFI5:
 512              		.cfi_def_cfa_offset 16
ARM GAS  C:\Users\vrnk\AppData\Local\Temp\cchVr3qk.s 			page 43


 513              		.cfi_offset 3, -16
 514              		.cfi_offset 4, -12
 515              		.cfi_offset 5, -8
 516              		.cfi_offset 14, -4
 548:.\Generated_Source\PSoC4/CyLib.c ****     {
 517              		.loc 1 548 0
 518 0002 041C     		mov	r4, r0
 519 0004 0D1C     		mov	r5, r1
 549:.\Generated_Source\PSoC4/CyLib.c ****         CYASSERT((counterNum == CY_SYS_WDT_COUNTER0) ||
 520              		.loc 1 549 0
 521 0006 0128     		cmp	r0, #1
 522 0008 00D9     		bls	.L42
 523              	.LVL34:
 524              	.LBB38:
 525              	.LBB39:
 526              		.loc 1 1849 0
 527              	@ 1849 ".\Generated_Source\PSoC4\CyLib.c" 1
 528 000a 01BE     		    bkpt    1
 529              	@ 0 "" 2
 530              	.LVL35:
 531              		.code	16
 532              	.L42:
 533              	.LBE39:
 534              	.LBE38:
 555:.\Generated_Source\PSoC4/CyLib.c ****         if (0u == (CY_SYS_CLK_ILO_CONFIG_REG & CY_SYS_CLK_ILO_CONFIG_ENABLE))
 535              		.loc 1 555 0
 536 000c 094B     		ldr	r3, .L45
 537 000e 1868     		ldr	r0, [r3]
 538              	.LVL36:
 539 0010 0028     		cmp	r0, #0
 540 0012 01DB     		blt	.L43
 557:.\Generated_Source\PSoC4/CyLib.c ****             CySysClkIloStart();
 541              		.loc 1 557 0
 542 0014 FFF7FEFF 		bl	CySysClkIloStart
 543              	.LVL37:
 544              	.L43:
 560:.\Generated_Source\PSoC4/CyLib.c ****         if(0u == CySysWdtReadEnabledStatus(counterNum))
 545              		.loc 1 560 0
 546 0018 201C     		mov	r0, r4
 547 001a FFF7FEFF 		bl	CySysWdtReadEnabledStatus
 548              	.LVL38:
 549 001e 0028     		cmp	r0, #0
 550 0020 06D1     		bne	.L41
 562:.\Generated_Source\PSoC4/CyLib.c ****             CY_SYS_WDT_CONFIG_REG |= (uint32)(enable << ((counterNum * CY_SYS_WDT_CNT_SHIFT) +
 551              		.loc 1 562 0
 552 0022 0549     		ldr	r1, .L45+4
 553 0024 E400     		lsl	r4, r4, #3
 554              	.LVL39:
 555 0026 0A68     		ldr	r2, [r1]
 556 0028 0234     		add	r4, r4, #2
 557 002a A540     		lsl	r5, r5, r4
 558              	.LVL40:
 559 002c 1543     		orr	r5, r2
 560 002e 0D60     		str	r5, [r1]
 561              	.L41:
 565:.\Generated_Source\PSoC4/CyLib.c ****     }
 562              		.loc 1 565 0
ARM GAS  C:\Users\vrnk\AppData\Local\Temp\cchVr3qk.s 			page 44


 563              		@ sp needed for prologue
 564 0030 38BD     		pop	{r3, r4, r5, pc}
 565              	.L46:
 566 0032 C046     		.align	2
 567              	.L45:
 568 0034 04010B40 		.word	1074462980
 569 0038 0C020B40 		.word	1074463244
 570              		.cfi_endproc
 571              	.LFE12:
 572              		.size	CySysWdtWriteClearOnMatch, .-CySysWdtWriteClearOnMatch
 573              		.section	.text.CySysWdtReadClearOnMatch,"ax",%progbits
 574              		.align	1
 575              		.global	CySysWdtReadClearOnMatch
 576              		.code	16
 577              		.thumb_func
 578              		.type	CySysWdtReadClearOnMatch, %function
 579              	CySysWdtReadClearOnMatch:
 580              	.LFB13:
 584:.\Generated_Source\PSoC4/CyLib.c ****     {
 581              		.loc 1 584 0
 582              		.cfi_startproc
 583              	.LVL41:
 584 0000 00B5     		push	{lr}
 585              	.LCFI6:
 586              		.cfi_def_cfa_offset 4
 587              		.cfi_offset 14, -4
 585:.\Generated_Source\PSoC4/CyLib.c ****         CYASSERT((counterNum == CY_SYS_WDT_COUNTER0) ||
 588              		.loc 1 585 0
 589 0002 0128     		cmp	r0, #1
 590 0004 00D9     		bls	.L48
 591              	.LVL42:
 592              	.LBB40:
 593              	.LBB41:
 594              		.loc 1 1849 0
 595              	@ 1849 ".\Generated_Source\PSoC4\CyLib.c" 1
 596 0006 01BE     		    bkpt    1
 597              	@ 0 "" 2
 598              	.LVL43:
 599              		.code	16
 600              	.L48:
 601              	.LBE41:
 602              	.LBE40:
 588:.\Generated_Source\PSoC4/CyLib.c ****         return (uint32)((CY_SYS_WDT_CONFIG_REG >>
 603              		.loc 1 588 0
 604 0008 044B     		ldr	r3, .L49
 589:.\Generated_Source\PSoC4/CyLib.c ****                             ((counterNum * CY_SYS_WDT_CNT_SHIFT) + CY_SYS_WDT_CNT_MATCH_CLR_SHIFT))
 605              		.loc 1 589 0
 606 000a C000     		lsl	r0, r0, #3
 607              	.LVL44:
 588:.\Generated_Source\PSoC4/CyLib.c ****         return (uint32)((CY_SYS_WDT_CONFIG_REG >>
 608              		.loc 1 588 0
 609 000c 1968     		ldr	r1, [r3]
 589:.\Generated_Source\PSoC4/CyLib.c ****                             ((counterNum * CY_SYS_WDT_CNT_SHIFT) + CY_SYS_WDT_CNT_MATCH_CLR_SHIFT))
 610              		.loc 1 589 0
 611 000e 0230     		add	r0, r0, #2
 588:.\Generated_Source\PSoC4/CyLib.c ****         return (uint32)((CY_SYS_WDT_CONFIG_REG >>
 612              		.loc 1 588 0
ARM GAS  C:\Users\vrnk\AppData\Local\Temp\cchVr3qk.s 			page 45


 613 0010 C140     		lsr	r1, r1, r0
 614 0012 081C     		mov	r0, r1
 615 0014 0122     		mov	r2, #1
 616 0016 1040     		and	r0, r2
 590:.\Generated_Source\PSoC4/CyLib.c ****     }
 617              		.loc 1 590 0
 618              		@ sp needed for prologue
 619 0018 00BD     		pop	{pc}
 620              	.L50:
 621 001a C046     		.align	2
 622              	.L49:
 623 001c 0C020B40 		.word	1074463244
 624              		.cfi_endproc
 625              	.LFE13:
 626              		.size	CySysWdtReadClearOnMatch, .-CySysWdtReadClearOnMatch
 627              		.section	.text.CySysWdtEnable,"ax",%progbits
 628              		.align	1
 629              		.global	CySysWdtEnable
 630              		.code	16
 631              		.thumb_func
 632              		.type	CySysWdtEnable, %function
 633              	CySysWdtEnable:
 634              	.LFB14:
 617:.\Generated_Source\PSoC4/CyLib.c ****     {
 635              		.loc 1 617 0
 636              		.cfi_startproc
 637              	.LVL45:
 621:.\Generated_Source\PSoC4/CyLib.c ****         if (0u == (CY_SYS_CLK_ILO_CONFIG_REG & CY_SYS_CLK_ILO_CONFIG_ENABLE))
 638              		.loc 1 621 0
 639 0000 064B     		ldr	r3, .L53
 617:.\Generated_Source\PSoC4/CyLib.c ****     {
 640              		.loc 1 617 0
 641 0002 10B5     		push	{r4, lr}
 642              	.LCFI7:
 643              		.cfi_def_cfa_offset 8
 644              		.cfi_offset 4, -8
 645              		.cfi_offset 14, -4
 617:.\Generated_Source\PSoC4/CyLib.c ****     {
 646              		.loc 1 617 0
 647 0004 041C     		mov	r4, r0
 621:.\Generated_Source\PSoC4/CyLib.c ****         if (0u == (CY_SYS_CLK_ILO_CONFIG_REG & CY_SYS_CLK_ILO_CONFIG_ENABLE))
 648              		.loc 1 621 0
 649 0006 1868     		ldr	r0, [r3]
 650              	.LVL46:
 651 0008 0028     		cmp	r0, #0
 652 000a 01DB     		blt	.L52
 623:.\Generated_Source\PSoC4/CyLib.c ****             CySysClkIloStart();
 653              		.loc 1 623 0
 654 000c FFF7FEFF 		bl	CySysClkIloStart
 655              	.LVL47:
 656              	.L52:
 626:.\Generated_Source\PSoC4/CyLib.c ****         CY_SYS_WDT_CONTROL_REG |= counterMask;
 657              		.loc 1 626 0
 658 0010 0349     		ldr	r1, .L53+4
 627:.\Generated_Source\PSoC4/CyLib.c ****     }
 659              		.loc 1 627 0
 660              		@ sp needed for prologue
ARM GAS  C:\Users\vrnk\AppData\Local\Temp\cchVr3qk.s 			page 46


 626:.\Generated_Source\PSoC4/CyLib.c ****         CY_SYS_WDT_CONTROL_REG |= counterMask;
 661              		.loc 1 626 0
 662 0012 0A68     		ldr	r2, [r1]
 663 0014 1443     		orr	r4, r2
 664              	.LVL48:
 665 0016 0C60     		str	r4, [r1]
 627:.\Generated_Source\PSoC4/CyLib.c ****     }
 666              		.loc 1 627 0
 667 0018 10BD     		pop	{r4, pc}
 668              	.L54:
 669 001a C046     		.align	2
 670              	.L53:
 671 001c 04010B40 		.word	1074462980
 672 0020 10020B40 		.word	1074463248
 673              		.cfi_endproc
 674              	.LFE14:
 675              		.size	CySysWdtEnable, .-CySysWdtEnable
 676              		.section	.text.CySysWdtDisable,"ax",%progbits
 677              		.align	1
 678              		.global	CySysWdtDisable
 679              		.code	16
 680              		.thumb_func
 681              		.type	CySysWdtDisable, %function
 682              	CySysWdtDisable:
 683              	.LFB15:
 654:.\Generated_Source\PSoC4/CyLib.c ****     {
 684              		.loc 1 654 0
 685              		.cfi_startproc
 686              	.LVL49:
 658:.\Generated_Source\PSoC4/CyLib.c ****         if (0u == (CY_SYS_CLK_ILO_CONFIG_REG & CY_SYS_CLK_ILO_CONFIG_ENABLE))
 687              		.loc 1 658 0
 688 0000 064B     		ldr	r3, .L57
 654:.\Generated_Source\PSoC4/CyLib.c ****     {
 689              		.loc 1 654 0
 690 0002 10B5     		push	{r4, lr}
 691              	.LCFI8:
 692              		.cfi_def_cfa_offset 8
 693              		.cfi_offset 4, -8
 694              		.cfi_offset 14, -4
 654:.\Generated_Source\PSoC4/CyLib.c ****     {
 695              		.loc 1 654 0
 696 0004 041C     		mov	r4, r0
 658:.\Generated_Source\PSoC4/CyLib.c ****         if (0u == (CY_SYS_CLK_ILO_CONFIG_REG & CY_SYS_CLK_ILO_CONFIG_ENABLE))
 697              		.loc 1 658 0
 698 0006 1868     		ldr	r0, [r3]
 699              	.LVL50:
 700 0008 0028     		cmp	r0, #0
 701 000a 01DB     		blt	.L56
 660:.\Generated_Source\PSoC4/CyLib.c ****             CySysClkIloStart();
 702              		.loc 1 660 0
 703 000c FFF7FEFF 		bl	CySysClkIloStart
 704              	.LVL51:
 705              	.L56:
 663:.\Generated_Source\PSoC4/CyLib.c ****         CY_SYS_WDT_CONTROL_REG &= ~counterMask;
 706              		.loc 1 663 0
 707 0010 0349     		ldr	r1, .L57+4
 664:.\Generated_Source\PSoC4/CyLib.c ****     }
ARM GAS  C:\Users\vrnk\AppData\Local\Temp\cchVr3qk.s 			page 47


 708              		.loc 1 664 0
 709              		@ sp needed for prologue
 663:.\Generated_Source\PSoC4/CyLib.c ****         CY_SYS_WDT_CONTROL_REG &= ~counterMask;
 710              		.loc 1 663 0
 711 0012 0A68     		ldr	r2, [r1]
 712 0014 A243     		bic	r2, r4
 713 0016 0A60     		str	r2, [r1]
 714              	.LVL52:
 664:.\Generated_Source\PSoC4/CyLib.c ****     }
 715              		.loc 1 664 0
 716 0018 10BD     		pop	{r4, pc}
 717              	.L58:
 718 001a C046     		.align	2
 719              	.L57:
 720 001c 04010B40 		.word	1074462980
 721 0020 10020B40 		.word	1074463248
 722              		.cfi_endproc
 723              	.LFE15:
 724              		.size	CySysWdtDisable, .-CySysWdtDisable
 725              		.section	.text.CySysWdtWriteCascade,"ax",%progbits
 726              		.align	1
 727              		.global	CySysWdtWriteCascade
 728              		.code	16
 729              		.thumb_func
 730              		.type	CySysWdtWriteCascade, %function
 731              	CySysWdtWriteCascade:
 732              	.LFB16:
 693:.\Generated_Source\PSoC4/CyLib.c ****     {
 733              		.loc 1 693 0
 734              		.cfi_startproc
 735              	.LVL53:
 736              	.LBB54:
 737              	.LBB55:
 443:.\Generated_Source\PSoC4/CyLib.c ****         return ((CY_SYS_WDT_CONTROL_REG >> ((CY_SYS_WDT_CNT_SHIFT * counterNum) + CY_SYS_WDT_CNT_ST
 738              		.loc 1 443 0
 739 0000 0C4B     		ldr	r3, .L62
 740              	.LBE55:
 741              	.LBE54:
 693:.\Generated_Source\PSoC4/CyLib.c ****     {
 742              		.loc 1 693 0
 743 0002 10B5     		push	{r4, lr}
 744              	.LCFI9:
 745              		.cfi_def_cfa_offset 8
 746              		.cfi_offset 4, -8
 747              		.cfi_offset 14, -4
 693:.\Generated_Source\PSoC4/CyLib.c ****     {
 748              		.loc 1 693 0
 749 0004 041C     		mov	r4, r0
 750              	.LBB58:
 751              	.LBB56:
 443:.\Generated_Source\PSoC4/CyLib.c ****         return ((CY_SYS_WDT_CONTROL_REG >> ((CY_SYS_WDT_CNT_SHIFT * counterNum) + CY_SYS_WDT_CNT_ST
 752              		.loc 1 443 0
 753 0006 1868     		ldr	r0, [r3]
 754              	.LVL54:
 755              	.LBE56:
 756              	.LBE58:
 757              	.LBB59:
ARM GAS  C:\Users\vrnk\AppData\Local\Temp\cchVr3qk.s 			page 48


 758              	.LBB60:
 759 0008 1968     		ldr	r1, [r3]
 760              	.LVL55:
 761              	.LBE60:
 762              	.LBE59:
 763              	.LBB62:
 764              	.LBB63:
 765 000a 1A68     		ldr	r2, [r3]
 766              	.LVL56:
 767              	.LBE63:
 768              	.LBE62:
 769              	.LBB65:
 770              	.LBB61:
 771 000c 490A     		lsr	r1, r1, #9
 772              	.LVL57:
 773              	.LBE61:
 774              	.LBE65:
 775              	.LBB66:
 776              	.LBB57:
 777 000e 4308     		lsr	r3, r0, #1
 778 0010 0B43     		orr	r3, r1
 779              	.LBE57:
 780              	.LBE66:
 781              	.LBB67:
 782              	.LBB64:
 783 0012 500C     		lsr	r0, r2, #17
 784 0014 0343     		orr	r3, r0
 785              	.LBE64:
 786              	.LBE67:
 701:.\Generated_Source\PSoC4/CyLib.c ****         if (0u == countersEnableStatus)
 787              		.loc 1 701 0
 788 0016 DA07     		lsl	r2, r3, #31
 789 0018 0BD4     		bmi	.L59
 706:.\Generated_Source\PSoC4/CyLib.c ****             if (0u == (CY_SYS_CLK_ILO_CONFIG_REG & CY_SYS_CLK_ILO_CONFIG_ENABLE))
 790              		.loc 1 706 0
 791 001a 074A     		ldr	r2, .L62+4
 792 001c 1168     		ldr	r1, [r2]
 793 001e 0029     		cmp	r1, #0
 794 0020 01DB     		blt	.L61
 708:.\Generated_Source\PSoC4/CyLib.c ****                 CySysClkIloStart();
 795              		.loc 1 708 0
 796 0022 FFF7FEFF 		bl	CySysClkIloStart
 797              	.LVL58:
 798              	.L61:
 711:.\Generated_Source\PSoC4/CyLib.c ****             configRegValue = CY_SYS_WDT_CONFIG_REG;
 799              		.loc 1 711 0
 800 0026 054B     		ldr	r3, .L62+8
 712:.\Generated_Source\PSoC4/CyLib.c ****             configRegValue &= ((uint32)(~(CY_SYS_WDT_CASCADE_01|CY_SYS_WDT_CASCADE_12)));
 801              		.loc 1 712 0
 802 0028 054A     		ldr	r2, .L62+12
 711:.\Generated_Source\PSoC4/CyLib.c ****             configRegValue = CY_SYS_WDT_CONFIG_REG;
 803              		.loc 1 711 0
 804 002a 1868     		ldr	r0, [r3]
 805              	.LVL59:
 712:.\Generated_Source\PSoC4/CyLib.c ****             configRegValue &= ((uint32)(~(CY_SYS_WDT_CASCADE_01|CY_SYS_WDT_CASCADE_12)));
 806              		.loc 1 712 0
 807 002c 0240     		and	r2, r0
ARM GAS  C:\Users\vrnk\AppData\Local\Temp\cchVr3qk.s 			page 49


 808              	.LVL60:
 713:.\Generated_Source\PSoC4/CyLib.c ****             configRegValue |= cascadeMask;
 809              		.loc 1 713 0
 810 002e 1443     		orr	r4, r2
 811              	.LVL61:
 714:.\Generated_Source\PSoC4/CyLib.c ****             CY_SYS_WDT_CONFIG_REG = configRegValue;
 812              		.loc 1 714 0
 813 0030 1C60     		str	r4, [r3]
 814              	.LVL62:
 815              	.L59:
 716:.\Generated_Source\PSoC4/CyLib.c ****     }
 816              		.loc 1 716 0
 817              		@ sp needed for prologue
 818 0032 10BD     		pop	{r4, pc}
 819              	.L63:
 820              		.align	2
 821              	.L62:
 822 0034 10020B40 		.word	1074463248
 823 0038 04010B40 		.word	1074462980
 824 003c 0C020B40 		.word	1074463244
 825 0040 F7F7FFFF 		.word	-2057
 826              		.cfi_endproc
 827              	.LFE16:
 828              		.size	CySysWdtWriteCascade, .-CySysWdtWriteCascade
 829              		.section	.text.CySysWdtReadCascade,"ax",%progbits
 830              		.align	1
 831              		.global	CySysWdtReadCascade
 832              		.code	16
 833              		.thumb_func
 834              		.type	CySysWdtReadCascade, %function
 835              	CySysWdtReadCascade:
 836              	.LFB17:
 738:.\Generated_Source\PSoC4/CyLib.c ****     {
 837              		.loc 1 738 0
 838              		.cfi_startproc
 739:.\Generated_Source\PSoC4/CyLib.c ****         return (CY_SYS_WDT_CONFIG_REG & (CY_SYS_WDT_CASCADE_01 | CY_SYS_WDT_CASCADE_12));
 839              		.loc 1 739 0
 840 0000 024B     		ldr	r3, .L65
 841 0002 0349     		ldr	r1, .L65+4
 842 0004 1868     		ldr	r0, [r3]
 740:.\Generated_Source\PSoC4/CyLib.c ****     }
 843              		.loc 1 740 0
 844              		@ sp needed for prologue
 739:.\Generated_Source\PSoC4/CyLib.c ****         return (CY_SYS_WDT_CONFIG_REG & (CY_SYS_WDT_CASCADE_01 | CY_SYS_WDT_CASCADE_12));
 845              		.loc 1 739 0
 846 0006 0840     		and	r0, r1
 740:.\Generated_Source\PSoC4/CyLib.c ****     }
 847              		.loc 1 740 0
 848 0008 7047     		bx	lr
 849              	.L66:
 850 000a C046     		.align	2
 851              	.L65:
 852 000c 0C020B40 		.word	1074463244
 853 0010 08080000 		.word	2056
 854              		.cfi_endproc
 855              	.LFE17:
 856              		.size	CySysWdtReadCascade, .-CySysWdtReadCascade
ARM GAS  C:\Users\vrnk\AppData\Local\Temp\cchVr3qk.s 			page 50


 857              		.section	.text.CySysWdtWriteToggleBit,"ax",%progbits
 858              		.align	1
 859              		.global	CySysWdtWriteToggleBit
 860              		.code	16
 861              		.thumb_func
 862              		.type	CySysWdtWriteToggleBit, %function
 863              	CySysWdtWriteToggleBit:
 864              	.LFB19:
 812:.\Generated_Source\PSoC4/CyLib.c ****     {
 865              		.loc 1 812 0
 866              		.cfi_startproc
 867              	.LVL63:
 868              	.LBB72:
 869              	.LBB73:
 443:.\Generated_Source\PSoC4/CyLib.c ****         return ((CY_SYS_WDT_CONTROL_REG >> ((CY_SYS_WDT_CNT_SHIFT * counterNum) + CY_SYS_WDT_CNT_ST
 870              		.loc 1 443 0
 871 0000 0A4B     		ldr	r3, .L70
 872              	.LBE73:
 873              	.LBE72:
 812:.\Generated_Source\PSoC4/CyLib.c ****     {
 874              		.loc 1 812 0
 875 0002 10B5     		push	{r4, lr}
 876              	.LCFI10:
 877              		.cfi_def_cfa_offset 8
 878              		.cfi_offset 4, -8
 879              		.cfi_offset 14, -4
 812:.\Generated_Source\PSoC4/CyLib.c ****     {
 880              		.loc 1 812 0
 881 0004 041C     		mov	r4, r0
 882              	.LBB75:
 883              	.LBB74:
 443:.\Generated_Source\PSoC4/CyLib.c ****         return ((CY_SYS_WDT_CONTROL_REG >> ((CY_SYS_WDT_CNT_SHIFT * counterNum) + CY_SYS_WDT_CNT_ST
 884              		.loc 1 443 0
 885 0006 1868     		ldr	r0, [r3]
 886              	.LVL64:
 887              	.LBE74:
 888              	.LBE75:
 815:.\Generated_Source\PSoC4/CyLib.c ****         if (0u == CySysWdtReadEnabledStatus(CY_SYS_WDT_COUNTER2))
 889              		.loc 1 815 0
 890 0008 8203     		lsl	r2, r0, #14
 891 000a 0ED4     		bmi	.L67
 820:.\Generated_Source\PSoC4/CyLib.c ****             if (0u == (CY_SYS_CLK_ILO_CONFIG_REG & CY_SYS_CLK_ILO_CONFIG_ENABLE))
 892              		.loc 1 820 0
 893 000c 0849     		ldr	r1, .L70+4
 894 000e 0A68     		ldr	r2, [r1]
 895 0010 002A     		cmp	r2, #0
 896 0012 01DB     		blt	.L69
 822:.\Generated_Source\PSoC4/CyLib.c ****                 CySysClkIloStart();
 897              		.loc 1 822 0
 898 0014 FFF7FEFF 		bl	CySysClkIloStart
 899              	.LVL65:
 900              	.L69:
 825:.\Generated_Source\PSoC4/CyLib.c ****             configRegValue = CY_SYS_WDT_CONFIG_REG;
 901              		.loc 1 825 0
 902 0018 064B     		ldr	r3, .L70+8
 826:.\Generated_Source\PSoC4/CyLib.c ****             configRegValue &= (uint32)(~((uint32)(CY_SYS_WDT_CONFIG_BITS2_MASK << CY_SYS_WDT_CONFIG
 903              		.loc 1 826 0
ARM GAS  C:\Users\vrnk\AppData\Local\Temp\cchVr3qk.s 			page 51


 904 001a 074A     		ldr	r2, .L70+12
 825:.\Generated_Source\PSoC4/CyLib.c ****             configRegValue = CY_SYS_WDT_CONFIG_REG;
 905              		.loc 1 825 0
 906 001c 1868     		ldr	r0, [r3]
 907              	.LVL66:
 827:.\Generated_Source\PSoC4/CyLib.c ****             configRegValue |= ((bits & CY_SYS_WDT_CONFIG_BITS2_MASK) << CY_SYS_WDT_CONFIG_BITS2_POS
 908              		.loc 1 827 0
 909 001e 1F21     		mov	r1, #31
 910 0020 0C40     		and	r4, r1
 911              	.LVL67:
 826:.\Generated_Source\PSoC4/CyLib.c ****             configRegValue &= (uint32)(~((uint32)(CY_SYS_WDT_CONFIG_BITS2_MASK << CY_SYS_WDT_CONFIG
 912              		.loc 1 826 0
 913 0022 0240     		and	r2, r0
 914              	.LVL68:
 827:.\Generated_Source\PSoC4/CyLib.c ****             configRegValue |= ((bits & CY_SYS_WDT_CONFIG_BITS2_MASK) << CY_SYS_WDT_CONFIG_BITS2_POS
 915              		.loc 1 827 0
 916 0024 2406     		lsl	r4, r4, #24
 917 0026 1443     		orr	r4, r2
 918              	.LVL69:
 828:.\Generated_Source\PSoC4/CyLib.c ****             CY_SYS_WDT_CONFIG_REG = configRegValue;
 919              		.loc 1 828 0
 920 0028 1C60     		str	r4, [r3]
 921              	.LVL70:
 922              	.L67:
 830:.\Generated_Source\PSoC4/CyLib.c ****     }
 923              		.loc 1 830 0
 924              		@ sp needed for prologue
 925 002a 10BD     		pop	{r4, pc}
 926              	.L71:
 927              		.align	2
 928              	.L70:
 929 002c 10020B40 		.word	1074463248
 930 0030 04010B40 		.word	1074462980
 931 0034 0C020B40 		.word	1074463244
 932 0038 FFFFFFE0 		.word	-520093697
 933              		.cfi_endproc
 934              	.LFE19:
 935              		.size	CySysWdtWriteToggleBit, .-CySysWdtWriteToggleBit
 936              		.section	.text.CySysWdtReadToggleBit,"ax",%progbits
 937              		.align	1
 938              		.global	CySysWdtReadToggleBit
 939              		.code	16
 940              		.thumb_func
 941              		.type	CySysWdtReadToggleBit, %function
 942              	CySysWdtReadToggleBit:
 943              	.LFB20:
 848:.\Generated_Source\PSoC4/CyLib.c ****     {
 944              		.loc 1 848 0
 945              		.cfi_startproc
 849:.\Generated_Source\PSoC4/CyLib.c ****         return ((CY_SYS_WDT_CONFIG_REG >> CY_SYS_WDT_CONFIG_BITS2_POS) & CY_SYS_WDT_CONFIG_BITS2_MA
 946              		.loc 1 849 0
 947 0000 024B     		ldr	r3, .L73
 850:.\Generated_Source\PSoC4/CyLib.c ****     }
 948              		.loc 1 850 0
 949              		@ sp needed for prologue
 849:.\Generated_Source\PSoC4/CyLib.c ****         return ((CY_SYS_WDT_CONFIG_REG >> CY_SYS_WDT_CONFIG_BITS2_POS) & CY_SYS_WDT_CONFIG_BITS2_MA
 950              		.loc 1 849 0
ARM GAS  C:\Users\vrnk\AppData\Local\Temp\cchVr3qk.s 			page 52


 951 0002 1868     		ldr	r0, [r3]
 952 0004 C100     		lsl	r1, r0, #3
 953 0006 C80E     		lsr	r0, r1, #27
 850:.\Generated_Source\PSoC4/CyLib.c ****     }
 954              		.loc 1 850 0
 955 0008 7047     		bx	lr
 956              	.L74:
 957 000a C046     		.align	2
 958              	.L73:
 959 000c 0C020B40 		.word	1074463244
 960              		.cfi_endproc
 961              	.LFE20:
 962              		.size	CySysWdtReadToggleBit, .-CySysWdtReadToggleBit
 963              		.section	.text.CySysWdtReadMatch,"ax",%progbits
 964              		.align	1
 965              		.global	CySysWdtReadMatch
 966              		.code	16
 967              		.thumb_func
 968              		.type	CySysWdtReadMatch, %function
 969              	CySysWdtReadMatch:
 970              	.LFB21:
 869:.\Generated_Source\PSoC4/CyLib.c ****     {
 971              		.loc 1 869 0
 972              		.cfi_startproc
 973              	.LVL71:
 974 0000 00B5     		push	{lr}
 975              	.LCFI11:
 976              		.cfi_def_cfa_offset 4
 977              		.cfi_offset 14, -4
 870:.\Generated_Source\PSoC4/CyLib.c ****         CYASSERT((counterNum == CY_SYS_WDT_COUNTER0) ||
 978              		.loc 1 870 0
 979 0002 0128     		cmp	r0, #1
 980 0004 00D9     		bls	.L76
 981              	.LVL72:
 982              	.LBB76:
 983              	.LBB77:
 984              		.loc 1 1849 0
 985              	@ 1849 ".\Generated_Source\PSoC4\CyLib.c" 1
 986 0006 01BE     		    bkpt    1
 987              	@ 0 "" 2
 988              	.LVL73:
 989              		.code	16
 990              	.L76:
 991              	.LBE77:
 992              	.LBE76:
 872:.\Generated_Source\PSoC4/CyLib.c ****         return ((uint32)(CY_SYS_WDT_MATCH_REG >> (counterNum * CY_SYS_WDT_CNT_MATCH_SHIFT)) & CY_SY
 993              		.loc 1 872 0
 994 0008 024B     		ldr	r3, .L77
 995 000a 0001     		lsl	r0, r0, #4
 996              	.LVL74:
 997 000c 1968     		ldr	r1, [r3]
 873:.\Generated_Source\PSoC4/CyLib.c ****     }
 998              		.loc 1 873 0
 999              		@ sp needed for prologue
 872:.\Generated_Source\PSoC4/CyLib.c ****         return ((uint32)(CY_SYS_WDT_MATCH_REG >> (counterNum * CY_SYS_WDT_CNT_MATCH_SHIFT)) & CY_SY
 1000              		.loc 1 872 0
 1001 000e C140     		lsr	r1, r1, r0
ARM GAS  C:\Users\vrnk\AppData\Local\Temp\cchVr3qk.s 			page 53


 1002 0010 88B2     		uxth	r0, r1
 873:.\Generated_Source\PSoC4/CyLib.c ****     }
 1003              		.loc 1 873 0
 1004 0012 00BD     		pop	{pc}
 1005              	.L78:
 1006              		.align	2
 1007              	.L77:
 1008 0014 08020B40 		.word	1074463240
 1009              		.cfi_endproc
 1010              	.LFE21:
 1011              		.size	CySysWdtReadMatch, .-CySysWdtReadMatch
 1012              		.section	.text.CySysWdtReadCount,"ax",%progbits
 1013              		.align	1
 1014              		.global	CySysWdtReadCount
 1015              		.code	16
 1016              		.thumb_func
 1017              		.type	CySysWdtReadCount, %function
 1018              	CySysWdtReadCount:
 1019              	.LFB22:
 892:.\Generated_Source\PSoC4/CyLib.c ****     {
 1020              		.loc 1 892 0
 1021              		.cfi_startproc
 1022              	.LVL75:
 1023 0000 00B5     		push	{lr}
 1024              	.LCFI12:
 1025              		.cfi_def_cfa_offset 4
 1026              		.cfi_offset 14, -4
 895:.\Generated_Source\PSoC4/CyLib.c ****         switch(counterNum)
 1027              		.loc 1 895 0
 1028 0002 0128     		cmp	r0, #1
 1029 0004 0AD0     		beq	.L82
 1030 0006 0028     		cmp	r0, #0
 1031 0008 04D0     		beq	.L81
 1032 000a 0228     		cmp	r0, #2
 1033 000c 0AD1     		bne	.L85
 909:.\Generated_Source\PSoC4/CyLib.c ****                 regValue = CY_SYS_WDT_CTRHIGH_REG;
 1034              		.loc 1 909 0
 1035 000e 074B     		ldr	r3, .L86
 1036 0010 1868     		ldr	r0, [r3]
 1037              	.LVL76:
 910:.\Generated_Source\PSoC4/CyLib.c ****             break;
 1038              		.loc 1 910 0
 1039 0012 09E0     		b	.L84
 1040              	.LVL77:
 1041              	.L81:
 899:.\Generated_Source\PSoC4/CyLib.c ****                 regValue = CY_SYS_WDT_CTRLOW_REG & CY_SYS_WDT_LOWER_16BITS_MASK;
 1042              		.loc 1 899 0
 1043 0014 0648     		ldr	r0, .L86+4
 1044              	.LVL78:
 1045 0016 0168     		ldr	r1, [r0]
 1046 0018 88B2     		uxth	r0, r1
 1047              	.LVL79:
 900:.\Generated_Source\PSoC4/CyLib.c ****             break;
 1048              		.loc 1 900 0
 1049 001a 05E0     		b	.L84
 1050              	.LVL80:
 1051              	.L82:
ARM GAS  C:\Users\vrnk\AppData\Local\Temp\cchVr3qk.s 			page 54


 904:.\Generated_Source\PSoC4/CyLib.c ****                 regValue = (CY_SYS_WDT_CTRLOW_REG >> CY_SYS_WDT_CNT_MATCH_SHIFT) & CY_SYS_WDT_LOWER
 1052              		.loc 1 904 0
 1053 001c 044A     		ldr	r2, .L86+4
 1054 001e 1368     		ldr	r3, [r2]
 1055 0020 180C     		lsr	r0, r3, #16
 1056              	.LVL81:
 905:.\Generated_Source\PSoC4/CyLib.c ****             break;
 1057              		.loc 1 905 0
 1058 0022 01E0     		b	.L84
 1059              	.LVL82:
 1060              	.L85:
 1061              	.LBB78:
 1062              	.LBB79:
 1063              		.loc 1 1849 0
 1064              	@ 1849 ".\Generated_Source\PSoC4\CyLib.c" 1
 1065 0024 01BE     		    bkpt    1
 1066              	@ 0 "" 2
 893:.\Generated_Source\PSoC4/CyLib.c ****         uint32 regValue = 0u;
 1067              		.loc 1 893 0
 1068              		.code	16
 1069 0026 0020     		mov	r0, #0
 1070              	.LVL83:
 1071              	.L84:
 1072              	.LBE79:
 1073              	.LBE78:
 918:.\Generated_Source\PSoC4/CyLib.c ****     }
 1074              		.loc 1 918 0
 1075              		@ sp needed for prologue
 1076 0028 00BD     		pop	{pc}
 1077              	.L87:
 1078 002a C046     		.align	2
 1079              	.L86:
 1080 002c 04020B40 		.word	1074463236
 1081 0030 00020B40 		.word	1074463232
 1082              		.cfi_endproc
 1083              	.LFE22:
 1084              		.size	CySysWdtReadCount, .-CySysWdtReadCount
 1085              		.section	.text.CySysWdtGetInterruptSource,"ax",%progbits
 1086              		.align	1
 1087              		.global	CySysWdtGetInterruptSource
 1088              		.code	16
 1089              		.thumb_func
 1090              		.type	CySysWdtGetInterruptSource, %function
 1091              	CySysWdtGetInterruptSource:
 1092              	.LFB23:
 941:.\Generated_Source\PSoC4/CyLib.c ****     {
 1093              		.loc 1 941 0
 1094              		.cfi_startproc
 942:.\Generated_Source\PSoC4/CyLib.c ****         return (CY_SYS_WDT_CONTROL_REG & (CY_SYS_WDT_COUNTER0_INT | CY_SYS_WDT_COUNTER1_INT | CY_SY
 1095              		.loc 1 942 0
 1096 0000 024B     		ldr	r3, .L89
 1097 0002 0349     		ldr	r1, .L89+4
 1098 0004 1868     		ldr	r0, [r3]
 943:.\Generated_Source\PSoC4/CyLib.c ****     }
 1099              		.loc 1 943 0
 1100              		@ sp needed for prologue
 942:.\Generated_Source\PSoC4/CyLib.c ****         return (CY_SYS_WDT_CONTROL_REG & (CY_SYS_WDT_COUNTER0_INT | CY_SYS_WDT_COUNTER1_INT | CY_SY
ARM GAS  C:\Users\vrnk\AppData\Local\Temp\cchVr3qk.s 			page 55


 1101              		.loc 1 942 0
 1102 0006 0840     		and	r0, r1
 943:.\Generated_Source\PSoC4/CyLib.c ****     }
 1103              		.loc 1 943 0
 1104 0008 7047     		bx	lr
 1105              	.L90:
 1106 000a C046     		.align	2
 1107              	.L89:
 1108 000c 10020B40 		.word	1074463248
 1109 0010 04040400 		.word	263172
 1110              		.cfi_endproc
 1111              	.LFE23:
 1112              		.size	CySysWdtGetInterruptSource, .-CySysWdtGetInterruptSource
 1113              		.section	.text.CySysWdtClearInterrupt,"ax",%progbits
 1114              		.align	1
 1115              		.global	CySysWdtClearInterrupt
 1116              		.code	16
 1117              		.thumb_func
 1118              		.type	CySysWdtClearInterrupt, %function
 1119              	CySysWdtClearInterrupt:
 1120              	.LFB24:
 974:.\Generated_Source\PSoC4/CyLib.c ****     {
 1121              		.loc 1 974 0
 1122              		.cfi_startproc
 1123              	.LVL84:
 1124 0000 70B5     		push	{r4, r5, r6, lr}
 1125              	.LCFI13:
 1126              		.cfi_def_cfa_offset 16
 1127              		.cfi_offset 4, -16
 1128              		.cfi_offset 5, -12
 1129              		.cfi_offset 6, -8
 1130              		.cfi_offset 14, -4
 974:.\Generated_Source\PSoC4/CyLib.c ****     {
 1131              		.loc 1 974 0
 1132 0002 051C     		mov	r5, r0
 978:.\Generated_Source\PSoC4/CyLib.c ****         interruptState = CyEnterCriticalSection();
 1133              		.loc 1 978 0
 1134 0004 FFF7FEFF 		bl	CyEnterCriticalSection
 1135              	.LVL85:
 983:.\Generated_Source\PSoC4/CyLib.c ****         if (0u == (CY_SYS_CLK_ILO_CONFIG_REG & CY_SYS_CLK_ILO_CONFIG_ENABLE))
 1136              		.loc 1 983 0
 1137 0008 164B     		ldr	r3, .L96
 978:.\Generated_Source\PSoC4/CyLib.c ****         interruptState = CyEnterCriticalSection();
 1138              		.loc 1 978 0
 1139 000a 041C     		mov	r4, r0
 1140              	.LVL86:
 983:.\Generated_Source\PSoC4/CyLib.c ****         if (0u == (CY_SYS_CLK_ILO_CONFIG_REG & CY_SYS_CLK_ILO_CONFIG_ENABLE))
 1141              		.loc 1 983 0
 1142 000c 1868     		ldr	r0, [r3]
 1143              	.LVL87:
 1144 000e 0028     		cmp	r0, #0
 1145 0010 01DB     		blt	.L92
 985:.\Generated_Source\PSoC4/CyLib.c ****             CySysClkIloStart();
 1146              		.loc 1 985 0
 1147 0012 FFF7FEFF 		bl	CySysClkIloStart
 1148              	.LVL88:
 1149              	.L92:
ARM GAS  C:\Users\vrnk\AppData\Local\Temp\cchVr3qk.s 			page 56


 988:.\Generated_Source\PSoC4/CyLib.c ****         if ((CY_SYS_CLK_SELECT_REG & (uint32)(CY_SYS_WDT_CLK_LOCK_BITS_MASK)) == CY_SYS_WDT_CLK_LOC
 1150              		.loc 1 988 0
 1151 0016 144B     		ldr	r3, .L96+4
 1152 0018 C021     		mov	r1, #192
 1153 001a 1E68     		ldr	r6, [r3]
 1154 001c 0802     		lsl	r0, r1, #8
 1155 001e 0640     		and	r6, r0
1001:.\Generated_Source\PSoC4/CyLib.c ****             wdtLockState = 0u;
 1156              		.loc 1 1001 0
 1157 0020 0022     		mov	r2, #0
 988:.\Generated_Source\PSoC4/CyLib.c ****         if ((CY_SYS_CLK_SELECT_REG & (uint32)(CY_SYS_WDT_CLK_LOCK_BITS_MASK)) == CY_SYS_WDT_CLK_LOC
 1158              		.loc 1 988 0
 1159 0022 8642     		cmp	r6, r0
 1160 0024 0DD1     		bne	.L93
 1161              	.LVL89:
 993:.\Generated_Source\PSoC4/CyLib.c ****             CY_SYS_CLK_SELECT_REG = ((CY_SYS_CLK_SELECT_REG & (uint32)(~CY_SYS_WDT_CLK_LOCK_BITS_MA
 1162              		.loc 1 993 0
 1163 0026 1E68     		ldr	r6, [r3]
 1164 0028 104A     		ldr	r2, .L96+8
 1165 002a 8021     		mov	r1, #128
 1166 002c C801     		lsl	r0, r1, #7
 1167 002e 1640     		and	r6, r2
 1168 0030 0643     		orr	r6, r0
 1169 0032 1E60     		str	r6, [r3]
 996:.\Generated_Source\PSoC4/CyLib.c ****             CY_SYS_CLK_SELECT_REG = ((CY_SYS_CLK_SELECT_REG & (uint32)(~CY_SYS_WDT_CLK_LOCK_BITS_MA
 1170              		.loc 1 996 0
 1171 0034 1E68     		ldr	r6, [r3]
 1172 0036 8021     		mov	r1, #128
 1173 0038 3240     		and	r2, r6
 1174 003a 0802     		lsl	r0, r1, #8
 1175 003c 0243     		orr	r2, r0
 1176 003e 1A60     		str	r2, [r3]
 990:.\Generated_Source\PSoC4/CyLib.c ****             wdtLockState = 1u;
 1177              		.loc 1 990 0
 1178 0040 0122     		mov	r2, #1
 1179              	.LVL90:
 1180              	.L93:
1005:.\Generated_Source\PSoC4/CyLib.c ****         CY_SYS_WDT_CONTROL_REG |= (counterMask & (CY_SYS_WDT_COUNTER0_INT |
 1181              		.loc 1 1005 0
 1182 0042 0B49     		ldr	r1, .L96+12
 1183 0044 0B4E     		ldr	r6, .L96+16
 1184 0046 0868     		ldr	r0, [r1]
 1185 0048 3540     		and	r5, r6
 1186              	.LVL91:
 1187 004a 0543     		orr	r5, r0
 1188 004c 0D60     		str	r5, [r1]
1008:.\Generated_Source\PSoC4/CyLib.c ****         if (1u == wdtLockState)
 1189              		.loc 1 1008 0
 1190 004e 012A     		cmp	r2, #1
 1191 0050 04D1     		bne	.L94
1011:.\Generated_Source\PSoC4/CyLib.c ****             CY_SYS_CLK_SELECT_REG = (CY_SYS_CLK_SELECT_REG & (uint32)(~CY_SYS_WDT_CLK_LOCK_BITS_MAS
 1192              		.loc 1 1011 0
 1193 0052 1D68     		ldr	r5, [r3]
 1194 0054 C022     		mov	r2, #192
 1195              	.LVL92:
 1196 0056 1102     		lsl	r1, r2, #8
 1197 0058 2943     		orr	r1, r5
ARM GAS  C:\Users\vrnk\AppData\Local\Temp\cchVr3qk.s 			page 57


 1198 005a 1960     		str	r1, [r3]
 1199              	.L94:
1015:.\Generated_Source\PSoC4/CyLib.c ****         CyExitCriticalSection(interruptState);
 1200              		.loc 1 1015 0
 1201 005c 201C     		mov	r0, r4
 1202 005e FFF7FEFF 		bl	CyExitCriticalSection
 1203              	.LVL93:
1016:.\Generated_Source\PSoC4/CyLib.c ****     }
 1204              		.loc 1 1016 0
 1205              		@ sp needed for prologue
 1206              	.LVL94:
 1207 0062 70BD     		pop	{r4, r5, r6, pc}
 1208              	.L97:
 1209              		.align	2
 1210              	.L96:
 1211 0064 04010B40 		.word	1074462980
 1212 0068 00010B40 		.word	1074462976
 1213 006c FF3FFFFF 		.word	-49153
 1214 0070 10020B40 		.word	1074463248
 1215 0074 04040400 		.word	263172
 1216              		.cfi_endproc
 1217              	.LFE24:
 1218              		.size	CySysWdtClearInterrupt, .-CySysWdtClearInterrupt
 1219              		.section	.text.CySysWdtResetCounters,"ax",%progbits
 1220              		.align	1
 1221              		.global	CySysWdtResetCounters
 1222              		.code	16
 1223              		.thumb_func
 1224              		.type	CySysWdtResetCounters, %function
 1225              	CySysWdtResetCounters:
 1226              	.LFB25:
1042:.\Generated_Source\PSoC4/CyLib.c ****     {
 1227              		.loc 1 1042 0
 1228              		.cfi_startproc
 1229              	.LVL95:
1046:.\Generated_Source\PSoC4/CyLib.c ****         if (0u == (CY_SYS_CLK_ILO_CONFIG_REG & CY_SYS_CLK_ILO_CONFIG_ENABLE))
 1230              		.loc 1 1046 0
 1231 0000 074B     		ldr	r3, .L100
1042:.\Generated_Source\PSoC4/CyLib.c ****     {
 1232              		.loc 1 1042 0
 1233 0002 10B5     		push	{r4, lr}
 1234              	.LCFI14:
 1235              		.cfi_def_cfa_offset 8
 1236              		.cfi_offset 4, -8
 1237              		.cfi_offset 14, -4
1042:.\Generated_Source\PSoC4/CyLib.c ****     {
 1238              		.loc 1 1042 0
 1239 0004 041C     		mov	r4, r0
1046:.\Generated_Source\PSoC4/CyLib.c ****         if (0u == (CY_SYS_CLK_ILO_CONFIG_REG & CY_SYS_CLK_ILO_CONFIG_ENABLE))
 1240              		.loc 1 1046 0
 1241 0006 1868     		ldr	r0, [r3]
 1242              	.LVL96:
 1243 0008 0028     		cmp	r0, #0
 1244 000a 01DB     		blt	.L99
1048:.\Generated_Source\PSoC4/CyLib.c ****             CySysClkIloStart();
 1245              		.loc 1 1048 0
 1246 000c FFF7FEFF 		bl	CySysClkIloStart
ARM GAS  C:\Users\vrnk\AppData\Local\Temp\cchVr3qk.s 			page 58


 1247              	.LVL97:
 1248              	.L99:
1052:.\Generated_Source\PSoC4/CyLib.c ****         CY_SYS_WDT_CONTROL_REG |= (countersMask & (CY_SYS_WDT_COUNTER0_RESET |
 1249              		.loc 1 1052 0
 1250 0010 044B     		ldr	r3, .L100+4
 1251 0012 0549     		ldr	r1, .L100+8
 1252 0014 1A68     		ldr	r2, [r3]
 1253 0016 0C40     		and	r4, r1
 1254              	.LVL98:
 1255 0018 1443     		orr	r4, r2
 1256 001a 1C60     		str	r4, [r3]
1054:.\Generated_Source\PSoC4/CyLib.c ****     }
 1257              		.loc 1 1054 0
 1258              		@ sp needed for prologue
 1259 001c 10BD     		pop	{r4, pc}
 1260              	.L101:
 1261 001e C046     		.align	2
 1262              	.L100:
 1263 0020 04010B40 		.word	1074462980
 1264 0024 10020B40 		.word	1074463248
 1265 0028 08080800 		.word	526344
 1266              		.cfi_endproc
 1267              	.LFE25:
 1268              		.size	CySysWdtResetCounters, .-CySysWdtResetCounters
 1269              		.section	.text.CySysLvdEnable,"ax",%progbits
 1270              		.align	1
 1271              		.global	CySysLvdEnable
 1272              		.code	16
 1273              		.thumb_func
 1274              		.type	CySysLvdEnable, %function
 1275              	CySysLvdEnable:
 1276              	.LFB26:
1427:.\Generated_Source\PSoC4/CyLib.c ****     {
 1277              		.loc 1 1427 0
 1278              		.cfi_startproc
 1279              	.LVL99:
1429:.\Generated_Source\PSoC4/CyLib.c ****         CY_LVD_PWR_VMON_CONFIG_REG = (CY_LVD_PWR_VMON_CONFIG_REG & ~CY_LVD_PWR_VMON_CONFIG_LVD_SEL_
 1280              		.loc 1 1429 0
 1281 0000 084B     		ldr	r3, .L103
1430:.\Generated_Source\PSoC4/CyLib.c ****                 ((threshold << CY_LVD_PWR_VMON_CONFIG_LVD_SEL_SHIFT) & CY_LVD_PWR_VMON_CONFIG_LVD_S
 1282              		.loc 1 1430 0
 1283 0002 1E22     		mov	r2, #30
1429:.\Generated_Source\PSoC4/CyLib.c ****         CY_LVD_PWR_VMON_CONFIG_REG = (CY_LVD_PWR_VMON_CONFIG_REG & ~CY_LVD_PWR_VMON_CONFIG_LVD_SEL_
 1284              		.loc 1 1429 0
 1285 0004 1968     		ldr	r1, [r3]
1430:.\Generated_Source\PSoC4/CyLib.c ****                 ((threshold << CY_LVD_PWR_VMON_CONFIG_LVD_SEL_SHIFT) & CY_LVD_PWR_VMON_CONFIG_LVD_S
 1286              		.loc 1 1430 0
 1287 0006 4000     		lsl	r0, r0, #1
 1288              	.LVL100:
1429:.\Generated_Source\PSoC4/CyLib.c ****         CY_LVD_PWR_VMON_CONFIG_REG = (CY_LVD_PWR_VMON_CONFIG_REG & ~CY_LVD_PWR_VMON_CONFIG_LVD_SEL_
 1289              		.loc 1 1429 0
 1290 0008 9143     		bic	r1, r2
1430:.\Generated_Source\PSoC4/CyLib.c ****                 ((threshold << CY_LVD_PWR_VMON_CONFIG_LVD_SEL_SHIFT) & CY_LVD_PWR_VMON_CONFIG_LVD_S
 1291              		.loc 1 1430 0
 1292 000a 1040     		and	r0, r2
1429:.\Generated_Source\PSoC4/CyLib.c ****         CY_LVD_PWR_VMON_CONFIG_REG = (CY_LVD_PWR_VMON_CONFIG_REG & ~CY_LVD_PWR_VMON_CONFIG_LVD_SEL_
 1293              		.loc 1 1429 0
ARM GAS  C:\Users\vrnk\AppData\Local\Temp\cchVr3qk.s 			page 59


 1294 000c 0843     		orr	r0, r1
 1295 000e 1860     		str	r0, [r3]
1432:.\Generated_Source\PSoC4/CyLib.c ****         CY_LVD_PWR_VMON_CONFIG_REG |= CY_LVD_PWR_VMON_CONFIG_LVD_EN;
 1296              		.loc 1 1432 0
 1297 0010 1868     		ldr	r0, [r3]
 1298 0012 0122     		mov	r2, #1
 1299 0014 1043     		orr	r0, r2
 1300 0016 1860     		str	r0, [r3]
1433:.\Generated_Source\PSoC4/CyLib.c ****         CY_LVD_PWR_INTR_MASK_REG   |= CY_LVD_PROPAGATE_INT_TO_CPU;
 1301              		.loc 1 1433 0
 1302 0018 034B     		ldr	r3, .L103+4
 1303 001a 0221     		mov	r1, #2
 1304 001c 1868     		ldr	r0, [r3]
1434:.\Generated_Source\PSoC4/CyLib.c ****     }
 1305              		.loc 1 1434 0
 1306              		@ sp needed for prologue
1433:.\Generated_Source\PSoC4/CyLib.c ****         CY_LVD_PWR_INTR_MASK_REG   |= CY_LVD_PROPAGATE_INT_TO_CPU;
 1307              		.loc 1 1433 0
 1308 001e 0843     		orr	r0, r1
 1309 0020 1860     		str	r0, [r3]
1434:.\Generated_Source\PSoC4/CyLib.c ****     }
 1310              		.loc 1 1434 0
 1311 0022 7047     		bx	lr
 1312              	.L104:
 1313              		.align	2
 1314              	.L103:
 1315 0024 18000B40 		.word	1074462744
 1316 0028 08000B40 		.word	1074462728
 1317              		.cfi_endproc
 1318              	.LFE26:
 1319              		.size	CySysLvdEnable, .-CySysLvdEnable
 1320              		.section	.text.CySysLvdDisable,"ax",%progbits
 1321              		.align	1
 1322              		.global	CySysLvdDisable
 1323              		.code	16
 1324              		.thumb_func
 1325              		.type	CySysLvdDisable, %function
 1326              	CySysLvdDisable:
 1327              	.LFB27:
1452:.\Generated_Source\PSoC4/CyLib.c ****     {
 1328              		.loc 1 1452 0
 1329              		.cfi_startproc
1453:.\Generated_Source\PSoC4/CyLib.c ****         CY_LVD_PWR_INTR_MASK_REG   &= ~CY_LVD_PROPAGATE_INT_TO_CPU;
 1330              		.loc 1 1453 0
 1331 0000 054B     		ldr	r3, .L106
 1332 0002 0221     		mov	r1, #2
 1333 0004 1A68     		ldr	r2, [r3]
1454:.\Generated_Source\PSoC4/CyLib.c ****         CY_LVD_PWR_VMON_CONFIG_REG &= ~CY_LVD_PWR_VMON_CONFIG_LVD_EN;
 1334              		.loc 1 1454 0
 1335 0006 0548     		ldr	r0, .L106+4
1453:.\Generated_Source\PSoC4/CyLib.c ****         CY_LVD_PWR_INTR_MASK_REG   &= ~CY_LVD_PROPAGATE_INT_TO_CPU;
 1336              		.loc 1 1453 0
 1337 0008 8A43     		bic	r2, r1
 1338 000a 1A60     		str	r2, [r3]
1454:.\Generated_Source\PSoC4/CyLib.c ****         CY_LVD_PWR_VMON_CONFIG_REG &= ~CY_LVD_PWR_VMON_CONFIG_LVD_EN;
 1339              		.loc 1 1454 0
 1340 000c 0368     		ldr	r3, [r0]
ARM GAS  C:\Users\vrnk\AppData\Local\Temp\cchVr3qk.s 			page 60


 1341 000e 0122     		mov	r2, #1
 1342 0010 9343     		bic	r3, r2
 1343 0012 0360     		str	r3, [r0]
1455:.\Generated_Source\PSoC4/CyLib.c ****     }
 1344              		.loc 1 1455 0
 1345              		@ sp needed for prologue
 1346 0014 7047     		bx	lr
 1347              	.L107:
 1348 0016 C046     		.align	2
 1349              	.L106:
 1350 0018 08000B40 		.word	1074462728
 1351 001c 18000B40 		.word	1074462744
 1352              		.cfi_endproc
 1353              	.LFE27:
 1354              		.size	CySysLvdDisable, .-CySysLvdDisable
 1355              		.section	.text.CySysLvdGetInterruptSource,"ax",%progbits
 1356              		.align	1
 1357              		.global	CySysLvdGetInterruptSource
 1358              		.code	16
 1359              		.thumb_func
 1360              		.type	CySysLvdGetInterruptSource, %function
 1361              	CySysLvdGetInterruptSource:
 1362              	.LFB28:
1474:.\Generated_Source\PSoC4/CyLib.c ****     {
 1363              		.loc 1 1474 0
 1364              		.cfi_startproc
1475:.\Generated_Source\PSoC4/CyLib.c ****         return (CY_LVD_PWR_INTR_REG & CY_SYS_LVD_INT);
 1365              		.loc 1 1475 0
 1366 0000 024B     		ldr	r3, .L109
 1367 0002 0221     		mov	r1, #2
 1368 0004 1868     		ldr	r0, [r3]
1476:.\Generated_Source\PSoC4/CyLib.c ****     }
 1369              		.loc 1 1476 0
 1370              		@ sp needed for prologue
1475:.\Generated_Source\PSoC4/CyLib.c ****         return (CY_LVD_PWR_INTR_REG & CY_SYS_LVD_INT);
 1371              		.loc 1 1475 0
 1372 0006 0840     		and	r0, r1
1476:.\Generated_Source\PSoC4/CyLib.c ****     }
 1373              		.loc 1 1476 0
 1374 0008 7047     		bx	lr
 1375              	.L110:
 1376 000a C046     		.align	2
 1377              	.L109:
 1378 000c 04000B40 		.word	1074462724
 1379              		.cfi_endproc
 1380              	.LFE28:
 1381              		.size	CySysLvdGetInterruptSource, .-CySysLvdGetInterruptSource
 1382              		.section	.text.CySysLvdClearInterrupt,"ax",%progbits
 1383              		.align	1
 1384              		.global	CySysLvdClearInterrupt
 1385              		.code	16
 1386              		.thumb_func
 1387              		.type	CySysLvdClearInterrupt, %function
 1388              	CySysLvdClearInterrupt:
 1389              	.LFB29:
1494:.\Generated_Source\PSoC4/CyLib.c ****     {
 1390              		.loc 1 1494 0
ARM GAS  C:\Users\vrnk\AppData\Local\Temp\cchVr3qk.s 			page 61


 1391              		.cfi_startproc
1495:.\Generated_Source\PSoC4/CyLib.c ****         CY_LVD_PWR_INTR_REG = CY_SYS_LVD_INT;
 1392              		.loc 1 1495 0
 1393 0000 014B     		ldr	r3, .L112
 1394 0002 0222     		mov	r2, #2
 1395 0004 1A60     		str	r2, [r3]
1496:.\Generated_Source\PSoC4/CyLib.c ****     }
 1396              		.loc 1 1496 0
 1397              		@ sp needed for prologue
 1398 0006 7047     		bx	lr
 1399              	.L113:
 1400              		.align	2
 1401              	.L112:
 1402 0008 04000B40 		.word	1074462724
 1403              		.cfi_endproc
 1404              	.LFE29:
 1405              		.size	CySysLvdClearInterrupt, .-CySysLvdClearInterrupt
 1406              		.section	.text.CyDisableInts,"ax",%progbits
 1407              		.align	1
 1408              		.global	CyDisableInts
 1409              		.code	16
 1410              		.thumb_func
 1411              		.type	CyDisableInts, %function
 1412              	CyDisableInts:
 1413              	.LFB30:
1516:.\Generated_Source\PSoC4/CyLib.c **** {
 1414              		.loc 1 1516 0
 1415              		.cfi_startproc
1520:.\Generated_Source\PSoC4/CyLib.c ****     intState = CY_INT_CLEAR_REG;
 1416              		.loc 1 1520 0
 1417 0000 024B     		ldr	r3, .L115
1523:.\Generated_Source\PSoC4/CyLib.c ****     CY_INT_CLEAR_REG = CY_INT_CLEAR_DISABLE_ALL;
 1418              		.loc 1 1523 0
 1419 0002 0122     		mov	r2, #1
 1420 0004 5142     		neg	r1, r2
1520:.\Generated_Source\PSoC4/CyLib.c ****     intState = CY_INT_CLEAR_REG;
 1421              		.loc 1 1520 0
 1422 0006 1868     		ldr	r0, [r3]
 1423              	.LVL101:
1526:.\Generated_Source\PSoC4/CyLib.c **** }
 1424              		.loc 1 1526 0
 1425              		@ sp needed for prologue
1523:.\Generated_Source\PSoC4/CyLib.c ****     CY_INT_CLEAR_REG = CY_INT_CLEAR_DISABLE_ALL;
 1426              		.loc 1 1523 0
 1427 0008 1960     		str	r1, [r3]
1526:.\Generated_Source\PSoC4/CyLib.c **** }
 1428              		.loc 1 1526 0
 1429 000a 7047     		bx	lr
 1430              	.L116:
 1431              		.align	2
 1432              	.L115:
 1433 000c 80E100E0 		.word	-536813184
 1434              		.cfi_endproc
 1435              	.LFE30:
 1436              		.size	CyDisableInts, .-CyDisableInts
 1437              		.section	.text.CyEnableInts,"ax",%progbits
 1438              		.align	1
ARM GAS  C:\Users\vrnk\AppData\Local\Temp\cchVr3qk.s 			page 62


 1439              		.global	CyEnableInts
 1440              		.code	16
 1441              		.thumb_func
 1442              		.type	CyEnableInts, %function
 1443              	CyEnableInts:
 1444              	.LFB31:
1544:.\Generated_Source\PSoC4/CyLib.c **** {
 1445              		.loc 1 1544 0
 1446              		.cfi_startproc
 1447              	.LVL102:
1545:.\Generated_Source\PSoC4/CyLib.c ****     CY_INT_ENABLE_REG = mask;
 1448              		.loc 1 1545 0
 1449 0000 014B     		ldr	r3, .L118
1546:.\Generated_Source\PSoC4/CyLib.c **** }
 1450              		.loc 1 1546 0
 1451              		@ sp needed for prologue
1545:.\Generated_Source\PSoC4/CyLib.c ****     CY_INT_ENABLE_REG = mask;
 1452              		.loc 1 1545 0
 1453 0002 1860     		str	r0, [r3]
1546:.\Generated_Source\PSoC4/CyLib.c **** }
 1454              		.loc 1 1546 0
 1455 0004 7047     		bx	lr
 1456              	.L119:
 1457 0006 C046     		.align	2
 1458              	.L118:
 1459 0008 00E100E0 		.word	-536813312
 1460              		.cfi_endproc
 1461              	.LFE31:
 1462              		.size	CyEnableInts, .-CyEnableInts
 1463              		.section	.text.CyIntSetSysVector,"ax",%progbits
 1464              		.align	1
 1465              		.global	CyIntSetSysVector
 1466              		.code	16
 1467              		.thumb_func
 1468              		.type	CyIntSetSysVector, %function
 1469              	CyIntSetSysVector:
 1470              	.LFB32:
1566:.\Generated_Source\PSoC4/CyLib.c **** {
 1471              		.loc 1 1566 0
 1472              		.cfi_startproc
 1473              	.LVL103:
 1474 0000 00B5     		push	{lr}
 1475              	.LCFI15:
 1476              		.cfi_def_cfa_offset 4
 1477              		.cfi_offset 14, -4
1570:.\Generated_Source\PSoC4/CyLib.c ****     CYASSERT(number < CY_INT_IRQ_BASE);
 1478              		.loc 1 1570 0
 1479 0002 0F28     		cmp	r0, #15
 1480 0004 00D9     		bls	.L121
 1481              	.LVL104:
 1482              	.LBB80:
 1483              	.LBB81:
 1484              		.loc 1 1849 0
 1485              	@ 1849 ".\Generated_Source\PSoC4\CyLib.c" 1
 1486 0006 01BE     		    bkpt    1
 1487              	@ 0 "" 2
 1488              	.LVL105:
ARM GAS  C:\Users\vrnk\AppData\Local\Temp\cchVr3qk.s 			page 63


 1489              		.code	16
 1490              	.L121:
 1491              	.LBE81:
 1492              	.LBE80:
1573:.\Generated_Source\PSoC4/CyLib.c ****     oldIsr = ramVectorTable[number];
 1493              		.loc 1 1573 0
 1494 0008 8022     		mov	r2, #128
 1495 000a 8000     		lsl	r0, r0, #2
 1496              	.LVL106:
 1497 000c 9305     		lsl	r3, r2, #22
 1498 000e C218     		add	r2, r0, r3
 1499 0010 1068     		ldr	r0, [r2]
 1500              	.LVL107:
1579:.\Generated_Source\PSoC4/CyLib.c **** }
 1501              		.loc 1 1579 0
 1502              		@ sp needed for prologue
1576:.\Generated_Source\PSoC4/CyLib.c ****     ramVectorTable[number] = address;
 1503              		.loc 1 1576 0
 1504 0012 1160     		str	r1, [r2]
1579:.\Generated_Source\PSoC4/CyLib.c **** }
 1505              		.loc 1 1579 0
 1506 0014 00BD     		pop	{pc}
 1507              		.cfi_endproc
 1508              	.LFE32:
 1509              		.size	CyIntSetSysVector, .-CyIntSetSysVector
 1510              		.section	.text.CyIntGetSysVector,"ax",%progbits
 1511              		.align	1
 1512              		.global	CyIntGetSysVector
 1513              		.code	16
 1514              		.thumb_func
 1515              		.type	CyIntGetSysVector, %function
 1516              	CyIntGetSysVector:
 1517              	.LFB33:
1598:.\Generated_Source\PSoC4/CyLib.c **** {
 1518              		.loc 1 1598 0
 1519              		.cfi_startproc
 1520              	.LVL108:
 1521 0000 00B5     		push	{lr}
 1522              	.LCFI16:
 1523              		.cfi_def_cfa_offset 4
 1524              		.cfi_offset 14, -4
1601:.\Generated_Source\PSoC4/CyLib.c ****     CYASSERT(number < CY_INT_IRQ_BASE);
 1525              		.loc 1 1601 0
 1526 0002 0F28     		cmp	r0, #15
 1527 0004 00D9     		bls	.L123
 1528              	.LVL109:
 1529              	.LBB82:
 1530              	.LBB83:
 1531              		.loc 1 1849 0
 1532              	@ 1849 ".\Generated_Source\PSoC4\CyLib.c" 1
 1533 0006 01BE     		    bkpt    1
 1534              	@ 0 "" 2
 1535              	.LVL110:
 1536              		.code	16
 1537              	.L123:
 1538              	.LBE83:
 1539              	.LBE82:
ARM GAS  C:\Users\vrnk\AppData\Local\Temp\cchVr3qk.s 			page 64


1603:.\Generated_Source\PSoC4/CyLib.c ****     return(ramVectorTable[number]);
 1540              		.loc 1 1603 0
 1541 0008 8023     		mov	r3, #128
 1542 000a 8000     		lsl	r0, r0, #2
 1543              	.LVL111:
 1544 000c 9905     		lsl	r1, r3, #22
 1545 000e 4218     		add	r2, r0, r1
 1546 0010 1068     		ldr	r0, [r2]
1604:.\Generated_Source\PSoC4/CyLib.c **** }
 1547              		.loc 1 1604 0
 1548              		@ sp needed for prologue
 1549 0012 00BD     		pop	{pc}
 1550              		.cfi_endproc
 1551              	.LFE33:
 1552              		.size	CyIntGetSysVector, .-CyIntGetSysVector
 1553              		.section	.text.CyIntSetVector,"ax",%progbits
 1554              		.align	1
 1555              		.global	CyIntSetVector
 1556              		.code	16
 1557              		.thumb_func
 1558              		.type	CyIntSetVector, %function
 1559              	CyIntSetVector:
 1560              	.LFB34:
1623:.\Generated_Source\PSoC4/CyLib.c **** {
 1561              		.loc 1 1623 0
 1562              		.cfi_startproc
 1563              	.LVL112:
 1564 0000 00B5     		push	{lr}
 1565              	.LCFI17:
 1566              		.cfi_def_cfa_offset 4
 1567              		.cfi_offset 14, -4
1627:.\Generated_Source\PSoC4/CyLib.c ****     CYASSERT(number < CY_NUM_INTERRUPTS);
 1568              		.loc 1 1627 0
 1569 0002 1F28     		cmp	r0, #31
 1570 0004 00D9     		bls	.L125
 1571              	.LVL113:
 1572              	.LBB84:
 1573              	.LBB85:
 1574              		.loc 1 1849 0
 1575              	@ 1849 ".\Generated_Source\PSoC4\CyLib.c" 1
 1576 0006 01BE     		    bkpt    1
 1577              	@ 0 "" 2
 1578              	.LVL114:
 1579              		.code	16
 1580              	.L125:
 1581              	.LBE85:
 1582              	.LBE84:
1630:.\Generated_Source\PSoC4/CyLib.c ****     oldIsr = ramVectorTable[CY_INT_IRQ_BASE + number];
 1583              		.loc 1 1630 0
 1584 0008 024A     		ldr	r2, .L126
 1585 000a 8000     		lsl	r0, r0, #2
 1586              	.LVL115:
 1587 000c 8318     		add	r3, r0, r2
 1588 000e 1868     		ldr	r0, [r3]
 1589              	.LVL116:
1636:.\Generated_Source\PSoC4/CyLib.c **** }
 1590              		.loc 1 1636 0
ARM GAS  C:\Users\vrnk\AppData\Local\Temp\cchVr3qk.s 			page 65


 1591              		@ sp needed for prologue
1633:.\Generated_Source\PSoC4/CyLib.c ****     ramVectorTable[CY_INT_IRQ_BASE + number] = address;
 1592              		.loc 1 1633 0
 1593 0010 1960     		str	r1, [r3]
1636:.\Generated_Source\PSoC4/CyLib.c **** }
 1594              		.loc 1 1636 0
 1595 0012 00BD     		pop	{pc}
 1596              	.L127:
 1597              		.align	2
 1598              	.L126:
 1599 0014 40000020 		.word	536870976
 1600              		.cfi_endproc
 1601              	.LFE34:
 1602              		.size	CyIntSetVector, .-CyIntSetVector
 1603              		.section	.text.CyIntGetVector,"ax",%progbits
 1604              		.align	1
 1605              		.global	CyIntGetVector
 1606              		.code	16
 1607              		.thumb_func
 1608              		.type	CyIntGetVector, %function
 1609              	CyIntGetVector:
 1610              	.LFB35:
1654:.\Generated_Source\PSoC4/CyLib.c **** {
 1611              		.loc 1 1654 0
 1612              		.cfi_startproc
 1613              	.LVL117:
 1614 0000 00B5     		push	{lr}
 1615              	.LCFI18:
 1616              		.cfi_def_cfa_offset 4
 1617              		.cfi_offset 14, -4
1657:.\Generated_Source\PSoC4/CyLib.c ****     CYASSERT(number < CY_NUM_INTERRUPTS);
 1618              		.loc 1 1657 0
 1619 0002 1F28     		cmp	r0, #31
 1620 0004 00D9     		bls	.L129
 1621              	.LVL118:
 1622              	.LBB86:
 1623              	.LBB87:
 1624              		.loc 1 1849 0
 1625              	@ 1849 ".\Generated_Source\PSoC4\CyLib.c" 1
 1626 0006 01BE     		    bkpt    1
 1627              	@ 0 "" 2
 1628              	.LVL119:
 1629              		.code	16
 1630              	.L129:
 1631              	.LBE87:
 1632              	.LBE86:
1659:.\Generated_Source\PSoC4/CyLib.c ****     return (ramVectorTable[CY_INT_IRQ_BASE + number]);
 1633              		.loc 1 1659 0
 1634 0008 024B     		ldr	r3, .L130
 1635 000a 8000     		lsl	r0, r0, #2
 1636              	.LVL120:
 1637 000c C118     		add	r1, r0, r3
 1638 000e 0868     		ldr	r0, [r1]
1660:.\Generated_Source\PSoC4/CyLib.c **** }
 1639              		.loc 1 1660 0
 1640              		@ sp needed for prologue
 1641 0010 00BD     		pop	{pc}
ARM GAS  C:\Users\vrnk\AppData\Local\Temp\cchVr3qk.s 			page 66


 1642              	.L131:
 1643 0012 C046     		.align	2
 1644              	.L130:
 1645 0014 40000020 		.word	536870976
 1646              		.cfi_endproc
 1647              	.LFE35:
 1648              		.size	CyIntGetVector, .-CyIntGetVector
 1649              		.section	.text.CyIntSetPriority,"ax",%progbits
 1650              		.align	1
 1651              		.global	CyIntSetPriority
 1652              		.code	16
 1653              		.thumb_func
 1654              		.type	CyIntSetPriority, %function
 1655              	CyIntSetPriority:
 1656              	.LFB36:
1678:.\Generated_Source\PSoC4/CyLib.c **** {
 1657              		.loc 1 1678 0
 1658              		.cfi_startproc
 1659              	.LVL121:
 1660 0000 38B5     		push	{r3, r4, r5, lr}
 1661              	.LCFI19:
 1662              		.cfi_def_cfa_offset 16
 1663              		.cfi_offset 3, -16
 1664              		.cfi_offset 4, -12
 1665              		.cfi_offset 5, -8
 1666              		.cfi_offset 14, -4
1678:.\Generated_Source\PSoC4/CyLib.c **** {
 1667              		.loc 1 1678 0
 1668 0002 041C     		mov	r4, r0
 1669 0004 0D1E     		sub	r5, r1, #0
1683:.\Generated_Source\PSoC4/CyLib.c ****     CYASSERT(priority <= CY_MIN_PRIORITY);
 1670              		.loc 1 1683 0
 1671 0006 032D     		cmp	r5, #3
 1672 0008 00D9     		bls	.L133
 1673              	.LVL122:
 1674              	.LBB88:
 1675              	.LBB89:
 1676              		.loc 1 1849 0
 1677              	@ 1849 ".\Generated_Source\PSoC4\CyLib.c" 1
 1678 000a 01BE     		    bkpt    1
 1679              	@ 0 "" 2
 1680              	.LVL123:
 1681              		.code	16
 1682              	.L133:
 1683              	.LBE89:
 1684              	.LBE88:
1684:.\Generated_Source\PSoC4/CyLib.c ****     CYASSERT(number < CY_NUM_INTERRUPTS);
 1685              		.loc 1 1684 0
 1686 000c 1F2C     		cmp	r4, #31
 1687 000e 00D9     		bls	.L134
 1688              	.LVL124:
 1689              	.LBB90:
 1690              	.LBB91:
 1691              		.loc 1 1849 0
 1692              	@ 1849 ".\Generated_Source\PSoC4\CyLib.c" 1
 1693 0010 01BE     		    bkpt    1
 1694              	@ 0 "" 2
ARM GAS  C:\Users\vrnk\AppData\Local\Temp\cchVr3qk.s 			page 67


 1695              	.LVL125:
 1696              		.code	16
 1697              	.L134:
 1698              	.LBE91:
 1699              	.LBE90:
1688:.\Generated_Source\PSoC4/CyLib.c ****     interruptState = CyEnterCriticalSection();
 1700              		.loc 1 1688 0
 1701 0012 FFF7FEFF 		bl	CyEnterCriticalSection
 1702              	.LVL126:
1690:.\Generated_Source\PSoC4/CyLib.c ****     value = CY_INT_PRIORITY_REG(number);
 1703              		.loc 1 1690 0
 1704 0016 A308     		lsr	r3, r4, #2
 1705 0018 084A     		ldr	r2, .L135
 1706 001a 9900     		lsl	r1, r3, #2
 1707 001c 8B18     		add	r3, r1, r2
1686:.\Generated_Source\PSoC4/CyLib.c ****     shift = CY_INT_PRIORITY_SHIFT(number);
 1708              		.loc 1 1686 0
 1709 001e 0322     		mov	r2, #3
 1710 0020 1440     		and	r4, r2
 1711              	.LVL127:
 1712 0022 9440     		lsl	r4, r4, r2
1690:.\Generated_Source\PSoC4/CyLib.c ****     value = CY_INT_PRIORITY_REG(number);
 1713              		.loc 1 1690 0
 1714 0024 1968     		ldr	r1, [r3]
 1715              	.LVL128:
1686:.\Generated_Source\PSoC4/CyLib.c ****     shift = CY_INT_PRIORITY_SHIFT(number);
 1716              		.loc 1 1686 0
 1717 0026 0634     		add	r4, r4, #6
1691:.\Generated_Source\PSoC4/CyLib.c ****     value &= (uint32)(~((uint32)(CY_INT_PRIORITY_MASK << shift)));
 1718              		.loc 1 1691 0
 1719 0028 A240     		lsl	r2, r2, r4
 1720 002a 9143     		bic	r1, r2
 1721              	.LVL129:
1692:.\Generated_Source\PSoC4/CyLib.c ****     value |= ((uint32)priority << shift);
 1722              		.loc 1 1692 0
 1723 002c A540     		lsl	r5, r5, r4
 1724 002e 0C1C     		mov	r4, r1
 1725 0030 2C43     		orr	r4, r5
 1726              	.LVL130:
1693:.\Generated_Source\PSoC4/CyLib.c ****     CY_INT_PRIORITY_REG(number) = value;
 1727              		.loc 1 1693 0
 1728 0032 1C60     		str	r4, [r3]
1695:.\Generated_Source\PSoC4/CyLib.c ****     CyExitCriticalSection(interruptState);
 1729              		.loc 1 1695 0
 1730 0034 FFF7FEFF 		bl	CyExitCriticalSection
 1731              	.LVL131:
1696:.\Generated_Source\PSoC4/CyLib.c **** }
 1732              		.loc 1 1696 0
 1733              		@ sp needed for prologue
 1734              	.LVL132:
 1735 0038 38BD     		pop	{r3, r4, r5, pc}
 1736              	.L136:
 1737 003a C046     		.align	2
 1738              	.L135:
 1739 003c 00E400E0 		.word	-536812544
 1740              		.cfi_endproc
 1741              	.LFE36:
ARM GAS  C:\Users\vrnk\AppData\Local\Temp\cchVr3qk.s 			page 68


 1742              		.size	CyIntSetPriority, .-CyIntSetPriority
 1743              		.section	.text.CyIntGetPriority,"ax",%progbits
 1744              		.align	1
 1745              		.global	CyIntGetPriority
 1746              		.code	16
 1747              		.thumb_func
 1748              		.type	CyIntGetPriority, %function
 1749              	CyIntGetPriority:
 1750              	.LFB37:
1714:.\Generated_Source\PSoC4/CyLib.c **** {
 1751              		.loc 1 1714 0
 1752              		.cfi_startproc
 1753              	.LVL133:
 1754 0000 00B5     		push	{lr}
 1755              	.LCFI20:
 1756              		.cfi_def_cfa_offset 4
 1757              		.cfi_offset 14, -4
1717:.\Generated_Source\PSoC4/CyLib.c ****     CYASSERT(number < CY_NUM_INTERRUPTS);
 1758              		.loc 1 1717 0
 1759 0002 1F28     		cmp	r0, #31
 1760 0004 00D9     		bls	.L138
 1761              	.LVL134:
 1762              	.LBB92:
 1763              	.LBB93:
 1764              		.loc 1 1849 0
 1765              	@ 1849 ".\Generated_Source\PSoC4\CyLib.c" 1
 1766 0006 01BE     		    bkpt    1
 1767              	@ 0 "" 2
 1768              	.LVL135:
 1769              		.code	16
 1770              	.L138:
 1771              	.LBE93:
 1772              	.LBE92:
1719:.\Generated_Source\PSoC4/CyLib.c ****     priority = (uint8) (CY_INT_PRIORITY_REG(number) >> CY_INT_PRIORITY_SHIFT(number));
 1773              		.loc 1 1719 0
 1774 0008 8308     		lsr	r3, r0, #2
 1775 000a 064A     		ldr	r2, .L139
 1776 000c 9900     		lsl	r1, r3, #2
 1777 000e 8B18     		add	r3, r1, r2
 1778 0010 0322     		mov	r2, #3
 1779 0012 1040     		and	r0, r2
 1780              	.LVL136:
 1781 0014 1968     		ldr	r1, [r3]
 1782 0016 9040     		lsl	r0, r0, r2
 1783 0018 0630     		add	r0, r0, #6
 1784 001a C140     		lsr	r1, r1, r0
 1785 001c 081C     		mov	r0, r1
1721:.\Generated_Source\PSoC4/CyLib.c ****     return (priority & (uint8) CY_INT_PRIORITY_MASK);
 1786              		.loc 1 1721 0
 1787 001e 1040     		and	r0, r2
1722:.\Generated_Source\PSoC4/CyLib.c **** }
 1788              		.loc 1 1722 0
 1789              		@ sp needed for prologue
 1790 0020 00BD     		pop	{pc}
 1791              	.L140:
 1792 0022 C046     		.align	2
 1793              	.L139:
ARM GAS  C:\Users\vrnk\AppData\Local\Temp\cchVr3qk.s 			page 69


 1794 0024 00E400E0 		.word	-536812544
 1795              		.cfi_endproc
 1796              	.LFE37:
 1797              		.size	CyIntGetPriority, .-CyIntGetPriority
 1798              		.section	.text.CyIntEnable,"ax",%progbits
 1799              		.align	1
 1800              		.global	CyIntEnable
 1801              		.code	16
 1802              		.thumb_func
 1803              		.type	CyIntEnable, %function
 1804              	CyIntEnable:
 1805              	.LFB38:
1740:.\Generated_Source\PSoC4/CyLib.c **** {
 1806              		.loc 1 1740 0
 1807              		.cfi_startproc
 1808              	.LVL137:
1741:.\Generated_Source\PSoC4/CyLib.c ****     CY_INT_ENABLE_REG = ((uint32) 0x01u << (CY_INT_ENABLE_RANGE_MASK & number));
 1809              		.loc 1 1741 0
 1810 0000 1F23     		mov	r3, #31
 1811 0002 1840     		and	r0, r3
 1812              	.LVL138:
 1813 0004 024A     		ldr	r2, .L142
 1814 0006 0121     		mov	r1, #1
 1815 0008 8140     		lsl	r1, r1, r0
 1816 000a 1160     		str	r1, [r2]
1742:.\Generated_Source\PSoC4/CyLib.c **** }
 1817              		.loc 1 1742 0
 1818              		@ sp needed for prologue
 1819 000c 7047     		bx	lr
 1820              	.L143:
 1821 000e C046     		.align	2
 1822              	.L142:
 1823 0010 00E100E0 		.word	-536813312
 1824              		.cfi_endproc
 1825              	.LFE38:
 1826              		.size	CyIntEnable, .-CyIntEnable
 1827              		.section	.text.CyIntGetState,"ax",%progbits
 1828              		.align	1
 1829              		.global	CyIntGetState
 1830              		.code	16
 1831              		.thumb_func
 1832              		.type	CyIntGetState, %function
 1833              	CyIntGetState:
 1834              	.LFB39:
1760:.\Generated_Source\PSoC4/CyLib.c **** {
 1835              		.loc 1 1760 0
 1836              		.cfi_startproc
 1837              	.LVL139:
1762:.\Generated_Source\PSoC4/CyLib.c ****     return ((0u != (CY_INT_ENABLE_REG & ((uint32) 0x01u << (CY_INT_ENABLE_RANGE_MASK & number)))) ?
 1838              		.loc 1 1762 0
 1839 0000 044B     		ldr	r3, .L145
 1840 0002 1F22     		mov	r2, #31
 1841 0004 1968     		ldr	r1, [r3]
 1842 0006 1040     		and	r0, r2
 1843              	.LVL140:
 1844 0008 C140     		lsr	r1, r1, r0
 1845 000a 081C     		mov	r0, r1
ARM GAS  C:\Users\vrnk\AppData\Local\Temp\cchVr3qk.s 			page 70


 1846 000c 0123     		mov	r3, #1
 1847 000e 1840     		and	r0, r3
1763:.\Generated_Source\PSoC4/CyLib.c **** }
 1848              		.loc 1 1763 0
 1849              		@ sp needed for prologue
 1850 0010 7047     		bx	lr
 1851              	.L146:
 1852 0012 C046     		.align	2
 1853              	.L145:
 1854 0014 00E100E0 		.word	-536813312
 1855              		.cfi_endproc
 1856              	.LFE39:
 1857              		.size	CyIntGetState, .-CyIntGetState
 1858              		.section	.text.CyIntDisable,"ax",%progbits
 1859              		.align	1
 1860              		.global	CyIntDisable
 1861              		.code	16
 1862              		.thumb_func
 1863              		.type	CyIntDisable, %function
 1864              	CyIntDisable:
 1865              	.LFB40:
1781:.\Generated_Source\PSoC4/CyLib.c **** {
 1866              		.loc 1 1781 0
 1867              		.cfi_startproc
 1868              	.LVL141:
1782:.\Generated_Source\PSoC4/CyLib.c ****     CY_INT_CLEAR_REG = ((uint32) 0x01u << (CY_INT_ENABLE_RANGE_MASK & number));
 1869              		.loc 1 1782 0
 1870 0000 1F23     		mov	r3, #31
 1871 0002 1840     		and	r0, r3
 1872              	.LVL142:
 1873 0004 024A     		ldr	r2, .L148
 1874 0006 0121     		mov	r1, #1
 1875 0008 8140     		lsl	r1, r1, r0
 1876 000a 1160     		str	r1, [r2]
1783:.\Generated_Source\PSoC4/CyLib.c **** }
 1877              		.loc 1 1783 0
 1878              		@ sp needed for prologue
 1879 000c 7047     		bx	lr
 1880              	.L149:
 1881 000e C046     		.align	2
 1882              	.L148:
 1883 0010 80E100E0 		.word	-536813184
 1884              		.cfi_endproc
 1885              	.LFE40:
 1886              		.size	CyIntDisable, .-CyIntDisable
 1887              		.section	.text.CyIntSetPending,"ax",%progbits
 1888              		.align	1
 1889              		.global	CyIntSetPending
 1890              		.code	16
 1891              		.thumb_func
 1892              		.type	CyIntSetPending, %function
 1893              	CyIntSetPending:
 1894              	.LFB41:
1800:.\Generated_Source\PSoC4/CyLib.c **** {
 1895              		.loc 1 1800 0
 1896              		.cfi_startproc
 1897              	.LVL143:
ARM GAS  C:\Users\vrnk\AppData\Local\Temp\cchVr3qk.s 			page 71


1801:.\Generated_Source\PSoC4/CyLib.c ****     CY_INT_SET_PEND_REG = ((uint32) 0x01u << (CY_INT_ENABLE_RANGE_MASK & number));
 1898              		.loc 1 1801 0
 1899 0000 1F23     		mov	r3, #31
 1900 0002 1840     		and	r0, r3
 1901              	.LVL144:
 1902 0004 024A     		ldr	r2, .L151
 1903 0006 0121     		mov	r1, #1
 1904 0008 8140     		lsl	r1, r1, r0
 1905 000a 1160     		str	r1, [r2]
1802:.\Generated_Source\PSoC4/CyLib.c **** }
 1906              		.loc 1 1802 0
 1907              		@ sp needed for prologue
 1908 000c 7047     		bx	lr
 1909              	.L152:
 1910 000e C046     		.align	2
 1911              	.L151:
 1912 0010 00E200E0 		.word	-536813056
 1913              		.cfi_endproc
 1914              	.LFE41:
 1915              		.size	CyIntSetPending, .-CyIntSetPending
 1916              		.section	.text.CyIntClearPending,"ax",%progbits
 1917              		.align	1
 1918              		.global	CyIntClearPending
 1919              		.code	16
 1920              		.thumb_func
 1921              		.type	CyIntClearPending, %function
 1922              	CyIntClearPending:
 1923              	.LFB42:
1820:.\Generated_Source\PSoC4/CyLib.c **** {
 1924              		.loc 1 1820 0
 1925              		.cfi_startproc
 1926              	.LVL145:
1821:.\Generated_Source\PSoC4/CyLib.c ****     CY_INT_CLR_PEND_REG = ((uint32) 0x01u << (CY_INT_ENABLE_RANGE_MASK & number));
 1927              		.loc 1 1821 0
 1928 0000 1F23     		mov	r3, #31
 1929 0002 1840     		and	r0, r3
 1930              	.LVL146:
 1931 0004 024A     		ldr	r2, .L154
 1932 0006 0121     		mov	r1, #1
 1933 0008 8140     		lsl	r1, r1, r0
 1934 000a 1160     		str	r1, [r2]
1822:.\Generated_Source\PSoC4/CyLib.c **** }
 1935              		.loc 1 1822 0
 1936              		@ sp needed for prologue
 1937 000c 7047     		bx	lr
 1938              	.L155:
 1939 000e C046     		.align	2
 1940              	.L154:
 1941 0010 80E200E0 		.word	-536812928
 1942              		.cfi_endproc
 1943              	.LFE42:
 1944              		.size	CyIntClearPending, .-CyIntClearPending
 1945              		.section	.text.CyHalt,"ax",%progbits
 1946              		.align	1
 1947              		.global	CyHalt
 1948              		.code	16
 1949              		.thumb_func
ARM GAS  C:\Users\vrnk\AppData\Local\Temp\cchVr3qk.s 			page 72


 1950              		.type	CyHalt, %function
 1951              	CyHalt:
 1952              	.LFB43:
1840:.\Generated_Source\PSoC4/CyLib.c **** {
 1953              		.loc 1 1840 0
 1954              		.cfi_startproc
 1955              	.LVL147:
 1956              		.loc 1 1849 0
 1957              	@ 1849 ".\Generated_Source\PSoC4\CyLib.c" 1
 1958 0000 01BE     		    bkpt    1
 1959              	@ 0 "" 2
1850:.\Generated_Source\PSoC4/CyLib.c ****     #elif defined(__C51__)
1851:.\Generated_Source\PSoC4/CyLib.c ****         CYDEV_HALT_CPU;
1852:.\Generated_Source\PSoC4/CyLib.c ****     #endif  /* (__ARMCC_VERSION) */
1853:.\Generated_Source\PSoC4/CyLib.c **** }
 1960              		.loc 1 1853 0
 1961              		.code	16
 1962              		@ sp needed for prologue
 1963 0002 7047     		bx	lr
 1964              		.cfi_endproc
 1965              	.LFE43:
 1966              		.size	CyHalt, .-CyHalt
 1967              		.section	.text.CySoftwareReset,"ax",%progbits
 1968              		.align	1
 1969              		.global	CySoftwareReset
 1970              		.code	16
 1971              		.thumb_func
 1972              		.type	CySoftwareReset, %function
 1973              	CySoftwareReset:
 1974              	.LFB44:
1854:.\Generated_Source\PSoC4/CyLib.c **** 
1855:.\Generated_Source\PSoC4/CyLib.c **** 
1856:.\Generated_Source\PSoC4/CyLib.c **** /*******************************************************************************
1857:.\Generated_Source\PSoC4/CyLib.c **** * Function Name: CySoftwareReset
1858:.\Generated_Source\PSoC4/CyLib.c **** ********************************************************************************
1859:.\Generated_Source\PSoC4/CyLib.c **** *
1860:.\Generated_Source\PSoC4/CyLib.c **** * Summary:
1861:.\Generated_Source\PSoC4/CyLib.c **** *  Forces a software reset of the device.
1862:.\Generated_Source\PSoC4/CyLib.c **** *
1863:.\Generated_Source\PSoC4/CyLib.c **** * Parameters:
1864:.\Generated_Source\PSoC4/CyLib.c **** *  None
1865:.\Generated_Source\PSoC4/CyLib.c **** *
1866:.\Generated_Source\PSoC4/CyLib.c **** * Return:
1867:.\Generated_Source\PSoC4/CyLib.c **** *  None
1868:.\Generated_Source\PSoC4/CyLib.c **** *
1869:.\Generated_Source\PSoC4/CyLib.c **** *******************************************************************************/
1870:.\Generated_Source\PSoC4/CyLib.c **** void CySoftwareReset(void)
1871:.\Generated_Source\PSoC4/CyLib.c **** {
 1975              		.loc 1 1871 0
 1976              		.cfi_startproc
1872:.\Generated_Source\PSoC4/CyLib.c ****     /***************************************************************************
1873:.\Generated_Source\PSoC4/CyLib.c ****     * Setting the system reset request bit. The vector key value must be written
1874:.\Generated_Source\PSoC4/CyLib.c ****     * to the register, otherwise the register write is unpredictable.
1875:.\Generated_Source\PSoC4/CyLib.c ****     ***************************************************************************/
1876:.\Generated_Source\PSoC4/CyLib.c ****     CY_SYS_CM0_AIRCR_REG = (CY_SYS_CM0_AIRCR_REG & (uint32)(~CY_SYS_CM0_AIRCR_VECTKEY_MASK)) |
 1977              		.loc 1 1876 0
 1978 0000 034B     		ldr	r3, .L158
ARM GAS  C:\Users\vrnk\AppData\Local\Temp\cchVr3qk.s 			page 73


1877:.\Generated_Source\PSoC4/CyLib.c ****                             CY_SYS_CM0_AIRCR_VECTKEY | CY_SYS_CM0_AIRCR_SYSRESETREQ;
 1979              		.loc 1 1877 0
 1980 0002 0449     		ldr	r1, .L158+4
1876:.\Generated_Source\PSoC4/CyLib.c ****     CY_SYS_CM0_AIRCR_REG = (CY_SYS_CM0_AIRCR_REG & (uint32)(~CY_SYS_CM0_AIRCR_VECTKEY_MASK)) |
 1981              		.loc 1 1876 0
 1982 0004 1A68     		ldr	r2, [r3]
1878:.\Generated_Source\PSoC4/CyLib.c **** }
 1983              		.loc 1 1878 0
 1984              		@ sp needed for prologue
1876:.\Generated_Source\PSoC4/CyLib.c ****     CY_SYS_CM0_AIRCR_REG = (CY_SYS_CM0_AIRCR_REG & (uint32)(~CY_SYS_CM0_AIRCR_VECTKEY_MASK)) |
 1985              		.loc 1 1876 0
 1986 0006 90B2     		uxth	r0, r2
1877:.\Generated_Source\PSoC4/CyLib.c ****                             CY_SYS_CM0_AIRCR_VECTKEY | CY_SYS_CM0_AIRCR_SYSRESETREQ;
 1987              		.loc 1 1877 0
 1988 0008 0843     		orr	r0, r1
1876:.\Generated_Source\PSoC4/CyLib.c ****     CY_SYS_CM0_AIRCR_REG = (CY_SYS_CM0_AIRCR_REG & (uint32)(~CY_SYS_CM0_AIRCR_VECTKEY_MASK)) |
 1989              		.loc 1 1876 0
 1990 000a 1860     		str	r0, [r3]
 1991              		.loc 1 1878 0
 1992 000c 7047     		bx	lr
 1993              	.L159:
 1994 000e C046     		.align	2
 1995              	.L158:
 1996 0010 0CED00E0 		.word	-536810228
 1997 0014 0400FA05 		.word	100270084
 1998              		.cfi_endproc
 1999              	.LFE44:
 2000              		.size	CySoftwareReset, .-CySoftwareReset
 2001              		.section	.text.CyDelay,"ax",%progbits
 2002              		.align	1
 2003              		.global	CyDelay
 2004              		.code	16
 2005              		.thumb_func
 2006              		.type	CyDelay, %function
 2007              	CyDelay:
 2008              	.LFB45:
1879:.\Generated_Source\PSoC4/CyLib.c **** 
1880:.\Generated_Source\PSoC4/CyLib.c **** 
1881:.\Generated_Source\PSoC4/CyLib.c **** /*******************************************************************************
1882:.\Generated_Source\PSoC4/CyLib.c **** * Function Name: CyDelay
1883:.\Generated_Source\PSoC4/CyLib.c **** ********************************************************************************
1884:.\Generated_Source\PSoC4/CyLib.c **** *
1885:.\Generated_Source\PSoC4/CyLib.c **** * Summary:
1886:.\Generated_Source\PSoC4/CyLib.c **** *  Blocks for milliseconds.
1887:.\Generated_Source\PSoC4/CyLib.c **** *
1888:.\Generated_Source\PSoC4/CyLib.c **** * Parameters:
1889:.\Generated_Source\PSoC4/CyLib.c **** *  milliseconds: number of milliseconds to delay.
1890:.\Generated_Source\PSoC4/CyLib.c **** *
1891:.\Generated_Source\PSoC4/CyLib.c **** * Return:
1892:.\Generated_Source\PSoC4/CyLib.c **** *  None
1893:.\Generated_Source\PSoC4/CyLib.c **** *
1894:.\Generated_Source\PSoC4/CyLib.c **** *******************************************************************************/
1895:.\Generated_Source\PSoC4/CyLib.c **** void CyDelay(uint32 milliseconds)
1896:.\Generated_Source\PSoC4/CyLib.c **** {
 2009              		.loc 1 1896 0
 2010              		.cfi_startproc
 2011              	.LVL148:
ARM GAS  C:\Users\vrnk\AppData\Local\Temp\cchVr3qk.s 			page 74


 2012 0000 10B5     		push	{r4, lr}
 2013              	.LCFI21:
 2014              		.cfi_def_cfa_offset 8
 2015              		.cfi_offset 4, -8
 2016              		.cfi_offset 14, -4
 2017 0002 041C     		mov	r4, r0
 2018              	.LVL149:
 2019              	.L161:
1897:.\Generated_Source\PSoC4/CyLib.c ****     while (milliseconds > CY_DELAY_MS_OVERFLOW)
 2020              		.loc 1 1897 0 discriminator 1
 2021 0004 8022     		mov	r2, #128
 2022 0006 074B     		ldr	r3, .L164
 2023 0008 1002     		lsl	r0, r2, #8
 2024 000a 8442     		cmp	r4, r0
 2025 000c 05D9     		bls	.L163
 2026              	.L162:
1898:.\Generated_Source\PSoC4/CyLib.c ****     {
1899:.\Generated_Source\PSoC4/CyLib.c ****         /* This loop prevents overflow.
1900:.\Generated_Source\PSoC4/CyLib.c ****          * At 100MHz, milliseconds * cydelayFreqKhz overflows at about 42 seconds
1901:.\Generated_Source\PSoC4/CyLib.c ****          */
1902:.\Generated_Source\PSoC4/CyLib.c ****         CyDelayCycles(cydelay32kMs);
 2027              		.loc 1 1902 0
 2028 000e 1868     		ldr	r0, [r3]
 2029 0010 FFF7FEFF 		bl	CyDelayCycles
 2030              	.LVL150:
1903:.\Generated_Source\PSoC4/CyLib.c ****         milliseconds -= CY_DELAY_MS_OVERFLOW;
 2031              		.loc 1 1903 0
 2032 0014 0449     		ldr	r1, .L164+4
 2033 0016 6418     		add	r4, r4, r1
 2034              	.LVL151:
 2035 0018 F4E7     		b	.L161
 2036              	.L163:
1904:.\Generated_Source\PSoC4/CyLib.c ****     }
1905:.\Generated_Source\PSoC4/CyLib.c **** 
1906:.\Generated_Source\PSoC4/CyLib.c ****     CyDelayCycles(milliseconds * cydelayFreqKhz);
 2037              		.loc 1 1906 0
 2038 001a 5868     		ldr	r0, [r3, #4]
1907:.\Generated_Source\PSoC4/CyLib.c **** }
 2039              		.loc 1 1907 0
 2040              		@ sp needed for prologue
1906:.\Generated_Source\PSoC4/CyLib.c ****     CyDelayCycles(milliseconds * cydelayFreqKhz);
 2041              		.loc 1 1906 0
 2042 001c 6043     		mul	r0, r4
 2043 001e FFF7FEFF 		bl	CyDelayCycles
 2044              	.LVL152:
 2045              	.LVL153:
 2046              		.loc 1 1907 0
 2047 0022 10BD     		pop	{r4, pc}
 2048              	.L165:
 2049              		.align	2
 2050              	.L164:
 2051 0024 00000000 		.word	.LANCHOR0
 2052 0028 0080FFFF 		.word	-32768
 2053              		.cfi_endproc
 2054              	.LFE45:
 2055              		.size	CyDelay, .-CyDelay
 2056              		.section	.text.CyDelayUs,"ax",%progbits
ARM GAS  C:\Users\vrnk\AppData\Local\Temp\cchVr3qk.s 			page 75


 2057              		.align	1
 2058              		.global	CyDelayUs
 2059              		.code	16
 2060              		.thumb_func
 2061              		.type	CyDelayUs, %function
 2062              	CyDelayUs:
 2063              	.LFB46:
1908:.\Generated_Source\PSoC4/CyLib.c **** 
1909:.\Generated_Source\PSoC4/CyLib.c **** 
1910:.\Generated_Source\PSoC4/CyLib.c **** /*******************************************************************************
1911:.\Generated_Source\PSoC4/CyLib.c **** * Function Name: CyDelayUs
1912:.\Generated_Source\PSoC4/CyLib.c **** ********************************************************************************
1913:.\Generated_Source\PSoC4/CyLib.c **** * Summary:
1914:.\Generated_Source\PSoC4/CyLib.c **** *  Blocks for microseconds.
1915:.\Generated_Source\PSoC4/CyLib.c **** *
1916:.\Generated_Source\PSoC4/CyLib.c **** * Parameters:
1917:.\Generated_Source\PSoC4/CyLib.c **** *  microseconds: number of microseconds to delay.
1918:.\Generated_Source\PSoC4/CyLib.c **** *
1919:.\Generated_Source\PSoC4/CyLib.c **** * Return:
1920:.\Generated_Source\PSoC4/CyLib.c **** *  None
1921:.\Generated_Source\PSoC4/CyLib.c **** *
1922:.\Generated_Source\PSoC4/CyLib.c **** *******************************************************************************/
1923:.\Generated_Source\PSoC4/CyLib.c **** void CyDelayUs(uint16 microseconds)
1924:.\Generated_Source\PSoC4/CyLib.c **** {
 2064              		.loc 1 1924 0
 2065              		.cfi_startproc
 2066              	.LVL154:
 2067 0000 08B5     		push	{r3, lr}
 2068              	.LCFI22:
 2069              		.cfi_def_cfa_offset 8
 2070              		.cfi_offset 3, -8
 2071              		.cfi_offset 14, -4
1925:.\Generated_Source\PSoC4/CyLib.c ****     CyDelayCycles((uint32)microseconds * cydelayFreqMhz);
 2072              		.loc 1 1925 0
 2073 0002 034B     		ldr	r3, .L167
1926:.\Generated_Source\PSoC4/CyLib.c **** }
 2074              		.loc 1 1926 0
 2075              		@ sp needed for prologue
1925:.\Generated_Source\PSoC4/CyLib.c ****     CyDelayCycles((uint32)microseconds * cydelayFreqMhz);
 2076              		.loc 1 1925 0
 2077 0004 197A     		ldrb	r1, [r3, #8]
 2078 0006 4843     		mul	r0, r1
 2079              	.LVL155:
 2080 0008 FFF7FEFF 		bl	CyDelayCycles
 2081              	.LVL156:
 2082              		.loc 1 1926 0
 2083 000c 08BD     		pop	{r3, pc}
 2084              	.L168:
 2085 000e C046     		.align	2
 2086              	.L167:
 2087 0010 00000000 		.word	.LANCHOR0
 2088              		.cfi_endproc
 2089              	.LFE46:
 2090              		.size	CyDelayUs, .-CyDelayUs
 2091              		.section	.text.CySysWdtWriteMatch,"ax",%progbits
 2092              		.align	1
 2093              		.global	CySysWdtWriteMatch
ARM GAS  C:\Users\vrnk\AppData\Local\Temp\cchVr3qk.s 			page 76


 2094              		.code	16
 2095              		.thumb_func
 2096              		.type	CySysWdtWriteMatch, %function
 2097              	CySysWdtWriteMatch:
 2098              	.LFB18:
 766:.\Generated_Source\PSoC4/CyLib.c ****     {
 2099              		.loc 1 766 0
 2100              		.cfi_startproc
 2101              	.LVL157:
 2102 0000 38B5     		push	{r3, r4, r5, lr}
 2103              	.LCFI23:
 2104              		.cfi_def_cfa_offset 16
 2105              		.cfi_offset 3, -16
 2106              		.cfi_offset 4, -12
 2107              		.cfi_offset 5, -8
 2108              		.cfi_offset 14, -4
 766:.\Generated_Source\PSoC4/CyLib.c ****     {
 2109              		.loc 1 766 0
 2110 0002 041C     		mov	r4, r0
 2111 0004 0D1C     		mov	r5, r1
 769:.\Generated_Source\PSoC4/CyLib.c ****         CYASSERT((counterNum == CY_SYS_WDT_COUNTER0) ||
 2112              		.loc 1 769 0
 2113 0006 0128     		cmp	r0, #1
 2114 0008 00D9     		bls	.L170
 2115              	.LVL158:
 2116              	.LBB94:
 2117              	.LBB95:
1849:.\Generated_Source\PSoC4/CyLib.c ****         __asm("    bkpt    1");
 2118              		.loc 1 1849 0
 2119              	@ 1849 ".\Generated_Source\PSoC4\CyLib.c" 1
 2120 000a 01BE     		    bkpt    1
 2121              	@ 0 "" 2
 2122              	.LVL159:
 2123              		.code	16
 2124              	.L170:
 2125              	.LBE95:
 2126              	.LBE94:
 775:.\Generated_Source\PSoC4/CyLib.c ****         if (0u == (CY_SYS_CLK_ILO_CONFIG_REG & CY_SYS_CLK_ILO_CONFIG_ENABLE))
 2127              		.loc 1 775 0
 2128 000c 094B     		ldr	r3, .L172
 2129 000e 1868     		ldr	r0, [r3]
 2130              	.LVL160:
 2131 0010 0028     		cmp	r0, #0
 2132 0012 01DB     		blt	.L171
 777:.\Generated_Source\PSoC4/CyLib.c ****             CySysClkIloStart();
 2133              		.loc 1 777 0
 2134 0014 FFF7FEFF 		bl	CySysClkIloStart
 2135              	.LVL161:
 2136              	.L171:
 781:.\Generated_Source\PSoC4/CyLib.c ****         CyDelayUs(CY_SYS_WDT_3LFCLK_DELAY_US);
 2137              		.loc 1 781 0
 2138 0018 8220     		mov	r0, #130
 2139 001a FFF7FEFF 		bl	CyDelayUs
 2140              	.LVL162:
 783:.\Generated_Source\PSoC4/CyLib.c ****         regValue = CY_SYS_WDT_MATCH_REG;
 2141              		.loc 1 783 0
 2142 001e 064B     		ldr	r3, .L172+4
ARM GAS  C:\Users\vrnk\AppData\Local\Temp\cchVr3qk.s 			page 77


 784:.\Generated_Source\PSoC4/CyLib.c ****         regValue &= (uint32)~((uint32)(CY_SYS_WDT_LOWER_16BITS_MASK << (counterNum * CY_SYS_WDT_CNT
 2143              		.loc 1 784 0
 2144 0020 0649     		ldr	r1, .L172+8
 783:.\Generated_Source\PSoC4/CyLib.c ****         regValue = CY_SYS_WDT_MATCH_REG;
 2145              		.loc 1 783 0
 2146 0022 1A68     		ldr	r2, [r3]
 2147              	.LVL163:
 784:.\Generated_Source\PSoC4/CyLib.c ****         regValue &= (uint32)~((uint32)(CY_SYS_WDT_LOWER_16BITS_MASK << (counterNum * CY_SYS_WDT_CNT
 2148              		.loc 1 784 0
 2149 0024 2401     		lsl	r4, r4, #4
 2150              	.LVL164:
 2151 0026 A140     		lsl	r1, r1, r4
 2152 0028 8A43     		bic	r2, r1
 2153              	.LVL165:
 785:.\Generated_Source\PSoC4/CyLib.c ****         CY_SYS_WDT_MATCH_REG = (regValue | (match << (counterNum * CY_SYS_WDT_CNT_MATCH_SHIFT)));
 2154              		.loc 1 785 0
 2155 002a A540     		lsl	r5, r5, r4
 2156              	.LVL166:
 2157 002c 101C     		mov	r0, r2
 2158 002e 2843     		orr	r0, r5
 2159 0030 1860     		str	r0, [r3]
 786:.\Generated_Source\PSoC4/CyLib.c ****     }
 2160              		.loc 1 786 0
 2161              		@ sp needed for prologue
 2162 0032 38BD     		pop	{r3, r4, r5, pc}
 2163              	.L173:
 2164              		.align	2
 2165              	.L172:
 2166 0034 04010B40 		.word	1074462980
 2167 0038 08020B40 		.word	1074463240
 2168 003c FFFF0000 		.word	65535
 2169              		.cfi_endproc
 2170              	.LFE18:
 2171              		.size	CySysWdtWriteMatch, .-CySysWdtWriteMatch
 2172              		.section	.text.CySysClkWriteImoFreq,"ax",%progbits
 2173              		.align	1
 2174              		.global	CySysClkWriteImoFreq
 2175              		.code	16
 2176              		.thumb_func
 2177              		.type	CySysClkWriteImoFreq, %function
 2178              	CySysClkWriteImoFreq:
 2179              	.LFB6:
 217:.\Generated_Source\PSoC4/CyLib.c ****     {
 2180              		.loc 1 217 0
 2181              		.cfi_startproc
 2182              	.LVL167:
 2183 0000 F0B5     		push	{r4, r5, r6, r7, lr}
 2184              	.LCFI24:
 2185              		.cfi_def_cfa_offset 20
 2186              		.cfi_offset 4, -20
 2187              		.cfi_offset 5, -16
 2188              		.cfi_offset 6, -12
 2189              		.cfi_offset 7, -8
 2190              		.cfi_offset 14, -4
 240:.\Generated_Source\PSoC4/CyLib.c ****         if ((freq >= CY_SYS_CLK_IMO_MIN_FREQ_MHZ) && (freq <= CY_SYS_CLK_IMO_MAX_FREQ_MHZ))
 2191              		.loc 1 240 0
 2192 0002 C11E     		sub	r1, r0, #3
ARM GAS  C:\Users\vrnk\AppData\Local\Temp\cchVr3qk.s 			page 78


 217:.\Generated_Source\PSoC4/CyLib.c ****     {
 2193              		.loc 1 217 0
 2194 0004 85B0     		sub	sp, sp, #20
 2195              	.LCFI25:
 2196              		.cfi_def_cfa_offset 40
 217:.\Generated_Source\PSoC4/CyLib.c ****     {
 2197              		.loc 1 217 0
 2198 0006 041C     		mov	r4, r0
 240:.\Generated_Source\PSoC4/CyLib.c ****         if ((freq >= CY_SYS_CLK_IMO_MIN_FREQ_MHZ) && (freq <= CY_SYS_CLK_IMO_MAX_FREQ_MHZ))
 2199              		.loc 1 240 0
 2200 0008 0191     		str	r1, [sp, #4]
 2201 000a 2D29     		cmp	r1, #45
 2202 000c 6DD8     		bhi	.L175
 242:.\Generated_Source\PSoC4/CyLib.c ****             interruptState = CyEnterCriticalSection();
 2203              		.loc 1 242 0
 2204 000e FFF7FEFF 		bl	CyEnterCriticalSection
 2205              	.LVL168:
 245:.\Generated_Source\PSoC4/CyLib.c ****             for (i = 0u; i < CY_SYS_CLK_IMO_FREQ_TABLE_SIZE; i++)
 2206              		.loc 1 245 0
 2207 0012 0023     		mov	r3, #0
 242:.\Generated_Source\PSoC4/CyLib.c ****             interruptState = CyEnterCriticalSection();
 2208              		.loc 1 242 0
 2209 0014 0390     		str	r0, [sp, #12]
 2210              	.LVL169:
 2211              	.L178:
 247:.\Generated_Source\PSoC4/CyLib.c ****                 if (cyImoFreqMhz2Reg[i] == (CY_SYS_CLK_IMO_TRIM2_REG & CY_SYS_CLK_IMO_FREQ_BITS_MAS
 2212              		.loc 1 247 0
 2213 0016 364F     		ldr	r7, .L191
 2214 0018 364A     		ldr	r2, .L191+4
 2215 001a 3D68     		ldr	r5, [r7]
 2216 001c 985C     		ldrb	r0, [r3, r2]
 2217 001e 3F26     		mov	r6, #63
 2218 0020 2E40     		and	r6, r5
 2219 0022 B042     		cmp	r0, r6
 2220 0024 01D1     		bne	.L176
 249:.\Generated_Source\PSoC4/CyLib.c ****                     currentFreq = i + CY_SYS_CLK_IMO_FREQ_TABLE_OFFSET;
 2221              		.loc 1 249 0
 2222 0026 0333     		add	r3, r3, #3
 2223              	.LVL170:
 250:.\Generated_Source\PSoC4/CyLib.c ****                     break;
 2224              		.loc 1 250 0
 2225 0028 03E0     		b	.L177
 2226              	.LVL171:
 2227              	.L176:
 245:.\Generated_Source\PSoC4/CyLib.c ****             for (i = 0u; i < CY_SYS_CLK_IMO_FREQ_TABLE_SIZE; i++)
 2228              		.loc 1 245 0
 2229 002a 0133     		add	r3, r3, #1
 2230              	.LVL172:
 2231 002c 2E2B     		cmp	r3, #46
 2232 002e F2D1     		bne	.L178
 220:.\Generated_Source\PSoC4/CyLib.c ****         uint32 currentFreq = CY_SYS_CLK_IMO_MAX_FREQ_MHZ;
 2233              		.loc 1 220 0
 2234 0030 3023     		mov	r3, #48
 2235              	.LVL173:
 2236              	.L177:
 254:.\Generated_Source\PSoC4/CyLib.c ****             if(freq <= CY_SFLASH_IMO_MAXF0_REG)
 2237              		.loc 1 254 0
ARM GAS  C:\Users\vrnk\AppData\Local\Temp\cchVr3qk.s 			page 79


 2238 0032 3149     		ldr	r1, .L191+8
 2239 0034 0D78     		ldrb	r5, [r1]
 2240 0036 AC42     		cmp	r4, r5
 2241 0038 03D8     		bhi	.L179
 256:.\Generated_Source\PSoC4/CyLib.c ****                 bgTrim4 = CY_SFLASH_IMO_ABS0_REG;
 2242              		.loc 1 256 0
 2243 003a 304E     		ldr	r6, .L191+12
 257:.\Generated_Source\PSoC4/CyLib.c ****                 bgTrim5 = CY_SFLASH_IMO_TMPCO0_REG;
 2244              		.loc 1 257 0
 2245 003c 3049     		ldr	r1, .L191+16
 256:.\Generated_Source\PSoC4/CyLib.c ****                 bgTrim4 = CY_SFLASH_IMO_ABS0_REG;
 2246              		.loc 1 256 0
 2247 003e 3678     		ldrb	r6, [r6]
 2248              	.LVL174:
 2249 0040 1AE0     		b	.L190
 2250              	.LVL175:
 2251              	.L179:
 259:.\Generated_Source\PSoC4/CyLib.c ****             else if(freq <= CY_SFLASH_IMO_MAXF1_REG)
 2252              		.loc 1 259 0
 2253 0042 304A     		ldr	r2, .L191+20
 2254 0044 1078     		ldrb	r0, [r2]
 2255 0046 8442     		cmp	r4, r0
 2256 0048 03D8     		bhi	.L181
 261:.\Generated_Source\PSoC4/CyLib.c ****                 bgTrim4 = CY_SFLASH_IMO_ABS1_REG;
 2257              		.loc 1 261 0
 2258 004a 2F48     		ldr	r0, .L191+24
 262:.\Generated_Source\PSoC4/CyLib.c ****                 bgTrim5 = CY_SFLASH_IMO_TMPCO1_REG;
 2259              		.loc 1 262 0
 2260 004c 2F49     		ldr	r1, .L191+28
 261:.\Generated_Source\PSoC4/CyLib.c ****                 bgTrim4 = CY_SFLASH_IMO_ABS1_REG;
 2261              		.loc 1 261 0
 2262 004e 0678     		ldrb	r6, [r0]
 2263              	.LVL176:
 2264 0050 12E0     		b	.L190
 2265              	.LVL177:
 2266              	.L181:
 264:.\Generated_Source\PSoC4/CyLib.c ****             else if(freq <= CY_SFLASH_IMO_MAXF2_REG)
 2267              		.loc 1 264 0
 2268 0052 2F4E     		ldr	r6, .L191+32
 2269 0054 3178     		ldrb	r1, [r6]
 2270 0056 8C42     		cmp	r4, r1
 2271 0058 03D8     		bhi	.L182
 266:.\Generated_Source\PSoC4/CyLib.c ****                 bgTrim4 = CY_SFLASH_IMO_ABS2_REG;
 2272              		.loc 1 266 0
 2273 005a 2E4A     		ldr	r2, .L191+36
 267:.\Generated_Source\PSoC4/CyLib.c ****                 bgTrim5 = CY_SFLASH_IMO_TMPCO2_REG;
 2274              		.loc 1 267 0
 2275 005c 2E49     		ldr	r1, .L191+40
 266:.\Generated_Source\PSoC4/CyLib.c ****                 bgTrim4 = CY_SFLASH_IMO_ABS2_REG;
 2276              		.loc 1 266 0
 2277 005e 1678     		ldrb	r6, [r2]
 2278              	.LVL178:
 2279 0060 0AE0     		b	.L190
 2280              	.LVL179:
 2281              	.L182:
 269:.\Generated_Source\PSoC4/CyLib.c ****             else if(freq <= CY_SFLASH_IMO_MAXF3_REG)
 2282              		.loc 1 269 0
ARM GAS  C:\Users\vrnk\AppData\Local\Temp\cchVr3qk.s 			page 80


 2283 0062 2E4D     		ldr	r5, .L191+44
 2284 0064 2A78     		ldrb	r2, [r5]
 2285 0066 9442     		cmp	r4, r2
 2286 0068 03D8     		bhi	.L183
 271:.\Generated_Source\PSoC4/CyLib.c ****                 bgTrim4 = CY_SFLASH_IMO_ABS3_REG;
 2287              		.loc 1 271 0
 2288 006a 2D4D     		ldr	r5, .L191+48
 272:.\Generated_Source\PSoC4/CyLib.c ****                 bgTrim5 = CY_SFLASH_IMO_TMPCO3_REG;
 2289              		.loc 1 272 0
 2290 006c 2D49     		ldr	r1, .L191+52
 271:.\Generated_Source\PSoC4/CyLib.c ****                 bgTrim4 = CY_SFLASH_IMO_ABS3_REG;
 2291              		.loc 1 271 0
 2292 006e 2E78     		ldrb	r6, [r5]
 2293              	.LVL180:
 2294 0070 02E0     		b	.L190
 2295              	.LVL181:
 2296              	.L183:
 276:.\Generated_Source\PSoC4/CyLib.c ****                 bgTrim4 = CY_SFLASH_IMO_ABS4_REG;
 2297              		.loc 1 276 0
 2298 0072 2D48     		ldr	r0, .L191+56
 277:.\Generated_Source\PSoC4/CyLib.c ****                 bgTrim5 = CY_SFLASH_IMO_TMPCO4_REG;
 2299              		.loc 1 277 0
 2300 0074 2D49     		ldr	r1, .L191+60
 276:.\Generated_Source\PSoC4/CyLib.c ****                 bgTrim4 = CY_SFLASH_IMO_ABS4_REG;
 2301              		.loc 1 276 0
 2302 0076 0678     		ldrb	r6, [r0]
 2303              	.LVL182:
 2304              	.L190:
 277:.\Generated_Source\PSoC4/CyLib.c ****                 bgTrim5 = CY_SFLASH_IMO_TMPCO4_REG;
 2305              		.loc 1 277 0
 2306 0078 0D78     		ldrb	r5, [r1]
 2307              	.LVL183:
 2308 007a 2C49     		ldr	r1, .L191+60
 2309 007c 6218     		add	r2, r4, r1
 2310 007e 0292     		str	r2, [sp, #8]
 286:.\Generated_Source\PSoC4/CyLib.c ****             if ((currentFreq >= CY_SYS_CLK_IMO_BOUNDARY_FREQ_MHZ) && (freq >= CY_SYS_CLK_IMO_BOUNDA
 2311              		.loc 1 286 0
 2312 0080 2A2B     		cmp	r3, #42
 2313 0082 07D9     		bls	.L184
 286:.\Generated_Source\PSoC4/CyLib.c ****             if ((currentFreq >= CY_SYS_CLK_IMO_BOUNDARY_FREQ_MHZ) && (freq >= CY_SYS_CLK_IMO_BOUNDA
 2314              		.loc 1 286 0 is_stmt 0 discriminator 1
 2315 0084 2A2C     		cmp	r4, #42
 2316 0086 1AD9     		bls	.L185
 289:.\Generated_Source\PSoC4/CyLib.c ****                 CY_SYS_CLK_IMO_TRIM2_REG = (uint32) cyImoFreqMhz2Reg[CY_SYS_CLK_IMO_TEMP_FREQ_MHZ -
 2317              		.loc 1 289 0 is_stmt 1
 2318 0088 1923     		mov	r3, #25
 2319              	.LVL184:
 2320 008a 3B60     		str	r3, [r7]
 292:.\Generated_Source\PSoC4/CyLib.c ****                 CyDelayCycles(CY_SYS_CLK_IMO_FREQ_TIMEOUT_CYCLES);
 2321              		.loc 1 292 0
 2322 008c 0520     		mov	r0, #5
 2323 008e FFF7FEFF 		bl	CyDelayCycles
 2324              	.LVL185:
 2325 0092 01E0     		b	.L186
 2326              	.LVL186:
 2327              	.L184:
 302:.\Generated_Source\PSoC4/CyLib.c ****             if (freq > currentFreq)
ARM GAS  C:\Users\vrnk\AppData\Local\Temp\cchVr3qk.s 			page 81


 2328              		.loc 1 302 0
 2329 0094 9C42     		cmp	r4, r3
 2330 0096 12D9     		bls	.L185
 2331              	.LVL187:
 2332              	.L186:
 305:.\Generated_Source\PSoC4/CyLib.c ****                 CY_SYS_CLK_IMO_TRIM1_REG = (uint32) CY_SFLASH_IMO_TRIM_REG(freq - CY_SYS_CLK_IMO_FR
 2333              		.loc 1 305 0
 2334 0098 0298     		ldr	r0, [sp, #8]
 2335 009a 254A     		ldr	r2, .L191+64
 2336 009c 0178     		ldrb	r1, [r0]
 306:.\Generated_Source\PSoC4/CyLib.c ****                 CY_PWR_BG_TRIM4_REG  = bgTrim4;
 2337              		.loc 1 306 0
 2338 009e 254C     		ldr	r4, .L191+68
 2339              	.LVL188:
 305:.\Generated_Source\PSoC4/CyLib.c ****                 CY_SYS_CLK_IMO_TRIM1_REG = (uint32) CY_SFLASH_IMO_TRIM_REG(freq - CY_SYS_CLK_IMO_FR
 2340              		.loc 1 305 0
 2341 00a0 1160     		str	r1, [r2]
 306:.\Generated_Source\PSoC4/CyLib.c ****                 CY_PWR_BG_TRIM4_REG  = bgTrim4;
 2342              		.loc 1 306 0
 2343 00a2 2660     		str	r6, [r4]
 307:.\Generated_Source\PSoC4/CyLib.c ****                 CY_PWR_BG_TRIM5_REG  = bgTrim5;
 2344              		.loc 1 307 0
 2345 00a4 244E     		ldr	r6, .L191+72
 2346              	.LVL189:
 308:.\Generated_Source\PSoC4/CyLib.c ****                 CyDelayUs(CY_SYS_CLK_IMO_TRIM_TIMEOUT_US);
 2347              		.loc 1 308 0
 2348 00a6 0520     		mov	r0, #5
 307:.\Generated_Source\PSoC4/CyLib.c ****                 CY_PWR_BG_TRIM5_REG  = bgTrim5;
 2349              		.loc 1 307 0
 2350 00a8 3560     		str	r5, [r6]
 308:.\Generated_Source\PSoC4/CyLib.c ****                 CyDelayUs(CY_SYS_CLK_IMO_TRIM_TIMEOUT_US);
 2351              		.loc 1 308 0
 2352 00aa FFF7FEFF 		bl	CyDelayUs
 2353              	.LVL190:
 311:.\Generated_Source\PSoC4/CyLib.c ****                 CY_SYS_CLK_IMO_TRIM2_REG = cyImoFreqMhz2Reg[freq - CY_SYS_CLK_IMO_FREQ_TABLE_OFFSET
 2354              		.loc 1 311 0
 2355 00ae 019B     		ldr	r3, [sp, #4]
 2356 00b0 104D     		ldr	r5, .L191+4
 2357              	.LVL191:
 2358 00b2 E85C     		ldrb	r0, [r5, r3]
 2359 00b4 3860     		str	r0, [r7]
 312:.\Generated_Source\PSoC4/CyLib.c ****                 CyDelayCycles(CY_SYS_CLK_IMO_FREQ_TIMEOUT_CYCLES);
 2360              		.loc 1 312 0
 2361 00b6 0520     		mov	r0, #5
 2362 00b8 FFF7FEFF 		bl	CyDelayCycles
 2363              	.LVL192:
 2364 00bc 11E0     		b	.L187
 2365              	.LVL193:
 2366              	.L185:
 317:.\Generated_Source\PSoC4/CyLib.c ****                 CY_SYS_CLK_IMO_TRIM2_REG = cyImoFreqMhz2Reg[freq - CY_SYS_CLK_IMO_FREQ_TABLE_OFFSET
 2367              		.loc 1 317 0
 2368 00be 0D4C     		ldr	r4, .L191+4
 2369              	.LVL194:
 2370 00c0 019B     		ldr	r3, [sp, #4]
 2371              	.LVL195:
 2372 00c2 E05C     		ldrb	r0, [r4, r3]
 322:.\Generated_Source\PSoC4/CyLib.c ****                 CY_PWR_BG_TRIM4_REG  = bgTrim4;
ARM GAS  C:\Users\vrnk\AppData\Local\Temp\cchVr3qk.s 			page 82


 2373              		.loc 1 322 0
 2374 00c4 1B4C     		ldr	r4, .L191+68
 317:.\Generated_Source\PSoC4/CyLib.c ****                 CY_SYS_CLK_IMO_TRIM2_REG = cyImoFreqMhz2Reg[freq - CY_SYS_CLK_IMO_FREQ_TABLE_OFFSET
 2375              		.loc 1 317 0
 2376 00c6 3860     		str	r0, [r7]
 318:.\Generated_Source\PSoC4/CyLib.c ****                 CyDelayCycles(CY_SYS_CLK_IMO_FREQ_TIMEOUT_CYCLES);
 2377              		.loc 1 318 0
 2378 00c8 0520     		mov	r0, #5
 2379 00ca FFF7FEFF 		bl	CyDelayCycles
 2380              	.LVL196:
 321:.\Generated_Source\PSoC4/CyLib.c ****                 CY_SYS_CLK_IMO_TRIM1_REG = CY_SFLASH_IMO_TRIM_REG(freq - CY_SYS_CLK_IMO_FREQ_TABLE_
 2381              		.loc 1 321 0
 2382 00ce 029F     		ldr	r7, [sp, #8]
 2383 00d0 1749     		ldr	r1, .L191+64
 2384 00d2 3A78     		ldrb	r2, [r7]
 324:.\Generated_Source\PSoC4/CyLib.c ****                 CyDelayUs(CY_SYS_CLK_IMO_TRIM_TIMEOUT_US);
 2385              		.loc 1 324 0
 2386 00d4 0520     		mov	r0, #5
 321:.\Generated_Source\PSoC4/CyLib.c ****                 CY_SYS_CLK_IMO_TRIM1_REG = CY_SFLASH_IMO_TRIM_REG(freq - CY_SYS_CLK_IMO_FREQ_TABLE_
 2387              		.loc 1 321 0
 2388 00d6 0A60     		str	r2, [r1]
 322:.\Generated_Source\PSoC4/CyLib.c ****                 CY_PWR_BG_TRIM4_REG  = bgTrim4;
 2389              		.loc 1 322 0
 2390 00d8 2660     		str	r6, [r4]
 323:.\Generated_Source\PSoC4/CyLib.c ****                 CY_PWR_BG_TRIM5_REG  = bgTrim5;
 2391              		.loc 1 323 0
 2392 00da 174E     		ldr	r6, .L191+72
 2393              	.LVL197:
 2394 00dc 3560     		str	r5, [r6]
 324:.\Generated_Source\PSoC4/CyLib.c ****                 CyDelayUs(CY_SYS_CLK_IMO_TRIM_TIMEOUT_US);
 2395              		.loc 1 324 0
 2396 00de FFF7FEFF 		bl	CyDelayUs
 2397              	.LVL198:
 2398              	.L187:
 327:.\Generated_Source\PSoC4/CyLib.c ****             CyExitCriticalSection(interruptState);
 2399              		.loc 1 327 0
 2400 00e2 0398     		ldr	r0, [sp, #12]
 2401 00e4 FFF7FEFF 		bl	CyExitCriticalSection
 2402              	.LVL199:
 2403 00e8 00E0     		b	.L174
 2404              	.LVL200:
 2405              	.L175:
 2406              	.LBB96:
 2407              	.LBB97:
1849:.\Generated_Source\PSoC4/CyLib.c ****         __asm("    bkpt    1");
 2408              		.loc 1 1849 0
 2409              	@ 1849 ".\Generated_Source\PSoC4\CyLib.c" 1
 2410 00ea 01BE     		    bkpt    1
 2411              	@ 0 "" 2
 2412              	.LVL201:
 2413              		.code	16
 2414              	.L174:
 2415              	.LBE97:
 2416              	.LBE96:
 334:.\Generated_Source\PSoC4/CyLib.c ****     }
 2417              		.loc 1 334 0
 2418 00ec 05B0     		add	sp, sp, #20
ARM GAS  C:\Users\vrnk\AppData\Local\Temp\cchVr3qk.s 			page 83


 2419              		@ sp needed for prologue
 2420 00ee F0BD     		pop	{r4, r5, r6, r7, pc}
 2421              	.L192:
 2422              		.align	2
 2423              	.L191:
 2424 00f0 2CFF0B40 		.word	1074528044
 2425 00f4 00000000 		.word	.LANCHOR1
 2426 00f8 C0F1FF0F 		.word	268431808
 2427 00fc C1F1FF0F 		.word	268431809
 2428 0100 C2F1FF0F 		.word	268431810
 2429 0104 C3F1FF0F 		.word	268431811
 2430 0108 C4F1FF0F 		.word	268431812
 2431 010c C5F1FF0F 		.word	268431813
 2432 0110 C6F1FF0F 		.word	268431814
 2433 0114 C7F1FF0F 		.word	268431815
 2434 0118 C8F1FF0F 		.word	268431816
 2435 011c C9F1FF0F 		.word	268431817
 2436 0120 CAF1FF0F 		.word	268431818
 2437 0124 CBF1FF0F 		.word	268431819
 2438 0128 CCF1FF0F 		.word	268431820
 2439 012c CDF1FF0F 		.word	268431821
 2440 0130 28FF0B40 		.word	1074528040
 2441 0134 1CFF0B40 		.word	1074528028
 2442 0138 20FF0B40 		.word	1074528032
 2443              		.cfi_endproc
 2444              	.LFE6:
 2445              		.size	CySysClkWriteImoFreq, .-CySysClkWriteImoFreq
 2446              		.global	__aeabi_uidiv
 2447              		.section	.text.CyDelayFreq,"ax",%progbits
 2448              		.align	1
 2449              		.global	CyDelayFreq
 2450              		.code	16
 2451              		.thumb_func
 2452              		.type	CyDelayFreq, %function
 2453              	CyDelayFreq:
 2454              	.LFB47:
1927:.\Generated_Source\PSoC4/CyLib.c **** 
1928:.\Generated_Source\PSoC4/CyLib.c **** 
1929:.\Generated_Source\PSoC4/CyLib.c **** /*******************************************************************************
1930:.\Generated_Source\PSoC4/CyLib.c **** * Function Name: CyDelayFreq
1931:.\Generated_Source\PSoC4/CyLib.c **** ********************************************************************************
1932:.\Generated_Source\PSoC4/CyLib.c **** * Summary:
1933:.\Generated_Source\PSoC4/CyLib.c **** *  Sets clock frequency for CyDelay.
1934:.\Generated_Source\PSoC4/CyLib.c **** *
1935:.\Generated_Source\PSoC4/CyLib.c **** * Parameters:
1936:.\Generated_Source\PSoC4/CyLib.c **** *  freq: Frequency of bus clock in Hertz.
1937:.\Generated_Source\PSoC4/CyLib.c **** *
1938:.\Generated_Source\PSoC4/CyLib.c **** * Return:
1939:.\Generated_Source\PSoC4/CyLib.c **** *  None
1940:.\Generated_Source\PSoC4/CyLib.c **** *
1941:.\Generated_Source\PSoC4/CyLib.c **** *******************************************************************************/
1942:.\Generated_Source\PSoC4/CyLib.c **** void CyDelayFreq(uint32 freq)
1943:.\Generated_Source\PSoC4/CyLib.c **** {
 2455              		.loc 1 1943 0
 2456              		.cfi_startproc
 2457              	.LVL202:
 2458 0000 38B5     		push	{r3, r4, r5, lr}
ARM GAS  C:\Users\vrnk\AppData\Local\Temp\cchVr3qk.s 			page 84


 2459              	.LCFI26:
 2460              		.cfi_def_cfa_offset 16
 2461              		.cfi_offset 3, -16
 2462              		.cfi_offset 4, -12
 2463              		.cfi_offset 5, -8
 2464              		.cfi_offset 14, -4
 2465 0002 0C4C     		ldr	r4, .L196
1944:.\Generated_Source\PSoC4/CyLib.c ****     if (freq != 0u)
 2466              		.loc 1 1944 0
 2467 0004 0028     		cmp	r0, #0
 2468 0006 01D0     		beq	.L194
1945:.\Generated_Source\PSoC4/CyLib.c ****     {
1946:.\Generated_Source\PSoC4/CyLib.c ****         cydelayFreqHz = freq;
 2469              		.loc 1 1946 0
 2470 0008 E060     		str	r0, [r4, #12]
 2471 000a 01E0     		b	.L195
 2472              	.L194:
1947:.\Generated_Source\PSoC4/CyLib.c ****     }
1948:.\Generated_Source\PSoC4/CyLib.c ****     else
1949:.\Generated_Source\PSoC4/CyLib.c ****     {
1950:.\Generated_Source\PSoC4/CyLib.c ****         cydelayFreqHz = CYDEV_BCLK__SYSCLK__HZ;
 2473              		.loc 1 1950 0
 2474 000c 0A4B     		ldr	r3, .L196+4
 2475 000e E360     		str	r3, [r4, #12]
 2476              	.L195:
1951:.\Generated_Source\PSoC4/CyLib.c ****     }
1952:.\Generated_Source\PSoC4/CyLib.c **** 
1953:.\Generated_Source\PSoC4/CyLib.c ****     cydelayFreqMhz = (uint8)((cydelayFreqHz + CY_DELAY_1M_MINUS_1_THRESHOLD) / CY_DELAY_1M_THRESHOL
 2477              		.loc 1 1953 0
 2478 0010 E568     		ldr	r5, [r4, #12]
 2479 0012 0A48     		ldr	r0, .L196+8
 2480              	.LVL203:
 2481 0014 0A49     		ldr	r1, .L196+12
 2482 0016 2818     		add	r0, r5, r0
 2483 0018 FFF7FEFF 		bl	__aeabi_uidiv
 2484              	.LVL204:
1954:.\Generated_Source\PSoC4/CyLib.c ****     cydelayFreqKhz = (cydelayFreqHz + CY_DELAY_1K_MINUS_1_THRESHOLD) / CY_DELAY_1K_THRESHOLD;
 2485              		.loc 1 1954 0
 2486 001c 0949     		ldr	r1, .L196+16
 2487 001e FA22     		mov	r2, #250
1953:.\Generated_Source\PSoC4/CyLib.c ****     cydelayFreqMhz = (uint8)((cydelayFreqHz + CY_DELAY_1M_MINUS_1_THRESHOLD) / CY_DELAY_1M_THRESHOL
 2488              		.loc 1 1953 0
 2489 0020 2072     		strb	r0, [r4, #8]
 2490              		.loc 1 1954 0
 2491 0022 6818     		add	r0, r5, r1
 2492 0024 9100     		lsl	r1, r2, #2
 2493 0026 FFF7FEFF 		bl	__aeabi_uidiv
 2494              	.LVL205:
1955:.\Generated_Source\PSoC4/CyLib.c ****     cydelay32kMs   = CY_DELAY_MS_OVERFLOW * cydelayFreqKhz;
 2495              		.loc 1 1955 0
 2496 002a C303     		lsl	r3, r0, #15
1954:.\Generated_Source\PSoC4/CyLib.c ****     cydelayFreqKhz = (cydelayFreqHz + CY_DELAY_1K_MINUS_1_THRESHOLD) / CY_DELAY_1K_THRESHOLD;
 2497              		.loc 1 1954 0
 2498 002c 6060     		str	r0, [r4, #4]
 2499              		.loc 1 1955 0
 2500 002e 2360     		str	r3, [r4]
1956:.\Generated_Source\PSoC4/CyLib.c **** }
ARM GAS  C:\Users\vrnk\AppData\Local\Temp\cchVr3qk.s 			page 85


 2501              		.loc 1 1956 0
 2502              		@ sp needed for prologue
 2503 0030 38BD     		pop	{r3, r4, r5, pc}
 2504              	.L197:
 2505 0032 C046     		.align	2
 2506              	.L196:
 2507 0034 00000000 		.word	.LANCHOR0
 2508 0038 00366E01 		.word	24000000
 2509 003c 3F420F00 		.word	999999
 2510 0040 40420F00 		.word	1000000
 2511 0044 E7030000 		.word	999
 2512              		.cfi_endproc
 2513              	.LFE47:
 2514              		.size	CyDelayFreq, .-CyDelayFreq
 2515              		.global	cydelay32kMs
 2516              		.global	cydelayFreqMhz
 2517              		.global	cydelayFreqKhz
 2518              		.global	cydelayFreqHz
 2519              		.section	.rodata
 2520              		.set	.LANCHOR1,. + 0
 2521              		.type	cyImoFreqMhz2Reg.4608, %object
 2522              		.size	cyImoFreqMhz2Reg.4608, 46
 2523              	cyImoFreqMhz2Reg.4608:
 2524 0000 03       		.byte	3
 2525 0001 04       		.byte	4
 2526 0002 05       		.byte	5
 2527 0003 06       		.byte	6
 2528 0004 07       		.byte	7
 2529 0005 08       		.byte	8
 2530 0006 09       		.byte	9
 2531 0007 0A       		.byte	10
 2532 0008 0B       		.byte	11
 2533 0009 0C       		.byte	12
 2534 000a 0E       		.byte	14
 2535 000b 0F       		.byte	15
 2536 000c 10       		.byte	16
 2537 000d 11       		.byte	17
 2538 000e 12       		.byte	18
 2539 000f 13       		.byte	19
 2540 0010 14       		.byte	20
 2541 0011 15       		.byte	21
 2542 0012 16       		.byte	22
 2543 0013 17       		.byte	23
 2544 0014 18       		.byte	24
 2545 0015 19       		.byte	25
 2546 0016 1B       		.byte	27
 2547 0017 1C       		.byte	28
 2548 0018 1D       		.byte	29
 2549 0019 1E       		.byte	30
 2550 001a 1F       		.byte	31
 2551 001b 20       		.byte	32
 2552 001c 21       		.byte	33
 2553 001d 22       		.byte	34
 2554 001e 23       		.byte	35
 2555 001f 25       		.byte	37
 2556 0020 26       		.byte	38
 2557 0021 27       		.byte	39
ARM GAS  C:\Users\vrnk\AppData\Local\Temp\cchVr3qk.s 			page 86


 2558 0022 28       		.byte	40
 2559 0023 29       		.byte	41
 2560 0024 2A       		.byte	42
 2561 0025 2B       		.byte	43
 2562 0026 2E       		.byte	46
 2563 0027 2F       		.byte	47
 2564 0028 30       		.byte	48
 2565 0029 31       		.byte	49
 2566 002a 32       		.byte	50
 2567 002b 33       		.byte	51
 2568 002c 34       		.byte	52
 2569 002d 35       		.byte	53
 2570              		.data
 2571              		.align	2
 2572              		.set	.LANCHOR0,. + 0
 2573              		.type	cydelay32kMs, %object
 2574              		.size	cydelay32kMs, 4
 2575              	cydelay32kMs:
 2576 0000 0000E02E 		.word	786432000
 2577              		.type	cydelayFreqKhz, %object
 2578              		.size	cydelayFreqKhz, 4
 2579              	cydelayFreqKhz:
 2580 0004 C05D0000 		.word	24000
 2581              		.type	cydelayFreqMhz, %object
 2582              		.size	cydelayFreqMhz, 1
 2583              	cydelayFreqMhz:
 2584 0008 18       		.byte	24
 2585 0009 000000   		.space	3
 2586              		.type	cydelayFreqHz, %object
 2587              		.size	cydelayFreqHz, 4
 2588              	cydelayFreqHz:
 2589 000c 00366E01 		.word	24000000
 2590              		.text
 2591              	.Letext0:
 2592              		.file 2 ".\\Generated_Source\\PSoC4\\cytypes.h"
 2593              		.file 3 ".\\Generated_Source\\PSoC4\\CyLib.h"
 2594              		.section	.debug_info,"",%progbits
 2595              	.Ldebug_info0:
 2596 0000 620E0000 		.4byte	0xe62
 2597 0004 0200     		.2byte	0x2
 2598 0006 00000000 		.4byte	.Ldebug_abbrev0
 2599 000a 04       		.byte	0x4
 2600 000b 01       		.uleb128 0x1
 2601 000c A7040000 		.4byte	.LASF104
 2602 0010 01       		.byte	0x1
 2603 0011 34030000 		.4byte	.LASF105
 2604 0015 D4020000 		.4byte	.LASF106
 2605 0019 68000000 		.4byte	.Ldebug_ranges0+0x68
 2606 001d 00000000 		.4byte	0
 2607 0021 00000000 		.4byte	0
 2608 0025 00000000 		.4byte	.Ldebug_line0
 2609 0029 02       		.uleb128 0x2
 2610 002a 01       		.byte	0x1
 2611 002b 06       		.byte	0x6
 2612 002c D5000000 		.4byte	.LASF0
 2613 0030 02       		.uleb128 0x2
 2614 0031 01       		.byte	0x1
ARM GAS  C:\Users\vrnk\AppData\Local\Temp\cchVr3qk.s 			page 87


 2615 0032 08       		.byte	0x8
 2616 0033 06050000 		.4byte	.LASF1
 2617 0037 02       		.uleb128 0x2
 2618 0038 02       		.byte	0x2
 2619 0039 05       		.byte	0x5
 2620 003a 14050000 		.4byte	.LASF2
 2621 003e 02       		.uleb128 0x2
 2622 003f 02       		.byte	0x2
 2623 0040 07       		.byte	0x7
 2624 0041 C1020000 		.4byte	.LASF3
 2625 0045 02       		.uleb128 0x2
 2626 0046 04       		.byte	0x4
 2627 0047 05       		.byte	0x5
 2628 0048 3F010000 		.4byte	.LASF4
 2629 004c 02       		.uleb128 0x2
 2630 004d 04       		.byte	0x4
 2631 004e 07       		.byte	0x7
 2632 004f 4E020000 		.4byte	.LASF5
 2633 0053 02       		.uleb128 0x2
 2634 0054 08       		.byte	0x8
 2635 0055 05       		.byte	0x5
 2636 0056 C7000000 		.4byte	.LASF6
 2637 005a 02       		.uleb128 0x2
 2638 005b 08       		.byte	0x8
 2639 005c 07       		.byte	0x7
 2640 005d 85000000 		.4byte	.LASF7
 2641 0061 03       		.uleb128 0x3
 2642 0062 04       		.byte	0x4
 2643 0063 05       		.byte	0x5
 2644 0064 696E7400 		.ascii	"int\000"
 2645 0068 02       		.uleb128 0x2
 2646 0069 04       		.byte	0x4
 2647 006a 07       		.byte	0x7
 2648 006b 41020000 		.4byte	.LASF8
 2649 006f 04       		.uleb128 0x4
 2650 0070 55010000 		.4byte	.LASF9
 2651 0074 02       		.byte	0x2
 2652 0075 5B       		.byte	0x5b
 2653 0076 30000000 		.4byte	0x30
 2654 007a 04       		.uleb128 0x4
 2655 007b 1A000000 		.4byte	.LASF10
 2656 007f 02       		.byte	0x2
 2657 0080 5C       		.byte	0x5c
 2658 0081 3E000000 		.4byte	0x3e
 2659 0085 04       		.uleb128 0x4
 2660 0086 C7010000 		.4byte	.LASF11
 2661 008a 02       		.byte	0x2
 2662 008b 5D       		.byte	0x5d
 2663 008c 4C000000 		.4byte	0x4c
 2664 0090 02       		.uleb128 0x2
 2665 0091 04       		.byte	0x4
 2666 0092 04       		.byte	0x4
 2667 0093 54040000 		.4byte	.LASF12
 2668 0097 02       		.uleb128 0x2
 2669 0098 08       		.byte	0x8
 2670 0099 04       		.byte	0x4
 2671 009a 71010000 		.4byte	.LASF13
ARM GAS  C:\Users\vrnk\AppData\Local\Temp\cchVr3qk.s 			page 88


 2672 009e 02       		.uleb128 0x2
 2673 009f 01       		.byte	0x1
 2674 00a0 08       		.byte	0x8
 2675 00a1 AD050000 		.4byte	.LASF14
 2676 00a5 04       		.uleb128 0x4
 2677 00a6 F0040000 		.4byte	.LASF15
 2678 00aa 02       		.byte	0x2
 2679 00ab F0       		.byte	0xf0
 2680 00ac B0000000 		.4byte	0xb0
 2681 00b0 05       		.uleb128 0x5
 2682 00b1 6F000000 		.4byte	0x6f
 2683 00b5 04       		.uleb128 0x4
 2684 00b6 8D030000 		.4byte	.LASF16
 2685 00ba 02       		.byte	0x2
 2686 00bb F2       		.byte	0xf2
 2687 00bc C0000000 		.4byte	0xc0
 2688 00c0 05       		.uleb128 0x5
 2689 00c1 85000000 		.4byte	0x85
 2690 00c5 06       		.uleb128 0x6
 2691 00c6 C0050000 		.4byte	.LASF17
 2692 00ca 02       		.byte	0x2
 2693 00cb 0201     		.2byte	0x102
 2694 00cd D1000000 		.4byte	0xd1
 2695 00d1 07       		.uleb128 0x7
 2696 00d2 04       		.byte	0x4
 2697 00d3 D7000000 		.4byte	0xd7
 2698 00d7 08       		.uleb128 0x8
 2699 00d8 01       		.byte	0x1
 2700 00d9 02       		.uleb128 0x2
 2701 00da 04       		.byte	0x4
 2702 00db 07       		.byte	0x7
 2703 00dc C6030000 		.4byte	.LASF18
 2704 00e0 09       		.uleb128 0x9
 2705 00e1 01       		.byte	0x1
 2706 00e2 FF040000 		.4byte	.LASF102
 2707 00e6 01       		.byte	0x1
 2708 00e7 2F07     		.2byte	0x72f
 2709 00e9 01       		.byte	0x1
 2710 00ea 01       		.byte	0x1
 2711 00eb FC000000 		.4byte	0xfc
 2712 00ef 0A       		.uleb128 0xa
 2713 00f0 97050000 		.4byte	.LASF30
 2714 00f4 01       		.byte	0x1
 2715 00f5 2F07     		.2byte	0x72f
 2716 00f7 6F000000 		.4byte	0x6f
 2717 00fb 00       		.byte	0
 2718 00fc 0B       		.uleb128 0xb
 2719 00fd 01       		.byte	0x1
 2720 00fe 47060000 		.4byte	.LASF19
 2721 0102 01       		.byte	0x1
 2722 0103 2C       		.byte	0x2c
 2723 0104 01       		.byte	0x1
 2724 0105 00000000 		.4byte	.LFB0
 2725 0109 14000000 		.4byte	.LFE0
 2726 010d 02       		.byte	0x2
 2727 010e 7D       		.byte	0x7d
 2728 010f 00       		.sleb128 0
ARM GAS  C:\Users\vrnk\AppData\Local\Temp\cchVr3qk.s 			page 89


 2729 0110 01       		.byte	0x1
 2730 0111 0B       		.uleb128 0xb
 2731 0112 01       		.byte	0x1
 2732 0113 8A020000 		.4byte	.LASF20
 2733 0117 01       		.byte	0x1
 2734 0118 40       		.byte	0x40
 2735 0119 01       		.byte	0x1
 2736 011a 00000000 		.4byte	.LFB1
 2737 011e 10000000 		.4byte	.LFE1
 2738 0122 02       		.byte	0x2
 2739 0123 7D       		.byte	0x7d
 2740 0124 00       		.sleb128 0
 2741 0125 01       		.byte	0x1
 2742 0126 0B       		.uleb128 0xb
 2743 0127 01       		.byte	0x1
 2744 0128 55030000 		.4byte	.LASF21
 2745 012c 01       		.byte	0x1
 2746 012d 54       		.byte	0x54
 2747 012e 01       		.byte	0x1
 2748 012f 00000000 		.4byte	.LFB2
 2749 0133 14000000 		.4byte	.LFE2
 2750 0137 02       		.byte	0x2
 2751 0138 7D       		.byte	0x7d
 2752 0139 00       		.sleb128 0
 2753 013a 01       		.byte	0x1
 2754 013b 0B       		.uleb128 0xb
 2755 013c 01       		.byte	0x1
 2756 013d 78010000 		.4byte	.LASF22
 2757 0141 01       		.byte	0x1
 2758 0142 6D       		.byte	0x6d
 2759 0143 01       		.byte	0x1
 2760 0144 00000000 		.4byte	.LFB3
 2761 0148 10000000 		.4byte	.LFE3
 2762 014c 02       		.byte	0x2
 2763 014d 7D       		.byte	0x7d
 2764 014e 00       		.sleb128 0
 2765 014f 01       		.byte	0x1
 2766 0150 0C       		.uleb128 0xc
 2767 0151 01       		.byte	0x1
 2768 0152 30000000 		.4byte	.LASF23
 2769 0156 01       		.byte	0x1
 2770 0157 91       		.byte	0x91
 2771 0158 01       		.byte	0x1
 2772 0159 00000000 		.4byte	.LFB4
 2773 015d 18000000 		.4byte	.LFE4
 2774 0161 02       		.byte	0x2
 2775 0162 7D       		.byte	0x7d
 2776 0163 00       		.sleb128 0
 2777 0164 01       		.byte	0x1
 2778 0165 79010000 		.4byte	0x179
 2779 0169 0D       		.uleb128 0xd
 2780 016a 72050000 		.4byte	.LASF25
 2781 016e 01       		.byte	0x1
 2782 016f 91       		.byte	0x91
 2783 0170 85000000 		.4byte	0x85
 2784 0174 00000000 		.4byte	.LLST0
 2785 0178 00       		.byte	0
ARM GAS  C:\Users\vrnk\AppData\Local\Temp\cchVr3qk.s 			page 90


 2786 0179 0E       		.uleb128 0xe
 2787 017a 01       		.byte	0x1
 2788 017b D9050000 		.4byte	.LASF24
 2789 017f 01       		.byte	0x1
 2790 0180 B8       		.byte	0xb8
 2791 0181 01       		.byte	0x1
 2792 0182 00000000 		.4byte	.LFB5
 2793 0186 20000000 		.4byte	.LFE5
 2794 018a 21000000 		.4byte	.LLST1
 2795 018e 01       		.byte	0x1
 2796 018f A3010000 		.4byte	0x1a3
 2797 0193 0D       		.uleb128 0xd
 2798 0194 3F060000 		.4byte	.LASF26
 2799 0198 01       		.byte	0x1
 2800 0199 B8       		.byte	0xb8
 2801 019a 85000000 		.4byte	0x85
 2802 019e 41000000 		.4byte	.LLST2
 2803 01a2 00       		.byte	0
 2804 01a3 0F       		.uleb128 0xf
 2805 01a4 01       		.byte	0x1
 2806 01a5 10010000 		.4byte	.LASF27
 2807 01a9 01       		.byte	0x1
 2808 01aa 6501     		.2byte	0x165
 2809 01ac 01       		.byte	0x1
 2810 01ad 00000000 		.4byte	.LFB7
 2811 01b1 30000000 		.4byte	.LFE7
 2812 01b5 62000000 		.4byte	.LLST3
 2813 01b9 01       		.byte	0x1
 2814 01ba F1010000 		.4byte	0x1f1
 2815 01be 10       		.uleb128 0x10
 2816 01bf 7B020000 		.4byte	.LASF29
 2817 01c3 01       		.byte	0x1
 2818 01c4 6701     		.2byte	0x167
 2819 01c6 6F000000 		.4byte	0x6f
 2820 01ca 82000000 		.4byte	.LLST4
 2821 01ce 11       		.uleb128 0x11
 2822 01cf 06000000 		.4byte	.LVL4
 2823 01d3 330E0000 		.4byte	0xe33
 2824 01d7 11       		.uleb128 0x11
 2825 01d8 14000000 		.4byte	.LVL7
 2826 01dc 26010000 		.4byte	0x126
 2827 01e0 12       		.uleb128 0x12
 2828 01e1 26000000 		.4byte	.LVL8
 2829 01e5 410E0000 		.4byte	0xe41
 2830 01e9 13       		.uleb128 0x13
 2831 01ea 01       		.byte	0x1
 2832 01eb 50       		.byte	0x50
 2833 01ec 02       		.byte	0x2
 2834 01ed 74       		.byte	0x74
 2835 01ee 00       		.sleb128 0
 2836 01ef 00       		.byte	0
 2837 01f0 00       		.byte	0
 2838 01f1 0F       		.uleb128 0xf
 2839 01f2 01       		.byte	0x1
 2840 01f3 49000000 		.4byte	.LASF28
 2841 01f7 01       		.byte	0x1
 2842 01f8 8B01     		.2byte	0x18b
ARM GAS  C:\Users\vrnk\AppData\Local\Temp\cchVr3qk.s 			page 91


 2843 01fa 01       		.byte	0x1
 2844 01fb 00000000 		.4byte	.LFB8
 2845 01ff 44000000 		.4byte	.LFE8
 2846 0203 A0000000 		.4byte	.LLST5
 2847 0207 01       		.byte	0x1
 2848 0208 3F020000 		.4byte	0x23f
 2849 020c 10       		.uleb128 0x10
 2850 020d 7B020000 		.4byte	.LASF29
 2851 0211 01       		.byte	0x1
 2852 0212 8D01     		.2byte	0x18d
 2853 0214 6F000000 		.4byte	0x6f
 2854 0218 C0000000 		.4byte	.LLST6
 2855 021c 11       		.uleb128 0x11
 2856 021d 06000000 		.4byte	.LVL10
 2857 0221 330E0000 		.4byte	0xe33
 2858 0225 11       		.uleb128 0x11
 2859 0226 14000000 		.4byte	.LVL13
 2860 022a 26010000 		.4byte	0x126
 2861 022e 12       		.uleb128 0x12
 2862 022f 36000000 		.4byte	.LVL14
 2863 0233 410E0000 		.4byte	0xe41
 2864 0237 13       		.uleb128 0x13
 2865 0238 01       		.byte	0x1
 2866 0239 50       		.byte	0x50
 2867 023a 02       		.byte	0x2
 2868 023b 74       		.byte	0x74
 2869 023c 00       		.sleb128 0
 2870 023d 00       		.byte	0
 2871 023e 00       		.byte	0
 2872 023f 14       		.uleb128 0x14
 2873 0240 01       		.byte	0x1
 2874 0241 58060000 		.4byte	.LASF107
 2875 0245 01       		.byte	0x1
 2876 0246 B801     		.2byte	0x1b8
 2877 0248 01       		.byte	0x1
 2878 0249 85000000 		.4byte	0x85
 2879 024d 01       		.byte	0x1
 2880 024e 5F020000 		.4byte	0x25f
 2881 0252 0A       		.uleb128 0xa
 2882 0253 5F000000 		.4byte	.LASF31
 2883 0257 01       		.byte	0x1
 2884 0258 B801     		.2byte	0x1b8
 2885 025a 85000000 		.4byte	0x85
 2886 025e 00       		.byte	0
 2887 025f 15       		.uleb128 0x15
 2888 0260 3F020000 		.4byte	0x23f
 2889 0264 00000000 		.4byte	.LFB9
 2890 0268 20000000 		.4byte	.LFE9
 2891 026c DE000000 		.4byte	.LLST7
 2892 0270 01       		.byte	0x1
 2893 0271 99020000 		.4byte	0x299
 2894 0275 16       		.uleb128 0x16
 2895 0276 52020000 		.4byte	0x252
 2896 027a FE000000 		.4byte	.LLST8
 2897 027e 17       		.uleb128 0x17
 2898 027f E0000000 		.4byte	0xe0
 2899 0283 06000000 		.4byte	.LBB34
ARM GAS  C:\Users\vrnk\AppData\Local\Temp\cchVr3qk.s 			page 92


 2900 0287 08000000 		.4byte	.LBE34
 2901 028b 01       		.byte	0x1
 2902 028c BA01     		.2byte	0x1ba
 2903 028e 16       		.uleb128 0x16
 2904 028f EF000000 		.4byte	0xef
 2905 0293 1F010000 		.4byte	.LLST9
 2906 0297 00       		.byte	0
 2907 0298 00       		.byte	0
 2908 0299 0F       		.uleb128 0xf
 2909 029a 01       		.byte	0x1
 2910 029b 00000000 		.4byte	.LASF32
 2911 029f 01       		.byte	0x1
 2912 02a0 DB01     		.2byte	0x1db
 2913 02a2 01       		.byte	0x1
 2914 02a3 00000000 		.4byte	.LFB10
 2915 02a7 44000000 		.4byte	.LFE10
 2916 02ab 33010000 		.4byte	.LLST10
 2917 02af 01       		.byte	0x1
 2918 02b0 1C030000 		.4byte	0x31c
 2919 02b4 18       		.uleb128 0x18
 2920 02b5 5F000000 		.4byte	.LASF31
 2921 02b9 01       		.byte	0x1
 2922 02ba DB01     		.2byte	0x1db
 2923 02bc 85000000 		.4byte	0x85
 2924 02c0 53010000 		.4byte	.LLST11
 2925 02c4 18       		.uleb128 0x18
 2926 02c5 BB050000 		.4byte	.LASF33
 2927 02c9 01       		.byte	0x1
 2928 02ca DB01     		.2byte	0x1db
 2929 02cc 85000000 		.4byte	0x85
 2930 02d0 7F010000 		.4byte	.LLST12
 2931 02d4 10       		.uleb128 0x10
 2932 02d5 08060000 		.4byte	.LASF34
 2933 02d9 01       		.byte	0x1
 2934 02da DD01     		.2byte	0x1dd
 2935 02dc 85000000 		.4byte	0x85
 2936 02e0 AB010000 		.4byte	.LLST13
 2937 02e4 19       		.uleb128 0x19
 2938 02e5 E0000000 		.4byte	0xe0
 2939 02e9 0A000000 		.4byte	.LBB36
 2940 02ed 0C000000 		.4byte	.LBE36
 2941 02f1 01       		.byte	0x1
 2942 02f2 DF01     		.2byte	0x1df
 2943 02f4 02030000 		.4byte	0x302
 2944 02f8 16       		.uleb128 0x16
 2945 02f9 EF000000 		.4byte	0xef
 2946 02fd BE010000 		.4byte	.LLST14
 2947 0301 00       		.byte	0
 2948 0302 11       		.uleb128 0x11
 2949 0303 18000000 		.4byte	.LVL24
 2950 0307 26010000 		.4byte	0x126
 2951 030b 12       		.uleb128 0x12
 2952 030c 1E000000 		.4byte	.LVL25
 2953 0310 3F020000 		.4byte	0x23f
 2954 0314 13       		.uleb128 0x13
 2955 0315 01       		.byte	0x1
 2956 0316 50       		.byte	0x50
ARM GAS  C:\Users\vrnk\AppData\Local\Temp\cchVr3qk.s 			page 93


 2957 0317 02       		.byte	0x2
 2958 0318 74       		.byte	0x74
 2959 0319 00       		.sleb128 0
 2960 031a 00       		.byte	0
 2961 031b 00       		.byte	0
 2962 031c 1A       		.uleb128 0x1a
 2963 031d 01       		.byte	0x1
 2964 031e E1000000 		.4byte	.LASF37
 2965 0322 01       		.byte	0x1
 2966 0323 0202     		.2byte	0x202
 2967 0325 01       		.byte	0x1
 2968 0326 85000000 		.4byte	0x85
 2969 032a 00000000 		.4byte	.LFB11
 2970 032e 14000000 		.4byte	.LFE11
 2971 0332 02       		.byte	0x2
 2972 0333 7D       		.byte	0x7d
 2973 0334 00       		.sleb128 0
 2974 0335 01       		.byte	0x1
 2975 0336 4B030000 		.4byte	0x34b
 2976 033a 18       		.uleb128 0x18
 2977 033b 5F000000 		.4byte	.LASF31
 2978 033f 01       		.byte	0x1
 2979 0340 0202     		.2byte	0x202
 2980 0342 85000000 		.4byte	0x85
 2981 0346 D2010000 		.4byte	.LLST15
 2982 034a 00       		.byte	0
 2983 034b 0F       		.uleb128 0xf
 2984 034c 01       		.byte	0x1
 2985 034d 93030000 		.4byte	.LASF35
 2986 0351 01       		.byte	0x1
 2987 0352 2302     		.2byte	0x223
 2988 0354 01       		.byte	0x1
 2989 0355 00000000 		.4byte	.LFB12
 2990 0359 3C000000 		.4byte	.LFE12
 2991 035d F3010000 		.4byte	.LLST16
 2992 0361 01       		.byte	0x1
 2993 0362 BE030000 		.4byte	0x3be
 2994 0366 18       		.uleb128 0x18
 2995 0367 5F000000 		.4byte	.LASF31
 2996 036b 01       		.byte	0x1
 2997 036c 2302     		.2byte	0x223
 2998 036e 85000000 		.4byte	0x85
 2999 0372 13020000 		.4byte	.LLST17
 3000 0376 18       		.uleb128 0x18
 3001 0377 6A010000 		.4byte	.LASF36
 3002 037b 01       		.byte	0x1
 3003 037c 2302     		.2byte	0x223
 3004 037e 85000000 		.4byte	0x85
 3005 0382 3F020000 		.4byte	.LLST18
 3006 0386 19       		.uleb128 0x19
 3007 0387 E0000000 		.4byte	0xe0
 3008 038b 0A000000 		.4byte	.LBB38
 3009 038f 0C000000 		.4byte	.LBE38
 3010 0393 01       		.byte	0x1
 3011 0394 2502     		.2byte	0x225
 3012 0396 A4030000 		.4byte	0x3a4
 3013 039a 16       		.uleb128 0x16
ARM GAS  C:\Users\vrnk\AppData\Local\Temp\cchVr3qk.s 			page 94


 3014 039b EF000000 		.4byte	0xef
 3015 039f 6B020000 		.4byte	.LLST19
 3016 03a3 00       		.byte	0
 3017 03a4 11       		.uleb128 0x11
 3018 03a5 18000000 		.4byte	.LVL37
 3019 03a9 26010000 		.4byte	0x126
 3020 03ad 12       		.uleb128 0x12
 3021 03ae 1E000000 		.4byte	.LVL38
 3022 03b2 3F020000 		.4byte	0x23f
 3023 03b6 13       		.uleb128 0x13
 3024 03b7 01       		.byte	0x1
 3025 03b8 50       		.byte	0x50
 3026 03b9 02       		.byte	0x2
 3027 03ba 74       		.byte	0x74
 3028 03bb 00       		.sleb128 0
 3029 03bc 00       		.byte	0
 3030 03bd 00       		.byte	0
 3031 03be 1B       		.uleb128 0x1b
 3032 03bf 01       		.byte	0x1
 3033 03c0 AD030000 		.4byte	.LASF38
 3034 03c4 01       		.byte	0x1
 3035 03c5 4702     		.2byte	0x247
 3036 03c7 01       		.byte	0x1
 3037 03c8 85000000 		.4byte	0x85
 3038 03cc 00000000 		.4byte	.LFB13
 3039 03d0 20000000 		.4byte	.LFE13
 3040 03d4 7F020000 		.4byte	.LLST20
 3041 03d8 01       		.byte	0x1
 3042 03d9 08040000 		.4byte	0x408
 3043 03dd 18       		.uleb128 0x18
 3044 03de 5F000000 		.4byte	.LASF31
 3045 03e2 01       		.byte	0x1
 3046 03e3 4702     		.2byte	0x247
 3047 03e5 85000000 		.4byte	0x85
 3048 03e9 9F020000 		.4byte	.LLST21
 3049 03ed 17       		.uleb128 0x17
 3050 03ee E0000000 		.4byte	0xe0
 3051 03f2 06000000 		.4byte	.LBB40
 3052 03f6 08000000 		.4byte	.LBE40
 3053 03fa 01       		.byte	0x1
 3054 03fb 4902     		.2byte	0x249
 3055 03fd 16       		.uleb128 0x16
 3056 03fe EF000000 		.4byte	0xef
 3057 0402 C0020000 		.4byte	.LLST22
 3058 0406 00       		.byte	0
 3059 0407 00       		.byte	0
 3060 0408 0F       		.uleb128 0xf
 3061 0409 01       		.byte	0x1
 3062 040a 26020000 		.4byte	.LASF39
 3063 040e 01       		.byte	0x1
 3064 040f 6802     		.2byte	0x268
 3065 0411 01       		.byte	0x1
 3066 0412 00000000 		.4byte	.LFB14
 3067 0416 24000000 		.4byte	.LFE14
 3068 041a D4020000 		.4byte	.LLST23
 3069 041e 01       		.byte	0x1
 3070 041f 3D040000 		.4byte	0x43d
ARM GAS  C:\Users\vrnk\AppData\Local\Temp\cchVr3qk.s 			page 95


 3071 0423 18       		.uleb128 0x18
 3072 0424 35020000 		.4byte	.LASF40
 3073 0428 01       		.byte	0x1
 3074 0429 6802     		.2byte	0x268
 3075 042b 85000000 		.4byte	0x85
 3076 042f F4020000 		.4byte	.LLST24
 3077 0433 11       		.uleb128 0x11
 3078 0434 10000000 		.4byte	.LVL47
 3079 0438 26010000 		.4byte	0x126
 3080 043c 00       		.byte	0
 3081 043d 0F       		.uleb128 0xf
 3082 043e 01       		.byte	0x1
 3083 043f 32050000 		.4byte	.LASF41
 3084 0443 01       		.byte	0x1
 3085 0444 8D02     		.2byte	0x28d
 3086 0446 01       		.byte	0x1
 3087 0447 00000000 		.4byte	.LFB15
 3088 044b 24000000 		.4byte	.LFE15
 3089 044f 20030000 		.4byte	.LLST25
 3090 0453 01       		.byte	0x1
 3091 0454 72040000 		.4byte	0x472
 3092 0458 18       		.uleb128 0x18
 3093 0459 35020000 		.4byte	.LASF40
 3094 045d 01       		.byte	0x1
 3095 045e 8D02     		.2byte	0x28d
 3096 0460 85000000 		.4byte	0x85
 3097 0464 40030000 		.4byte	.LLST26
 3098 0468 11       		.uleb128 0x11
 3099 0469 10000000 		.4byte	.LVL51
 3100 046d 26010000 		.4byte	0x126
 3101 0471 00       		.byte	0
 3102 0472 0F       		.uleb128 0xf
 3103 0473 01       		.byte	0x1
 3104 0474 88010000 		.4byte	.LASF42
 3105 0478 01       		.byte	0x1
 3106 0479 B402     		.2byte	0x2b4
 3107 047b 01       		.byte	0x1
 3108 047c 00000000 		.4byte	.LFB16
 3109 0480 44000000 		.4byte	.LFE16
 3110 0484 6C030000 		.4byte	.LLST27
 3111 0488 01       		.byte	0x1
 3112 0489 18050000 		.4byte	0x518
 3113 048d 18       		.uleb128 0x18
 3114 048e 33060000 		.4byte	.LASF43
 3115 0492 01       		.byte	0x1
 3116 0493 B402     		.2byte	0x2b4
 3117 0495 85000000 		.4byte	0x85
 3118 0499 8C030000 		.4byte	.LLST28
 3119 049d 10       		.uleb128 0x10
 3120 049e 08060000 		.4byte	.LASF34
 3121 04a2 01       		.byte	0x1
 3122 04a3 B602     		.2byte	0x2b6
 3123 04a5 85000000 		.4byte	0x85
 3124 04a9 B8030000 		.4byte	.LLST29
 3125 04ad 10       		.uleb128 0x10
 3126 04ae 11020000 		.4byte	.LASF44
 3127 04b2 01       		.byte	0x1
ARM GAS  C:\Users\vrnk\AppData\Local\Temp\cchVr3qk.s 			page 96


 3128 04b3 B702     		.2byte	0x2b7
 3129 04b5 85000000 		.4byte	0x85
 3130 04b9 E1030000 		.4byte	.LLST30
 3131 04bd 1C       		.uleb128 0x1c
 3132 04be 3F020000 		.4byte	0x23f
 3133 04c2 00000000 		.4byte	.LBB54
 3134 04c6 00000000 		.4byte	.Ldebug_ranges0+0
 3135 04ca 01       		.byte	0x1
 3136 04cb B902     		.2byte	0x2b9
 3137 04cd D8040000 		.4byte	0x4d8
 3138 04d1 1D       		.uleb128 0x1d
 3139 04d2 52020000 		.4byte	0x252
 3140 04d6 00       		.byte	0
 3141 04d7 00       		.byte	0
 3142 04d8 1C       		.uleb128 0x1c
 3143 04d9 3F020000 		.4byte	0x23f
 3144 04dd 08000000 		.4byte	.LBB59
 3145 04e1 20000000 		.4byte	.Ldebug_ranges0+0x20
 3146 04e5 01       		.byte	0x1
 3147 04e6 BA02     		.2byte	0x2ba
 3148 04e8 F3040000 		.4byte	0x4f3
 3149 04ec 1D       		.uleb128 0x1d
 3150 04ed 52020000 		.4byte	0x252
 3151 04f1 01       		.byte	0x1
 3152 04f2 00       		.byte	0
 3153 04f3 1C       		.uleb128 0x1c
 3154 04f4 3F020000 		.4byte	0x23f
 3155 04f8 0A000000 		.4byte	.LBB62
 3156 04fc 38000000 		.4byte	.Ldebug_ranges0+0x38
 3157 0500 01       		.byte	0x1
 3158 0501 BB02     		.2byte	0x2bb
 3159 0503 0E050000 		.4byte	0x50e
 3160 0507 1D       		.uleb128 0x1d
 3161 0508 52020000 		.4byte	0x252
 3162 050c 02       		.byte	0x2
 3163 050d 00       		.byte	0
 3164 050e 11       		.uleb128 0x11
 3165 050f 26000000 		.4byte	.LVL58
 3166 0513 26010000 		.4byte	0x126
 3167 0517 00       		.byte	0
 3168 0518 1E       		.uleb128 0x1e
 3169 0519 01       		.byte	0x1
 3170 051a 1E050000 		.4byte	.LASF47
 3171 051e 01       		.byte	0x1
 3172 051f E102     		.2byte	0x2e1
 3173 0521 01       		.byte	0x1
 3174 0522 85000000 		.4byte	0x85
 3175 0526 00000000 		.4byte	.LFB17
 3176 052a 14000000 		.4byte	.LFE17
 3177 052e 02       		.byte	0x2
 3178 052f 7D       		.byte	0x7d
 3179 0530 00       		.sleb128 0
 3180 0531 01       		.byte	0x1
 3181 0532 0F       		.uleb128 0xf
 3182 0533 01       		.byte	0x1
 3183 0534 7F060000 		.4byte	.LASF45
 3184 0538 01       		.byte	0x1
ARM GAS  C:\Users\vrnk\AppData\Local\Temp\cchVr3qk.s 			page 97


 3185 0539 2B03     		.2byte	0x32b
 3186 053b 01       		.byte	0x1
 3187 053c 00000000 		.4byte	.LFB19
 3188 0540 3C000000 		.4byte	.LFE19
 3189 0544 08040000 		.4byte	.LLST31
 3190 0548 01       		.byte	0x1
 3191 0549 92050000 		.4byte	0x592
 3192 054d 18       		.uleb128 0x18
 3193 054e 3A010000 		.4byte	.LASF46
 3194 0552 01       		.byte	0x1
 3195 0553 2B03     		.2byte	0x32b
 3196 0555 85000000 		.4byte	0x85
 3197 0559 28040000 		.4byte	.LLST32
 3198 055d 10       		.uleb128 0x10
 3199 055e 08060000 		.4byte	.LASF34
 3200 0562 01       		.byte	0x1
 3201 0563 2D03     		.2byte	0x32d
 3202 0565 85000000 		.4byte	0x85
 3203 0569 54040000 		.4byte	.LLST33
 3204 056d 1C       		.uleb128 0x1c
 3205 056e 3F020000 		.4byte	0x23f
 3206 0572 00000000 		.4byte	.LBB72
 3207 0576 50000000 		.4byte	.Ldebug_ranges0+0x50
 3208 057a 01       		.byte	0x1
 3209 057b 2F03     		.2byte	0x32f
 3210 057d 88050000 		.4byte	0x588
 3211 0581 1D       		.uleb128 0x1d
 3212 0582 52020000 		.4byte	0x252
 3213 0586 02       		.byte	0x2
 3214 0587 00       		.byte	0
 3215 0588 11       		.uleb128 0x11
 3216 0589 18000000 		.4byte	.LVL65
 3217 058d 26010000 		.4byte	0x126
 3218 0591 00       		.byte	0
 3219 0592 1E       		.uleb128 0x1e
 3220 0593 01       		.byte	0x1
 3221 0594 91040000 		.4byte	.LASF48
 3222 0598 01       		.byte	0x1
 3223 0599 4F03     		.2byte	0x34f
 3224 059b 01       		.byte	0x1
 3225 059c 85000000 		.4byte	0x85
 3226 05a0 00000000 		.4byte	.LFB20
 3227 05a4 10000000 		.4byte	.LFE20
 3228 05a8 02       		.byte	0x2
 3229 05a9 7D       		.byte	0x7d
 3230 05aa 00       		.sleb128 0
 3231 05ab 01       		.byte	0x1
 3232 05ac 1B       		.uleb128 0x1b
 3233 05ad 01       		.byte	0x1
 3234 05ae 60050000 		.4byte	.LASF49
 3235 05b2 01       		.byte	0x1
 3236 05b3 6403     		.2byte	0x364
 3237 05b5 01       		.byte	0x1
 3238 05b6 85000000 		.4byte	0x85
 3239 05ba 00000000 		.4byte	.LFB21
 3240 05be 18000000 		.4byte	.LFE21
 3241 05c2 7D040000 		.4byte	.LLST34
ARM GAS  C:\Users\vrnk\AppData\Local\Temp\cchVr3qk.s 			page 98


 3242 05c6 01       		.byte	0x1
 3243 05c7 F6050000 		.4byte	0x5f6
 3244 05cb 18       		.uleb128 0x18
 3245 05cc 5F000000 		.4byte	.LASF31
 3246 05d0 01       		.byte	0x1
 3247 05d1 6403     		.2byte	0x364
 3248 05d3 85000000 		.4byte	0x85
 3249 05d7 9D040000 		.4byte	.LLST35
 3250 05db 17       		.uleb128 0x17
 3251 05dc E0000000 		.4byte	0xe0
 3252 05e0 06000000 		.4byte	.LBB76
 3253 05e4 08000000 		.4byte	.LBE76
 3254 05e8 01       		.byte	0x1
 3255 05e9 6603     		.2byte	0x366
 3256 05eb 16       		.uleb128 0x16
 3257 05ec EF000000 		.4byte	0xef
 3258 05f0 BE040000 		.4byte	.LLST36
 3259 05f4 00       		.byte	0
 3260 05f5 00       		.byte	0
 3261 05f6 1B       		.uleb128 0x1b
 3262 05f7 01       		.byte	0x1
 3263 05f8 F2000000 		.4byte	.LASF50
 3264 05fc 01       		.byte	0x1
 3265 05fd 7B03     		.2byte	0x37b
 3266 05ff 01       		.byte	0x1
 3267 0600 85000000 		.4byte	0x85
 3268 0604 00000000 		.4byte	.LFB22
 3269 0608 34000000 		.4byte	.LFE22
 3270 060c D2040000 		.4byte	.LLST37
 3271 0610 01       		.byte	0x1
 3272 0611 50060000 		.4byte	0x650
 3273 0615 18       		.uleb128 0x18
 3274 0616 5F000000 		.4byte	.LASF31
 3275 061a 01       		.byte	0x1
 3276 061b 7B03     		.2byte	0x37b
 3277 061d 85000000 		.4byte	0x85
 3278 0621 F2040000 		.4byte	.LLST38
 3279 0625 10       		.uleb128 0x10
 3280 0626 E8010000 		.4byte	.LASF51
 3281 062a 01       		.byte	0x1
 3282 062b 7D03     		.2byte	0x37d
 3283 062d 85000000 		.4byte	0x85
 3284 0631 5E050000 		.4byte	.LLST39
 3285 0635 17       		.uleb128 0x17
 3286 0636 E0000000 		.4byte	0xe0
 3287 063a 24000000 		.4byte	.LBB78
 3288 063e 28000000 		.4byte	.LBE78
 3289 0642 01       		.byte	0x1
 3290 0643 9103     		.2byte	0x391
 3291 0645 16       		.uleb128 0x16
 3292 0646 EF000000 		.4byte	0xef
 3293 064a C2050000 		.4byte	.LLST40
 3294 064e 00       		.byte	0
 3295 064f 00       		.byte	0
 3296 0650 1E       		.uleb128 0x1e
 3297 0651 01       		.byte	0x1
 3298 0652 7C050000 		.4byte	.LASF52
ARM GAS  C:\Users\vrnk\AppData\Local\Temp\cchVr3qk.s 			page 99


 3299 0656 01       		.byte	0x1
 3300 0657 AC03     		.2byte	0x3ac
 3301 0659 01       		.byte	0x1
 3302 065a 85000000 		.4byte	0x85
 3303 065e 00000000 		.4byte	.LFB23
 3304 0662 14000000 		.4byte	.LFE23
 3305 0666 02       		.byte	0x2
 3306 0667 7D       		.byte	0x7d
 3307 0668 00       		.sleb128 0
 3308 0669 01       		.byte	0x1
 3309 066a 0F       		.uleb128 0xf
 3310 066b 01       		.byte	0x1
 3311 066c 3D040000 		.4byte	.LASF53
 3312 0670 01       		.byte	0x1
 3313 0671 CD03     		.2byte	0x3cd
 3314 0673 01       		.byte	0x1
 3315 0674 00000000 		.4byte	.LFB24
 3316 0678 78000000 		.4byte	.LFE24
 3317 067c D6050000 		.4byte	.LLST41
 3318 0680 01       		.byte	0x1
 3319 0681 D8060000 		.4byte	0x6d8
 3320 0685 18       		.uleb128 0x18
 3321 0686 35020000 		.4byte	.LASF40
 3322 068a 01       		.byte	0x1
 3323 068b CD03     		.2byte	0x3cd
 3324 068d 85000000 		.4byte	0x85
 3325 0691 F6050000 		.4byte	.LLST42
 3326 0695 10       		.uleb128 0x10
 3327 0696 7B020000 		.4byte	.LASF29
 3328 069a 01       		.byte	0x1
 3329 069b CF03     		.2byte	0x3cf
 3330 069d 6F000000 		.4byte	0x6f
 3331 06a1 22060000 		.4byte	.LLST43
 3332 06a5 10       		.uleb128 0x10
 3333 06a6 26060000 		.4byte	.LASF54
 3334 06aa 01       		.byte	0x1
 3335 06ab D003     		.2byte	0x3d0
 3336 06ad 85000000 		.4byte	0x85
 3337 06b1 40060000 		.4byte	.LLST44
 3338 06b5 11       		.uleb128 0x11
 3339 06b6 08000000 		.4byte	.LVL85
 3340 06ba 330E0000 		.4byte	0xe33
 3341 06be 11       		.uleb128 0x11
 3342 06bf 16000000 		.4byte	.LVL88
 3343 06c3 26010000 		.4byte	0x126
 3344 06c7 12       		.uleb128 0x12
 3345 06c8 62000000 		.4byte	.LVL93
 3346 06cc 410E0000 		.4byte	0xe41
 3347 06d0 13       		.uleb128 0x13
 3348 06d1 01       		.byte	0x1
 3349 06d2 50       		.byte	0x50
 3350 06d3 02       		.byte	0x2
 3351 06d4 74       		.byte	0x74
 3352 06d5 00       		.sleb128 0
 3353 06d6 00       		.byte	0
 3354 06d7 00       		.byte	0
 3355 06d8 0F       		.uleb128 0xf
ARM GAS  C:\Users\vrnk\AppData\Local\Temp\cchVr3qk.s 			page 100


 3356 06d9 01       		.byte	0x1
 3357 06da 16040000 		.4byte	.LASF55
 3358 06de 01       		.byte	0x1
 3359 06df 1104     		.2byte	0x411
 3360 06e1 01       		.byte	0x1
 3361 06e2 00000000 		.4byte	.LFB25
 3362 06e6 2C000000 		.4byte	.LFE25
 3363 06ea 5F060000 		.4byte	.LLST45
 3364 06ee 01       		.byte	0x1
 3365 06ef 0D070000 		.4byte	0x70d
 3366 06f3 18       		.uleb128 0x18
 3367 06f4 A3010000 		.4byte	.LASF56
 3368 06f8 01       		.byte	0x1
 3369 06f9 1104     		.2byte	0x411
 3370 06fb 85000000 		.4byte	0x85
 3371 06ff 7F060000 		.4byte	.LLST46
 3372 0703 11       		.uleb128 0x11
 3373 0704 10000000 		.4byte	.LVL97
 3374 0708 26010000 		.4byte	0x126
 3375 070c 00       		.byte	0
 3376 070d 1F       		.uleb128 0x1f
 3377 070e 01       		.byte	0x1
 3378 070f F1010000 		.4byte	.LASF57
 3379 0713 01       		.byte	0x1
 3380 0714 9205     		.2byte	0x592
 3381 0716 01       		.byte	0x1
 3382 0717 00000000 		.4byte	.LFB26
 3383 071b 2C000000 		.4byte	.LFE26
 3384 071f 02       		.byte	0x2
 3385 0720 7D       		.byte	0x7d
 3386 0721 00       		.sleb128 0
 3387 0722 01       		.byte	0x1
 3388 0723 38070000 		.4byte	0x738
 3389 0727 18       		.uleb128 0x18
 3390 0728 F5040000 		.4byte	.LASF58
 3391 072c 01       		.byte	0x1
 3392 072d 9205     		.2byte	0x592
 3393 072f 85000000 		.4byte	0x85
 3394 0733 AB060000 		.4byte	.LLST47
 3395 0737 00       		.byte	0
 3396 0738 20       		.uleb128 0x20
 3397 0739 01       		.byte	0x1
 3398 073a F8050000 		.4byte	.LASF59
 3399 073e 01       		.byte	0x1
 3400 073f AB05     		.2byte	0x5ab
 3401 0741 01       		.byte	0x1
 3402 0742 00000000 		.4byte	.LFB27
 3403 0746 20000000 		.4byte	.LFE27
 3404 074a 02       		.byte	0x2
 3405 074b 7D       		.byte	0x7d
 3406 074c 00       		.sleb128 0
 3407 074d 01       		.byte	0x1
 3408 074e 1E       		.uleb128 0x1e
 3409 074f 01       		.byte	0x1
 3410 0750 60020000 		.4byte	.LASF60
 3411 0754 01       		.byte	0x1
 3412 0755 C105     		.2byte	0x5c1
ARM GAS  C:\Users\vrnk\AppData\Local\Temp\cchVr3qk.s 			page 101


 3413 0757 01       		.byte	0x1
 3414 0758 85000000 		.4byte	0x85
 3415 075c 00000000 		.4byte	.LFB28
 3416 0760 10000000 		.4byte	.LFE28
 3417 0764 02       		.byte	0x2
 3418 0765 7D       		.byte	0x7d
 3419 0766 00       		.sleb128 0
 3420 0767 01       		.byte	0x1
 3421 0768 20       		.uleb128 0x20
 3422 0769 01       		.byte	0x1
 3423 076a B0010000 		.4byte	.LASF61
 3424 076e 01       		.byte	0x1
 3425 076f D505     		.2byte	0x5d5
 3426 0771 01       		.byte	0x1
 3427 0772 00000000 		.4byte	.LFB29
 3428 0776 0C000000 		.4byte	.LFE29
 3429 077a 02       		.byte	0x2
 3430 077b 7D       		.byte	0x7d
 3431 077c 00       		.sleb128 0
 3432 077d 01       		.byte	0x1
 3433 077e 1A       		.uleb128 0x1a
 3434 077f 01       		.byte	0x1
 3435 0780 6A000000 		.4byte	.LASF62
 3436 0784 01       		.byte	0x1
 3437 0785 EB05     		.2byte	0x5eb
 3438 0787 01       		.byte	0x1
 3439 0788 85000000 		.4byte	0x85
 3440 078c 00000000 		.4byte	.LFB30
 3441 0790 10000000 		.4byte	.LFE30
 3442 0794 02       		.byte	0x2
 3443 0795 7D       		.byte	0x7d
 3444 0796 00       		.sleb128 0
 3445 0797 01       		.byte	0x1
 3446 0798 AB070000 		.4byte	0x7ab
 3447 079c 21       		.uleb128 0x21
 3448 079d 21000000 		.4byte	.LASF63
 3449 07a1 01       		.byte	0x1
 3450 07a2 ED05     		.2byte	0x5ed
 3451 07a4 85000000 		.4byte	0x85
 3452 07a8 01       		.byte	0x1
 3453 07a9 50       		.byte	0x50
 3454 07aa 00       		.byte	0
 3455 07ab 1F       		.uleb128 0x1f
 3456 07ac 01       		.byte	0x1
 3457 07ad 9C000000 		.4byte	.LASF64
 3458 07b1 01       		.byte	0x1
 3459 07b2 0706     		.2byte	0x607
 3460 07b4 01       		.byte	0x1
 3461 07b5 00000000 		.4byte	.LFB31
 3462 07b9 0C000000 		.4byte	.LFE31
 3463 07bd 02       		.byte	0x2
 3464 07be 7D       		.byte	0x7d
 3465 07bf 00       		.sleb128 0
 3466 07c0 01       		.byte	0x1
 3467 07c1 D4070000 		.4byte	0x7d4
 3468 07c5 22       		.uleb128 0x22
 3469 07c6 E3010000 		.4byte	.LASF65
ARM GAS  C:\Users\vrnk\AppData\Local\Temp\cchVr3qk.s 			page 102


 3470 07ca 01       		.byte	0x1
 3471 07cb 0706     		.2byte	0x607
 3472 07cd 85000000 		.4byte	0x85
 3473 07d1 01       		.byte	0x1
 3474 07d2 50       		.byte	0x50
 3475 07d3 00       		.byte	0
 3476 07d4 1B       		.uleb128 0x1b
 3477 07d5 01       		.byte	0x1
 3478 07d6 7B030000 		.4byte	.LASF66
 3479 07da 01       		.byte	0x1
 3480 07db 1D06     		.2byte	0x61d
 3481 07dd 01       		.byte	0x1
 3482 07de C5000000 		.4byte	0xc5
 3483 07e2 00000000 		.4byte	.LFB32
 3484 07e6 16000000 		.4byte	.LFE32
 3485 07ea CC060000 		.4byte	.LLST48
 3486 07ee 01       		.byte	0x1
 3487 07ef 4A080000 		.4byte	0x84a
 3488 07f3 18       		.uleb128 0x18
 3489 07f4 DC010000 		.4byte	.LASF67
 3490 07f8 01       		.byte	0x1
 3491 07f9 1D06     		.2byte	0x61d
 3492 07fb 6F000000 		.4byte	0x6f
 3493 07ff EC060000 		.4byte	.LLST49
 3494 0803 22       		.uleb128 0x22
 3495 0804 E1030000 		.4byte	.LASF68
 3496 0808 01       		.byte	0x1
 3497 0809 1D06     		.2byte	0x61d
 3498 080b C5000000 		.4byte	0xc5
 3499 080f 01       		.byte	0x1
 3500 0810 51       		.byte	0x51
 3501 0811 21       		.uleb128 0x21
 3502 0812 58000000 		.4byte	.LASF69
 3503 0816 01       		.byte	0x1
 3504 0817 1F06     		.2byte	0x61f
 3505 0819 C5000000 		.4byte	0xc5
 3506 081d 01       		.byte	0x1
 3507 081e 50       		.byte	0x50
 3508 081f 23       		.uleb128 0x23
 3509 0820 9E050000 		.4byte	.LASF70
 3510 0824 01       		.byte	0x1
 3511 0825 2006     		.2byte	0x620
 3512 0827 4A080000 		.4byte	0x84a
 3513 082b 00000020 		.4byte	0x20000000
 3514 082f 17       		.uleb128 0x17
 3515 0830 E0000000 		.4byte	0xe0
 3516 0834 06000000 		.4byte	.LBB80
 3517 0838 08000000 		.4byte	.LBE80
 3518 083c 01       		.byte	0x1
 3519 083d 2206     		.2byte	0x622
 3520 083f 16       		.uleb128 0x16
 3521 0840 EF000000 		.4byte	0xef
 3522 0844 0D070000 		.4byte	.LLST50
 3523 0848 00       		.byte	0
 3524 0849 00       		.byte	0
 3525 084a 07       		.uleb128 0x7
 3526 084b 04       		.byte	0x4
ARM GAS  C:\Users\vrnk\AppData\Local\Temp\cchVr3qk.s 			page 103


 3527 084c C5000000 		.4byte	0xc5
 3528 0850 1B       		.uleb128 0x1b
 3529 0851 01       		.byte	0x1
 3530 0852 4E050000 		.4byte	.LASF71
 3531 0856 01       		.byte	0x1
 3532 0857 3D06     		.2byte	0x63d
 3533 0859 01       		.byte	0x1
 3534 085a C5000000 		.4byte	0xc5
 3535 085e 00000000 		.4byte	.LFB33
 3536 0862 14000000 		.4byte	.LFE33
 3537 0866 21070000 		.4byte	.LLST51
 3538 086a 01       		.byte	0x1
 3539 086b AA080000 		.4byte	0x8aa
 3540 086f 18       		.uleb128 0x18
 3541 0870 DC010000 		.4byte	.LASF67
 3542 0874 01       		.byte	0x1
 3543 0875 3D06     		.2byte	0x63d
 3544 0877 6F000000 		.4byte	0x6f
 3545 087b 41070000 		.4byte	.LLST52
 3546 087f 23       		.uleb128 0x23
 3547 0880 9E050000 		.4byte	.LASF70
 3548 0884 01       		.byte	0x1
 3549 0885 3F06     		.2byte	0x63f
 3550 0887 4A080000 		.4byte	0x84a
 3551 088b 00000020 		.4byte	0x20000000
 3552 088f 17       		.uleb128 0x17
 3553 0890 E0000000 		.4byte	0xe0
 3554 0894 06000000 		.4byte	.LBB82
 3555 0898 08000000 		.4byte	.LBE82
 3556 089c 01       		.byte	0x1
 3557 089d 4106     		.2byte	0x641
 3558 089f 16       		.uleb128 0x16
 3559 08a0 EF000000 		.4byte	0xef
 3560 08a4 62070000 		.4byte	.LLST53
 3561 08a8 00       		.byte	0
 3562 08a9 00       		.byte	0
 3563 08aa 1B       		.uleb128 0x1b
 3564 08ab 01       		.byte	0x1
 3565 08ac 25030000 		.4byte	.LASF72
 3566 08b0 01       		.byte	0x1
 3567 08b1 5606     		.2byte	0x656
 3568 08b3 01       		.byte	0x1
 3569 08b4 C5000000 		.4byte	0xc5
 3570 08b8 00000000 		.4byte	.LFB34
 3571 08bc 18000000 		.4byte	.LFE34
 3572 08c0 76070000 		.4byte	.LLST54
 3573 08c4 01       		.byte	0x1
 3574 08c5 20090000 		.4byte	0x920
 3575 08c9 18       		.uleb128 0x18
 3576 08ca DC010000 		.4byte	.LASF67
 3577 08ce 01       		.byte	0x1
 3578 08cf 5606     		.2byte	0x656
 3579 08d1 6F000000 		.4byte	0x6f
 3580 08d5 96070000 		.4byte	.LLST55
 3581 08d9 22       		.uleb128 0x22
 3582 08da E1030000 		.4byte	.LASF68
 3583 08de 01       		.byte	0x1
ARM GAS  C:\Users\vrnk\AppData\Local\Temp\cchVr3qk.s 			page 104


 3584 08df 5606     		.2byte	0x656
 3585 08e1 C5000000 		.4byte	0xc5
 3586 08e5 01       		.byte	0x1
 3587 08e6 51       		.byte	0x51
 3588 08e7 21       		.uleb128 0x21
 3589 08e8 58000000 		.4byte	.LASF69
 3590 08ec 01       		.byte	0x1
 3591 08ed 5806     		.2byte	0x658
 3592 08ef C5000000 		.4byte	0xc5
 3593 08f3 01       		.byte	0x1
 3594 08f4 50       		.byte	0x50
 3595 08f5 23       		.uleb128 0x23
 3596 08f6 9E050000 		.4byte	.LASF70
 3597 08fa 01       		.byte	0x1
 3598 08fb 5906     		.2byte	0x659
 3599 08fd 4A080000 		.4byte	0x84a
 3600 0901 00000020 		.4byte	0x20000000
 3601 0905 17       		.uleb128 0x17
 3602 0906 E0000000 		.4byte	0xe0
 3603 090a 06000000 		.4byte	.LBB84
 3604 090e 08000000 		.4byte	.LBE84
 3605 0912 01       		.byte	0x1
 3606 0913 5B06     		.2byte	0x65b
 3607 0915 16       		.uleb128 0x16
 3608 0916 EF000000 		.4byte	0xef
 3609 091a B7070000 		.4byte	.LLST56
 3610 091e 00       		.byte	0
 3611 091f 00       		.byte	0
 3612 0920 1B       		.uleb128 0x1b
 3613 0921 01       		.byte	0x1
 3614 0922 75040000 		.4byte	.LASF73
 3615 0926 01       		.byte	0x1
 3616 0927 7506     		.2byte	0x675
 3617 0929 01       		.byte	0x1
 3618 092a C5000000 		.4byte	0xc5
 3619 092e 00000000 		.4byte	.LFB35
 3620 0932 18000000 		.4byte	.LFE35
 3621 0936 CB070000 		.4byte	.LLST57
 3622 093a 01       		.byte	0x1
 3623 093b 7A090000 		.4byte	0x97a
 3624 093f 18       		.uleb128 0x18
 3625 0940 DC010000 		.4byte	.LASF67
 3626 0944 01       		.byte	0x1
 3627 0945 7506     		.2byte	0x675
 3628 0947 6F000000 		.4byte	0x6f
 3629 094b EB070000 		.4byte	.LLST58
 3630 094f 23       		.uleb128 0x23
 3631 0950 9E050000 		.4byte	.LASF70
 3632 0954 01       		.byte	0x1
 3633 0955 7706     		.2byte	0x677
 3634 0957 4A080000 		.4byte	0x84a
 3635 095b 00000020 		.4byte	0x20000000
 3636 095f 17       		.uleb128 0x17
 3637 0960 E0000000 		.4byte	0xe0
 3638 0964 06000000 		.4byte	.LBB86
 3639 0968 08000000 		.4byte	.LBE86
 3640 096c 01       		.byte	0x1
ARM GAS  C:\Users\vrnk\AppData\Local\Temp\cchVr3qk.s 			page 105


 3641 096d 7906     		.2byte	0x679
 3642 096f 16       		.uleb128 0x16
 3643 0970 EF000000 		.4byte	0xef
 3644 0974 0C080000 		.4byte	.LLST59
 3645 0978 00       		.byte	0
 3646 0979 00       		.byte	0
 3647 097a 0F       		.uleb128 0xf
 3648 097b 01       		.byte	0x1
 3649 097c 2C040000 		.4byte	.LASF74
 3650 0980 01       		.byte	0x1
 3651 0981 8D06     		.2byte	0x68d
 3652 0983 01       		.byte	0x1
 3653 0984 00000000 		.4byte	.LFB36
 3654 0988 40000000 		.4byte	.LFE36
 3655 098c 20080000 		.4byte	.LLST60
 3656 0990 01       		.byte	0x1
 3657 0991 340A0000 		.4byte	0xa34
 3658 0995 18       		.uleb128 0x18
 3659 0996 DC010000 		.4byte	.LASF67
 3660 099a 01       		.byte	0x1
 3661 099b 8D06     		.2byte	0x68d
 3662 099d 6F000000 		.4byte	0x6f
 3663 09a1 40080000 		.4byte	.LLST61
 3664 09a5 18       		.uleb128 0x18
 3665 09a6 B2050000 		.4byte	.LASF75
 3666 09aa 01       		.byte	0x1
 3667 09ab 8D06     		.2byte	0x68d
 3668 09ad 6F000000 		.4byte	0x6f
 3669 09b1 61080000 		.4byte	.LLST62
 3670 09b5 10       		.uleb128 0x10
 3671 09b6 7B020000 		.4byte	.LASF29
 3672 09ba 01       		.byte	0x1
 3673 09bb 8F06     		.2byte	0x68f
 3674 09bd 6F000000 		.4byte	0x6f
 3675 09c1 82080000 		.4byte	.LLST63
 3676 09c5 10       		.uleb128 0x10
 3677 09c6 9D010000 		.4byte	.LASF76
 3678 09ca 01       		.byte	0x1
 3679 09cb 9006     		.2byte	0x690
 3680 09cd 85000000 		.4byte	0x85
 3681 09d1 95080000 		.4byte	.LLST64
 3682 09d5 10       		.uleb128 0x10
 3683 09d6 2A000000 		.4byte	.LASF77
 3684 09da 01       		.byte	0x1
 3685 09db 9106     		.2byte	0x691
 3686 09dd 85000000 		.4byte	0x85
 3687 09e1 C9080000 		.4byte	.LLST65
 3688 09e5 19       		.uleb128 0x19
 3689 09e6 E0000000 		.4byte	0xe0
 3690 09ea 0A000000 		.4byte	.LBB88
 3691 09ee 0C000000 		.4byte	.LBE88
 3692 09f2 01       		.byte	0x1
 3693 09f3 9306     		.2byte	0x693
 3694 09f5 030A0000 		.4byte	0xa03
 3695 09f9 16       		.uleb128 0x16
 3696 09fa EF000000 		.4byte	0xef
 3697 09fe E7080000 		.4byte	.LLST66
ARM GAS  C:\Users\vrnk\AppData\Local\Temp\cchVr3qk.s 			page 106


 3698 0a02 00       		.byte	0
 3699 0a03 19       		.uleb128 0x19
 3700 0a04 E0000000 		.4byte	0xe0
 3701 0a08 10000000 		.4byte	.LBB90
 3702 0a0c 12000000 		.4byte	.LBE90
 3703 0a10 01       		.byte	0x1
 3704 0a11 9406     		.2byte	0x694
 3705 0a13 210A0000 		.4byte	0xa21
 3706 0a17 16       		.uleb128 0x16
 3707 0a18 EF000000 		.4byte	0xef
 3708 0a1c FB080000 		.4byte	.LLST67
 3709 0a20 00       		.byte	0
 3710 0a21 11       		.uleb128 0x11
 3711 0a22 16000000 		.4byte	.LVL126
 3712 0a26 330E0000 		.4byte	0xe33
 3713 0a2a 11       		.uleb128 0x11
 3714 0a2b 38000000 		.4byte	.LVL131
 3715 0a2f 410E0000 		.4byte	0xe41
 3716 0a33 00       		.byte	0
 3717 0a34 1B       		.uleb128 0x1b
 3718 0a35 01       		.byte	0x1
 3719 0a36 00020000 		.4byte	.LASF78
 3720 0a3a 01       		.byte	0x1
 3721 0a3b B106     		.2byte	0x6b1
 3722 0a3d 01       		.byte	0x1
 3723 0a3e 6F000000 		.4byte	0x6f
 3724 0a42 00000000 		.4byte	.LFB37
 3725 0a46 28000000 		.4byte	.LFE37
 3726 0a4a 0F090000 		.4byte	.LLST68
 3727 0a4e 01       		.byte	0x1
 3728 0a4f 8A0A0000 		.4byte	0xa8a
 3729 0a53 18       		.uleb128 0x18
 3730 0a54 DC010000 		.4byte	.LASF67
 3731 0a58 01       		.byte	0x1
 3732 0a59 B106     		.2byte	0x6b1
 3733 0a5b 6F000000 		.4byte	0x6f
 3734 0a5f 2F090000 		.4byte	.LLST69
 3735 0a63 24       		.uleb128 0x24
 3736 0a64 B2050000 		.4byte	.LASF75
 3737 0a68 01       		.byte	0x1
 3738 0a69 B306     		.2byte	0x6b3
 3739 0a6b 6F000000 		.4byte	0x6f
 3740 0a6f 17       		.uleb128 0x17
 3741 0a70 E0000000 		.4byte	0xe0
 3742 0a74 06000000 		.4byte	.LBB92
 3743 0a78 08000000 		.4byte	.LBE92
 3744 0a7c 01       		.byte	0x1
 3745 0a7d B506     		.2byte	0x6b5
 3746 0a7f 16       		.uleb128 0x16
 3747 0a80 EF000000 		.4byte	0xef
 3748 0a84 50090000 		.4byte	.LLST70
 3749 0a88 00       		.byte	0
 3750 0a89 00       		.byte	0
 3751 0a8a 1F       		.uleb128 0x1f
 3752 0a8b 01       		.byte	0x1
 3753 0a8c 42050000 		.4byte	.LASF79
 3754 0a90 01       		.byte	0x1
ARM GAS  C:\Users\vrnk\AppData\Local\Temp\cchVr3qk.s 			page 107


 3755 0a91 CB06     		.2byte	0x6cb
 3756 0a93 01       		.byte	0x1
 3757 0a94 00000000 		.4byte	.LFB38
 3758 0a98 14000000 		.4byte	.LFE38
 3759 0a9c 02       		.byte	0x2
 3760 0a9d 7D       		.byte	0x7d
 3761 0a9e 00       		.sleb128 0
 3762 0a9f 01       		.byte	0x1
 3763 0aa0 B50A0000 		.4byte	0xab5
 3764 0aa4 18       		.uleb128 0x18
 3765 0aa5 DC010000 		.4byte	.LASF67
 3766 0aa9 01       		.byte	0x1
 3767 0aaa CB06     		.2byte	0x6cb
 3768 0aac 6F000000 		.4byte	0x6f
 3769 0ab0 64090000 		.4byte	.LLST71
 3770 0ab4 00       		.byte	0
 3771 0ab5 1A       		.uleb128 0x1a
 3772 0ab6 01       		.byte	0x1
 3773 0ab7 B9000000 		.4byte	.LASF80
 3774 0abb 01       		.byte	0x1
 3775 0abc DF06     		.2byte	0x6df
 3776 0abe 01       		.byte	0x1
 3777 0abf 6F000000 		.4byte	0x6f
 3778 0ac3 00000000 		.4byte	.LFB39
 3779 0ac7 18000000 		.4byte	.LFE39
 3780 0acb 02       		.byte	0x2
 3781 0acc 7D       		.byte	0x7d
 3782 0acd 00       		.sleb128 0
 3783 0ace 01       		.byte	0x1
 3784 0acf E40A0000 		.4byte	0xae4
 3785 0ad3 18       		.uleb128 0x18
 3786 0ad4 DC010000 		.4byte	.LASF67
 3787 0ad8 01       		.byte	0x1
 3788 0ad9 DF06     		.2byte	0x6df
 3789 0adb 6F000000 		.4byte	0x6f
 3790 0adf 85090000 		.4byte	.LLST72
 3791 0ae3 00       		.byte	0
 3792 0ae4 1F       		.uleb128 0x1f
 3793 0ae5 01       		.byte	0x1
 3794 0ae6 48010000 		.4byte	.LASF81
 3795 0aea 01       		.byte	0x1
 3796 0aeb F406     		.2byte	0x6f4
 3797 0aed 01       		.byte	0x1
 3798 0aee 00000000 		.4byte	.LFB40
 3799 0af2 14000000 		.4byte	.LFE40
 3800 0af6 02       		.byte	0x2
 3801 0af7 7D       		.byte	0x7d
 3802 0af8 00       		.sleb128 0
 3803 0af9 01       		.byte	0x1
 3804 0afa 0F0B0000 		.4byte	0xb0f
 3805 0afe 18       		.uleb128 0x18
 3806 0aff DC010000 		.4byte	.LASF67
 3807 0b03 01       		.byte	0x1
 3808 0b04 F406     		.2byte	0x6f4
 3809 0b06 6F000000 		.4byte	0x6f
 3810 0b0a A6090000 		.4byte	.LLST73
 3811 0b0e 00       		.byte	0
ARM GAS  C:\Users\vrnk\AppData\Local\Temp\cchVr3qk.s 			page 108


 3812 0b0f 1F       		.uleb128 0x1f
 3813 0b10 01       		.byte	0x1
 3814 0b11 B1020000 		.4byte	.LASF82
 3815 0b15 01       		.byte	0x1
 3816 0b16 0707     		.2byte	0x707
 3817 0b18 01       		.byte	0x1
 3818 0b19 00000000 		.4byte	.LFB41
 3819 0b1d 14000000 		.4byte	.LFE41
 3820 0b21 02       		.byte	0x2
 3821 0b22 7D       		.byte	0x7d
 3822 0b23 00       		.sleb128 0
 3823 0b24 01       		.byte	0x1
 3824 0b25 3A0B0000 		.4byte	0xb3a
 3825 0b29 18       		.uleb128 0x18
 3826 0b2a DC010000 		.4byte	.LASF67
 3827 0b2e 01       		.byte	0x1
 3828 0b2f 0707     		.2byte	0x707
 3829 0b31 6F000000 		.4byte	0x6f
 3830 0b35 C7090000 		.4byte	.LLST74
 3831 0b39 00       		.byte	0
 3832 0b3a 1F       		.uleb128 0x1f
 3833 0b3b 01       		.byte	0x1
 3834 0b3c CF030000 		.4byte	.LASF83
 3835 0b40 01       		.byte	0x1
 3836 0b41 1B07     		.2byte	0x71b
 3837 0b43 01       		.byte	0x1
 3838 0b44 00000000 		.4byte	.LFB42
 3839 0b48 14000000 		.4byte	.LFE42
 3840 0b4c 02       		.byte	0x2
 3841 0b4d 7D       		.byte	0x7d
 3842 0b4e 00       		.sleb128 0
 3843 0b4f 01       		.byte	0x1
 3844 0b50 650B0000 		.4byte	0xb65
 3845 0b54 18       		.uleb128 0x18
 3846 0b55 DC010000 		.4byte	.LASF67
 3847 0b59 01       		.byte	0x1
 3848 0b5a 1B07     		.2byte	0x71b
 3849 0b5c 6F000000 		.4byte	0x6f
 3850 0b60 E8090000 		.4byte	.LLST75
 3851 0b64 00       		.byte	0
 3852 0b65 25       		.uleb128 0x25
 3853 0b66 E0000000 		.4byte	0xe0
 3854 0b6a 00000000 		.4byte	.LFB43
 3855 0b6e 04000000 		.4byte	.LFE43
 3856 0b72 02       		.byte	0x2
 3857 0b73 7D       		.byte	0x7d
 3858 0b74 00       		.sleb128 0
 3859 0b75 01       		.byte	0x1
 3860 0b76 820B0000 		.4byte	0xb82
 3861 0b7a 26       		.uleb128 0x26
 3862 0b7b EF000000 		.4byte	0xef
 3863 0b7f 01       		.byte	0x1
 3864 0b80 50       		.byte	0x50
 3865 0b81 00       		.byte	0
 3866 0b82 20       		.uleb128 0x20
 3867 0b83 01       		.byte	0x1
 3868 0b84 A9000000 		.4byte	.LASF84
ARM GAS  C:\Users\vrnk\AppData\Local\Temp\cchVr3qk.s 			page 109


 3869 0b88 01       		.byte	0x1
 3870 0b89 4E07     		.2byte	0x74e
 3871 0b8b 01       		.byte	0x1
 3872 0b8c 00000000 		.4byte	.LFB44
 3873 0b90 18000000 		.4byte	.LFE44
 3874 0b94 02       		.byte	0x2
 3875 0b95 7D       		.byte	0x7d
 3876 0b96 00       		.sleb128 0
 3877 0b97 01       		.byte	0x1
 3878 0b98 0F       		.uleb128 0xf
 3879 0b99 01       		.byte	0x1
 3880 0b9a F0050000 		.4byte	.LASF85
 3881 0b9e 01       		.byte	0x1
 3882 0b9f 6707     		.2byte	0x767
 3883 0ba1 01       		.byte	0x1
 3884 0ba2 00000000 		.4byte	.LFB45
 3885 0ba6 2C000000 		.4byte	.LFE45
 3886 0baa 090A0000 		.4byte	.LLST76
 3887 0bae 01       		.byte	0x1
 3888 0baf D60B0000 		.4byte	0xbd6
 3889 0bb3 18       		.uleb128 0x18
 3890 0bb4 84040000 		.4byte	.LASF86
 3891 0bb8 01       		.byte	0x1
 3892 0bb9 6707     		.2byte	0x767
 3893 0bbb 85000000 		.4byte	0x85
 3894 0bbf 290A0000 		.4byte	.LLST77
 3895 0bc3 11       		.uleb128 0x11
 3896 0bc4 14000000 		.4byte	.LVL150
 3897 0bc8 550E0000 		.4byte	0xe55
 3898 0bcc 11       		.uleb128 0x11
 3899 0bcd 22000000 		.4byte	.LVL152
 3900 0bd1 550E0000 		.4byte	0xe55
 3901 0bd5 00       		.byte	0
 3902 0bd6 0F       		.uleb128 0xf
 3903 0bd7 01       		.byte	0x1
 3904 0bd8 1D010000 		.4byte	.LASF87
 3905 0bdc 01       		.byte	0x1
 3906 0bdd 8307     		.2byte	0x783
 3907 0bdf 01       		.byte	0x1
 3908 0be0 00000000 		.4byte	.LFB46
 3909 0be4 14000000 		.4byte	.LFE46
 3910 0be8 470A0000 		.4byte	.LLST78
 3911 0bec 01       		.byte	0x1
 3912 0bed 0B0C0000 		.4byte	0xc0b
 3913 0bf1 18       		.uleb128 0x18
 3914 0bf2 72060000 		.4byte	.LASF88
 3915 0bf6 01       		.byte	0x1
 3916 0bf7 8307     		.2byte	0x783
 3917 0bf9 7A000000 		.4byte	0x7a
 3918 0bfd 670A0000 		.4byte	.LLST79
 3919 0c01 11       		.uleb128 0x11
 3920 0c02 0C000000 		.4byte	.LVL156
 3921 0c06 550E0000 		.4byte	0xe55
 3922 0c0a 00       		.byte	0
 3923 0c0b 0F       		.uleb128 0xf
 3924 0c0c 01       		.byte	0x1
 3925 0c0d 27010000 		.4byte	.LASF89
ARM GAS  C:\Users\vrnk\AppData\Local\Temp\cchVr3qk.s 			page 110


 3926 0c11 01       		.byte	0x1
 3927 0c12 FD02     		.2byte	0x2fd
 3928 0c14 01       		.byte	0x1
 3929 0c15 00000000 		.4byte	.LFB18
 3930 0c19 40000000 		.4byte	.LFE18
 3931 0c1d 880A0000 		.4byte	.LLST80
 3932 0c21 01       		.byte	0x1
 3933 0c22 8E0C0000 		.4byte	0xc8e
 3934 0c26 18       		.uleb128 0x18
 3935 0c27 5F000000 		.4byte	.LASF31
 3936 0c2b 01       		.byte	0x1
 3937 0c2c FD02     		.2byte	0x2fd
 3938 0c2e 85000000 		.4byte	0x85
 3939 0c32 A80A0000 		.4byte	.LLST81
 3940 0c36 18       		.uleb128 0x18
 3941 0c37 F1030000 		.4byte	.LASF90
 3942 0c3b 01       		.byte	0x1
 3943 0c3c FD02     		.2byte	0x2fd
 3944 0c3e 85000000 		.4byte	0x85
 3945 0c42 D40A0000 		.4byte	.LLST82
 3946 0c46 10       		.uleb128 0x10
 3947 0c47 E8010000 		.4byte	.LASF51
 3948 0c4b 01       		.byte	0x1
 3949 0c4c FF02     		.2byte	0x2ff
 3950 0c4e 85000000 		.4byte	0x85
 3951 0c52 000B0000 		.4byte	.LLST83
 3952 0c56 19       		.uleb128 0x19
 3953 0c57 E0000000 		.4byte	0xe0
 3954 0c5b 0A000000 		.4byte	.LBB94
 3955 0c5f 0C000000 		.4byte	.LBE94
 3956 0c63 01       		.byte	0x1
 3957 0c64 0103     		.2byte	0x301
 3958 0c66 740C0000 		.4byte	0xc74
 3959 0c6a 16       		.uleb128 0x16
 3960 0c6b EF000000 		.4byte	0xef
 3961 0c6f 330B0000 		.4byte	.LLST84
 3962 0c73 00       		.byte	0
 3963 0c74 11       		.uleb128 0x11
 3964 0c75 18000000 		.4byte	.LVL161
 3965 0c79 26010000 		.4byte	0x126
 3966 0c7d 12       		.uleb128 0x12
 3967 0c7e 1E000000 		.4byte	.LVL162
 3968 0c82 D60B0000 		.4byte	0xbd6
 3969 0c86 13       		.uleb128 0x13
 3970 0c87 01       		.byte	0x1
 3971 0c88 50       		.byte	0x50
 3972 0c89 02       		.byte	0x2
 3973 0c8a 08       		.byte	0x8
 3974 0c8b 82       		.byte	0x82
 3975 0c8c 00       		.byte	0
 3976 0c8d 00       		.byte	0
 3977 0c8e 0E       		.uleb128 0xe
 3978 0c8f 01       		.byte	0x1
 3979 0c90 66030000 		.4byte	.LASF91
 3980 0c94 01       		.byte	0x1
 3981 0c95 D8       		.byte	0xd8
 3982 0c96 01       		.byte	0x1
ARM GAS  C:\Users\vrnk\AppData\Local\Temp\cchVr3qk.s 			page 111


 3983 0c97 00000000 		.4byte	.LFB6
 3984 0c9b 3C010000 		.4byte	.LFE6
 3985 0c9f 470B0000 		.4byte	.LLST85
 3986 0ca3 01       		.byte	0x1
 3987 0ca4 AA0D0000 		.4byte	0xdaa
 3988 0ca8 0D       		.uleb128 0xd
 3989 0ca9 70040000 		.4byte	.LASF92
 3990 0cad 01       		.byte	0x1
 3991 0cae D8       		.byte	0xd8
 3992 0caf 85000000 		.4byte	0x85
 3993 0cb3 730B0000 		.4byte	.LLST86
 3994 0cb7 27       		.uleb128 0x27
 3995 0cb8 12000000 		.4byte	.LASF93
 3996 0cbc 01       		.byte	0x1
 3997 0cbd DA       		.byte	0xda
 3998 0cbe 6F000000 		.4byte	0x6f
 3999 0cc2 F00B0000 		.4byte	.LLST87
 4000 0cc6 27       		.uleb128 0x27
 4001 0cc7 E9030000 		.4byte	.LASF94
 4002 0ccb 01       		.byte	0x1
 4003 0ccc DB       		.byte	0xdb
 4004 0ccd 6F000000 		.4byte	0x6f
 4005 0cd1 560C0000 		.4byte	.LLST88
 4006 0cd5 27       		.uleb128 0x27
 4007 0cd6 CD050000 		.4byte	.LASF95
 4008 0cda 01       		.byte	0x1
 4009 0cdb DC       		.byte	0xdc
 4010 0cdc 85000000 		.4byte	0x85
 4011 0ce0 740C0000 		.4byte	.LLST89
 4012 0ce4 27       		.uleb128 0x27
 4013 0ce5 7B020000 		.4byte	.LASF29
 4014 0ce9 01       		.byte	0x1
 4015 0cea DD       		.byte	0xdd
 4016 0ceb 6F000000 		.4byte	0x6f
 4017 0cef DB0C0000 		.4byte	.LLST90
 4018 0cf3 28       		.uleb128 0x28
 4019 0cf4 6900     		.ascii	"i\000"
 4020 0cf6 01       		.byte	0x1
 4021 0cf7 DE       		.byte	0xde
 4022 0cf8 85000000 		.4byte	0x85
 4023 0cfc EF0C0000 		.4byte	.LLST91
 4024 0d00 29       		.uleb128 0x29
 4025 0d01 F7030000 		.4byte	.LASF96
 4026 0d05 01       		.byte	0x1
 4027 0d06 E1       		.byte	0xe1
 4028 0d07 BA0D0000 		.4byte	0xdba
 4029 0d0b 05       		.byte	0x5
 4030 0d0c 03       		.byte	0x3
 4031 0d0d 00000000 		.4byte	cyImoFreqMhz2Reg.4608
 4032 0d11 19       		.uleb128 0x19
 4033 0d12 E0000000 		.4byte	0xe0
 4034 0d16 EA000000 		.4byte	.LBB96
 4035 0d1a EC000000 		.4byte	.LBE96
 4036 0d1e 01       		.byte	0x1
 4037 0d1f 4C01     		.2byte	0x14c
 4038 0d21 2F0D0000 		.4byte	0xd2f
 4039 0d25 16       		.uleb128 0x16
ARM GAS  C:\Users\vrnk\AppData\Local\Temp\cchVr3qk.s 			page 112


 4040 0d26 EF000000 		.4byte	0xef
 4041 0d2a 020D0000 		.4byte	.LLST92
 4042 0d2e 00       		.byte	0
 4043 0d2f 11       		.uleb128 0x11
 4044 0d30 12000000 		.4byte	.LVL168
 4045 0d34 330E0000 		.4byte	0xe33
 4046 0d38 2A       		.uleb128 0x2a
 4047 0d39 92000000 		.4byte	.LVL185
 4048 0d3d 550E0000 		.4byte	0xe55
 4049 0d41 4B0D0000 		.4byte	0xd4b
 4050 0d45 13       		.uleb128 0x13
 4051 0d46 01       		.byte	0x1
 4052 0d47 50       		.byte	0x50
 4053 0d48 01       		.byte	0x1
 4054 0d49 35       		.byte	0x35
 4055 0d4a 00       		.byte	0
 4056 0d4b 2A       		.uleb128 0x2a
 4057 0d4c AE000000 		.4byte	.LVL190
 4058 0d50 D60B0000 		.4byte	0xbd6
 4059 0d54 5E0D0000 		.4byte	0xd5e
 4060 0d58 13       		.uleb128 0x13
 4061 0d59 01       		.byte	0x1
 4062 0d5a 50       		.byte	0x50
 4063 0d5b 01       		.byte	0x1
 4064 0d5c 35       		.byte	0x35
 4065 0d5d 00       		.byte	0
 4066 0d5e 2A       		.uleb128 0x2a
 4067 0d5f BC000000 		.4byte	.LVL192
 4068 0d63 550E0000 		.4byte	0xe55
 4069 0d67 710D0000 		.4byte	0xd71
 4070 0d6b 13       		.uleb128 0x13
 4071 0d6c 01       		.byte	0x1
 4072 0d6d 50       		.byte	0x50
 4073 0d6e 01       		.byte	0x1
 4074 0d6f 35       		.byte	0x35
 4075 0d70 00       		.byte	0
 4076 0d71 2A       		.uleb128 0x2a
 4077 0d72 CE000000 		.4byte	.LVL196
 4078 0d76 550E0000 		.4byte	0xe55
 4079 0d7a 840D0000 		.4byte	0xd84
 4080 0d7e 13       		.uleb128 0x13
 4081 0d7f 01       		.byte	0x1
 4082 0d80 50       		.byte	0x50
 4083 0d81 01       		.byte	0x1
 4084 0d82 35       		.byte	0x35
 4085 0d83 00       		.byte	0
 4086 0d84 2A       		.uleb128 0x2a
 4087 0d85 E2000000 		.4byte	.LVL198
 4088 0d89 D60B0000 		.4byte	0xbd6
 4089 0d8d 970D0000 		.4byte	0xd97
 4090 0d91 13       		.uleb128 0x13
 4091 0d92 01       		.byte	0x1
 4092 0d93 50       		.byte	0x50
 4093 0d94 01       		.byte	0x1
 4094 0d95 35       		.byte	0x35
 4095 0d96 00       		.byte	0
 4096 0d97 12       		.uleb128 0x12
ARM GAS  C:\Users\vrnk\AppData\Local\Temp\cchVr3qk.s 			page 113


 4097 0d98 E8000000 		.4byte	.LVL199
 4098 0d9c 410E0000 		.4byte	0xe41
 4099 0da0 13       		.uleb128 0x13
 4100 0da1 01       		.byte	0x1
 4101 0da2 50       		.byte	0x50
 4102 0da3 04       		.byte	0x4
 4103 0da4 91       		.byte	0x91
 4104 0da5 64       		.sleb128 -28
 4105 0da6 94       		.byte	0x94
 4106 0da7 01       		.byte	0x1
 4107 0da8 00       		.byte	0
 4108 0da9 00       		.byte	0
 4109 0daa 2B       		.uleb128 0x2b
 4110 0dab 6F000000 		.4byte	0x6f
 4111 0daf BA0D0000 		.4byte	0xdba
 4112 0db3 2C       		.uleb128 0x2c
 4113 0db4 D9000000 		.4byte	0xd9
 4114 0db8 2D       		.byte	0x2d
 4115 0db9 00       		.byte	0
 4116 0dba 2D       		.uleb128 0x2d
 4117 0dbb AA0D0000 		.4byte	0xdaa
 4118 0dbf 2E       		.uleb128 0x2e
 4119 0dc0 01       		.byte	0x1
 4120 0dc1 04010000 		.4byte	.LASF97
 4121 0dc5 01       		.byte	0x1
 4122 0dc6 9607     		.2byte	0x796
 4123 0dc8 01       		.byte	0x1
 4124 0dc9 00000000 		.4byte	.LFB47
 4125 0dcd 48000000 		.4byte	.LFE47
 4126 0dd1 160D0000 		.4byte	.LLST93
 4127 0dd5 01       		.byte	0x1
 4128 0dd6 EB0D0000 		.4byte	0xdeb
 4129 0dda 18       		.uleb128 0x18
 4130 0ddb 70040000 		.4byte	.LASF92
 4131 0ddf 01       		.byte	0x1
 4132 0de0 9607     		.2byte	0x796
 4133 0de2 85000000 		.4byte	0x85
 4134 0de6 360D0000 		.4byte	.LLST94
 4135 0dea 00       		.byte	0
 4136 0deb 2F       		.uleb128 0x2f
 4137 0dec 08040000 		.4byte	.LASF98
 4138 0df0 01       		.byte	0x1
 4139 0df1 17       		.byte	0x17
 4140 0df2 85000000 		.4byte	0x85
 4141 0df6 01       		.byte	0x1
 4142 0df7 05       		.byte	0x5
 4143 0df8 03       		.byte	0x3
 4144 0df9 00000000 		.4byte	cydelayFreqHz
 4145 0dfd 2F       		.uleb128 0x2f
 4146 0dfe 5B010000 		.4byte	.LASF99
 4147 0e02 01       		.byte	0x1
 4148 0e03 18       		.byte	0x18
 4149 0e04 85000000 		.4byte	0x85
 4150 0e08 01       		.byte	0x1
 4151 0e09 05       		.byte	0x5
 4152 0e0a 03       		.byte	0x3
 4153 0e0b 00000000 		.4byte	cydelayFreqKhz
ARM GAS  C:\Users\vrnk\AppData\Local\Temp\cchVr3qk.s 			page 114


 4154 0e0f 2F       		.uleb128 0x2f
 4155 0e10 17060000 		.4byte	.LASF100
 4156 0e14 01       		.byte	0x1
 4157 0e15 19       		.byte	0x19
 4158 0e16 6F000000 		.4byte	0x6f
 4159 0e1a 01       		.byte	0x1
 4160 0e1b 05       		.byte	0x5
 4161 0e1c 03       		.byte	0x3
 4162 0e1d 00000000 		.4byte	cydelayFreqMhz
 4163 0e21 2F       		.uleb128 0x2f
 4164 0e22 78000000 		.4byte	.LASF101
 4165 0e26 01       		.byte	0x1
 4166 0e27 1A       		.byte	0x1a
 4167 0e28 85000000 		.4byte	0x85
 4168 0e2c 01       		.byte	0x1
 4169 0e2d 05       		.byte	0x5
 4170 0e2e 03       		.byte	0x3
 4171 0e2f 00000000 		.4byte	cydelay32kMs
 4172 0e33 30       		.uleb128 0x30
 4173 0e34 01       		.byte	0x1
 4174 0e35 9A020000 		.4byte	.LASF108
 4175 0e39 03       		.byte	0x3
 4176 0e3a 70       		.byte	0x70
 4177 0e3b 01       		.byte	0x1
 4178 0e3c 6F000000 		.4byte	0x6f
 4179 0e40 01       		.byte	0x1
 4180 0e41 31       		.uleb128 0x31
 4181 0e42 01       		.byte	0x1
 4182 0e43 5A040000 		.4byte	.LASF103
 4183 0e47 03       		.byte	0x3
 4184 0e48 71       		.byte	0x71
 4185 0e49 01       		.byte	0x1
 4186 0e4a 01       		.byte	0x1
 4187 0e4b 550E0000 		.4byte	0xe55
 4188 0e4f 32       		.uleb128 0x32
 4189 0e50 6F000000 		.4byte	0x6f
 4190 0e54 00       		.byte	0
 4191 0e55 33       		.uleb128 0x33
 4192 0e56 01       		.byte	0x1
 4193 0e57 CE010000 		.4byte	.LASF109
 4194 0e5b 03       		.byte	0x3
 4195 0e5c 6C       		.byte	0x6c
 4196 0e5d 01       		.byte	0x1
 4197 0e5e 01       		.byte	0x1
 4198 0e5f 32       		.uleb128 0x32
 4199 0e60 85000000 		.4byte	0x85
 4200 0e64 00       		.byte	0
 4201 0e65 00       		.byte	0
 4202              		.section	.debug_abbrev,"",%progbits
 4203              	.Ldebug_abbrev0:
 4204 0000 01       		.uleb128 0x1
 4205 0001 11       		.uleb128 0x11
 4206 0002 01       		.byte	0x1
 4207 0003 25       		.uleb128 0x25
 4208 0004 0E       		.uleb128 0xe
 4209 0005 13       		.uleb128 0x13
 4210 0006 0B       		.uleb128 0xb
ARM GAS  C:\Users\vrnk\AppData\Local\Temp\cchVr3qk.s 			page 115


 4211 0007 03       		.uleb128 0x3
 4212 0008 0E       		.uleb128 0xe
 4213 0009 1B       		.uleb128 0x1b
 4214 000a 0E       		.uleb128 0xe
 4215 000b 55       		.uleb128 0x55
 4216 000c 06       		.uleb128 0x6
 4217 000d 11       		.uleb128 0x11
 4218 000e 01       		.uleb128 0x1
 4219 000f 52       		.uleb128 0x52
 4220 0010 01       		.uleb128 0x1
 4221 0011 10       		.uleb128 0x10
 4222 0012 06       		.uleb128 0x6
 4223 0013 00       		.byte	0
 4224 0014 00       		.byte	0
 4225 0015 02       		.uleb128 0x2
 4226 0016 24       		.uleb128 0x24
 4227 0017 00       		.byte	0
 4228 0018 0B       		.uleb128 0xb
 4229 0019 0B       		.uleb128 0xb
 4230 001a 3E       		.uleb128 0x3e
 4231 001b 0B       		.uleb128 0xb
 4232 001c 03       		.uleb128 0x3
 4233 001d 0E       		.uleb128 0xe
 4234 001e 00       		.byte	0
 4235 001f 00       		.byte	0
 4236 0020 03       		.uleb128 0x3
 4237 0021 24       		.uleb128 0x24
 4238 0022 00       		.byte	0
 4239 0023 0B       		.uleb128 0xb
 4240 0024 0B       		.uleb128 0xb
 4241 0025 3E       		.uleb128 0x3e
 4242 0026 0B       		.uleb128 0xb
 4243 0027 03       		.uleb128 0x3
 4244 0028 08       		.uleb128 0x8
 4245 0029 00       		.byte	0
 4246 002a 00       		.byte	0
 4247 002b 04       		.uleb128 0x4
 4248 002c 16       		.uleb128 0x16
 4249 002d 00       		.byte	0
 4250 002e 03       		.uleb128 0x3
 4251 002f 0E       		.uleb128 0xe
 4252 0030 3A       		.uleb128 0x3a
 4253 0031 0B       		.uleb128 0xb
 4254 0032 3B       		.uleb128 0x3b
 4255 0033 0B       		.uleb128 0xb
 4256 0034 49       		.uleb128 0x49
 4257 0035 13       		.uleb128 0x13
 4258 0036 00       		.byte	0
 4259 0037 00       		.byte	0
 4260 0038 05       		.uleb128 0x5
 4261 0039 35       		.uleb128 0x35
 4262 003a 00       		.byte	0
 4263 003b 49       		.uleb128 0x49
 4264 003c 13       		.uleb128 0x13
 4265 003d 00       		.byte	0
 4266 003e 00       		.byte	0
 4267 003f 06       		.uleb128 0x6
ARM GAS  C:\Users\vrnk\AppData\Local\Temp\cchVr3qk.s 			page 116


 4268 0040 16       		.uleb128 0x16
 4269 0041 00       		.byte	0
 4270 0042 03       		.uleb128 0x3
 4271 0043 0E       		.uleb128 0xe
 4272 0044 3A       		.uleb128 0x3a
 4273 0045 0B       		.uleb128 0xb
 4274 0046 3B       		.uleb128 0x3b
 4275 0047 05       		.uleb128 0x5
 4276 0048 49       		.uleb128 0x49
 4277 0049 13       		.uleb128 0x13
 4278 004a 00       		.byte	0
 4279 004b 00       		.byte	0
 4280 004c 07       		.uleb128 0x7
 4281 004d 0F       		.uleb128 0xf
 4282 004e 00       		.byte	0
 4283 004f 0B       		.uleb128 0xb
 4284 0050 0B       		.uleb128 0xb
 4285 0051 49       		.uleb128 0x49
 4286 0052 13       		.uleb128 0x13
 4287 0053 00       		.byte	0
 4288 0054 00       		.byte	0
 4289 0055 08       		.uleb128 0x8
 4290 0056 15       		.uleb128 0x15
 4291 0057 00       		.byte	0
 4292 0058 27       		.uleb128 0x27
 4293 0059 0C       		.uleb128 0xc
 4294 005a 00       		.byte	0
 4295 005b 00       		.byte	0
 4296 005c 09       		.uleb128 0x9
 4297 005d 2E       		.uleb128 0x2e
 4298 005e 01       		.byte	0x1
 4299 005f 3F       		.uleb128 0x3f
 4300 0060 0C       		.uleb128 0xc
 4301 0061 03       		.uleb128 0x3
 4302 0062 0E       		.uleb128 0xe
 4303 0063 3A       		.uleb128 0x3a
 4304 0064 0B       		.uleb128 0xb
 4305 0065 3B       		.uleb128 0x3b
 4306 0066 05       		.uleb128 0x5
 4307 0067 27       		.uleb128 0x27
 4308 0068 0C       		.uleb128 0xc
 4309 0069 20       		.uleb128 0x20
 4310 006a 0B       		.uleb128 0xb
 4311 006b 01       		.uleb128 0x1
 4312 006c 13       		.uleb128 0x13
 4313 006d 00       		.byte	0
 4314 006e 00       		.byte	0
 4315 006f 0A       		.uleb128 0xa
 4316 0070 05       		.uleb128 0x5
 4317 0071 00       		.byte	0
 4318 0072 03       		.uleb128 0x3
 4319 0073 0E       		.uleb128 0xe
 4320 0074 3A       		.uleb128 0x3a
 4321 0075 0B       		.uleb128 0xb
 4322 0076 3B       		.uleb128 0x3b
 4323 0077 05       		.uleb128 0x5
 4324 0078 49       		.uleb128 0x49
ARM GAS  C:\Users\vrnk\AppData\Local\Temp\cchVr3qk.s 			page 117


 4325 0079 13       		.uleb128 0x13
 4326 007a 00       		.byte	0
 4327 007b 00       		.byte	0
 4328 007c 0B       		.uleb128 0xb
 4329 007d 2E       		.uleb128 0x2e
 4330 007e 00       		.byte	0
 4331 007f 3F       		.uleb128 0x3f
 4332 0080 0C       		.uleb128 0xc
 4333 0081 03       		.uleb128 0x3
 4334 0082 0E       		.uleb128 0xe
 4335 0083 3A       		.uleb128 0x3a
 4336 0084 0B       		.uleb128 0xb
 4337 0085 3B       		.uleb128 0x3b
 4338 0086 0B       		.uleb128 0xb
 4339 0087 27       		.uleb128 0x27
 4340 0088 0C       		.uleb128 0xc
 4341 0089 11       		.uleb128 0x11
 4342 008a 01       		.uleb128 0x1
 4343 008b 12       		.uleb128 0x12
 4344 008c 01       		.uleb128 0x1
 4345 008d 40       		.uleb128 0x40
 4346 008e 0A       		.uleb128 0xa
 4347 008f 9742     		.uleb128 0x2117
 4348 0091 0C       		.uleb128 0xc
 4349 0092 00       		.byte	0
 4350 0093 00       		.byte	0
 4351 0094 0C       		.uleb128 0xc
 4352 0095 2E       		.uleb128 0x2e
 4353 0096 01       		.byte	0x1
 4354 0097 3F       		.uleb128 0x3f
 4355 0098 0C       		.uleb128 0xc
 4356 0099 03       		.uleb128 0x3
 4357 009a 0E       		.uleb128 0xe
 4358 009b 3A       		.uleb128 0x3a
 4359 009c 0B       		.uleb128 0xb
 4360 009d 3B       		.uleb128 0x3b
 4361 009e 0B       		.uleb128 0xb
 4362 009f 27       		.uleb128 0x27
 4363 00a0 0C       		.uleb128 0xc
 4364 00a1 11       		.uleb128 0x11
 4365 00a2 01       		.uleb128 0x1
 4366 00a3 12       		.uleb128 0x12
 4367 00a4 01       		.uleb128 0x1
 4368 00a5 40       		.uleb128 0x40
 4369 00a6 0A       		.uleb128 0xa
 4370 00a7 9742     		.uleb128 0x2117
 4371 00a9 0C       		.uleb128 0xc
 4372 00aa 01       		.uleb128 0x1
 4373 00ab 13       		.uleb128 0x13
 4374 00ac 00       		.byte	0
 4375 00ad 00       		.byte	0
 4376 00ae 0D       		.uleb128 0xd
 4377 00af 05       		.uleb128 0x5
 4378 00b0 00       		.byte	0
 4379 00b1 03       		.uleb128 0x3
 4380 00b2 0E       		.uleb128 0xe
 4381 00b3 3A       		.uleb128 0x3a
ARM GAS  C:\Users\vrnk\AppData\Local\Temp\cchVr3qk.s 			page 118


 4382 00b4 0B       		.uleb128 0xb
 4383 00b5 3B       		.uleb128 0x3b
 4384 00b6 0B       		.uleb128 0xb
 4385 00b7 49       		.uleb128 0x49
 4386 00b8 13       		.uleb128 0x13
 4387 00b9 02       		.uleb128 0x2
 4388 00ba 06       		.uleb128 0x6
 4389 00bb 00       		.byte	0
 4390 00bc 00       		.byte	0
 4391 00bd 0E       		.uleb128 0xe
 4392 00be 2E       		.uleb128 0x2e
 4393 00bf 01       		.byte	0x1
 4394 00c0 3F       		.uleb128 0x3f
 4395 00c1 0C       		.uleb128 0xc
 4396 00c2 03       		.uleb128 0x3
 4397 00c3 0E       		.uleb128 0xe
 4398 00c4 3A       		.uleb128 0x3a
 4399 00c5 0B       		.uleb128 0xb
 4400 00c6 3B       		.uleb128 0x3b
 4401 00c7 0B       		.uleb128 0xb
 4402 00c8 27       		.uleb128 0x27
 4403 00c9 0C       		.uleb128 0xc
 4404 00ca 11       		.uleb128 0x11
 4405 00cb 01       		.uleb128 0x1
 4406 00cc 12       		.uleb128 0x12
 4407 00cd 01       		.uleb128 0x1
 4408 00ce 40       		.uleb128 0x40
 4409 00cf 06       		.uleb128 0x6
 4410 00d0 9742     		.uleb128 0x2117
 4411 00d2 0C       		.uleb128 0xc
 4412 00d3 01       		.uleb128 0x1
 4413 00d4 13       		.uleb128 0x13
 4414 00d5 00       		.byte	0
 4415 00d6 00       		.byte	0
 4416 00d7 0F       		.uleb128 0xf
 4417 00d8 2E       		.uleb128 0x2e
 4418 00d9 01       		.byte	0x1
 4419 00da 3F       		.uleb128 0x3f
 4420 00db 0C       		.uleb128 0xc
 4421 00dc 03       		.uleb128 0x3
 4422 00dd 0E       		.uleb128 0xe
 4423 00de 3A       		.uleb128 0x3a
 4424 00df 0B       		.uleb128 0xb
 4425 00e0 3B       		.uleb128 0x3b
 4426 00e1 05       		.uleb128 0x5
 4427 00e2 27       		.uleb128 0x27
 4428 00e3 0C       		.uleb128 0xc
 4429 00e4 11       		.uleb128 0x11
 4430 00e5 01       		.uleb128 0x1
 4431 00e6 12       		.uleb128 0x12
 4432 00e7 01       		.uleb128 0x1
 4433 00e8 40       		.uleb128 0x40
 4434 00e9 06       		.uleb128 0x6
 4435 00ea 9742     		.uleb128 0x2117
 4436 00ec 0C       		.uleb128 0xc
 4437 00ed 01       		.uleb128 0x1
 4438 00ee 13       		.uleb128 0x13
ARM GAS  C:\Users\vrnk\AppData\Local\Temp\cchVr3qk.s 			page 119


 4439 00ef 00       		.byte	0
 4440 00f0 00       		.byte	0
 4441 00f1 10       		.uleb128 0x10
 4442 00f2 34       		.uleb128 0x34
 4443 00f3 00       		.byte	0
 4444 00f4 03       		.uleb128 0x3
 4445 00f5 0E       		.uleb128 0xe
 4446 00f6 3A       		.uleb128 0x3a
 4447 00f7 0B       		.uleb128 0xb
 4448 00f8 3B       		.uleb128 0x3b
 4449 00f9 05       		.uleb128 0x5
 4450 00fa 49       		.uleb128 0x49
 4451 00fb 13       		.uleb128 0x13
 4452 00fc 02       		.uleb128 0x2
 4453 00fd 06       		.uleb128 0x6
 4454 00fe 00       		.byte	0
 4455 00ff 00       		.byte	0
 4456 0100 11       		.uleb128 0x11
 4457 0101 898201   		.uleb128 0x4109
 4458 0104 00       		.byte	0
 4459 0105 11       		.uleb128 0x11
 4460 0106 01       		.uleb128 0x1
 4461 0107 31       		.uleb128 0x31
 4462 0108 13       		.uleb128 0x13
 4463 0109 00       		.byte	0
 4464 010a 00       		.byte	0
 4465 010b 12       		.uleb128 0x12
 4466 010c 898201   		.uleb128 0x4109
 4467 010f 01       		.byte	0x1
 4468 0110 11       		.uleb128 0x11
 4469 0111 01       		.uleb128 0x1
 4470 0112 31       		.uleb128 0x31
 4471 0113 13       		.uleb128 0x13
 4472 0114 00       		.byte	0
 4473 0115 00       		.byte	0
 4474 0116 13       		.uleb128 0x13
 4475 0117 8A8201   		.uleb128 0x410a
 4476 011a 00       		.byte	0
 4477 011b 02       		.uleb128 0x2
 4478 011c 0A       		.uleb128 0xa
 4479 011d 9142     		.uleb128 0x2111
 4480 011f 0A       		.uleb128 0xa
 4481 0120 00       		.byte	0
 4482 0121 00       		.byte	0
 4483 0122 14       		.uleb128 0x14
 4484 0123 2E       		.uleb128 0x2e
 4485 0124 01       		.byte	0x1
 4486 0125 3F       		.uleb128 0x3f
 4487 0126 0C       		.uleb128 0xc
 4488 0127 03       		.uleb128 0x3
 4489 0128 0E       		.uleb128 0xe
 4490 0129 3A       		.uleb128 0x3a
 4491 012a 0B       		.uleb128 0xb
 4492 012b 3B       		.uleb128 0x3b
 4493 012c 05       		.uleb128 0x5
 4494 012d 27       		.uleb128 0x27
 4495 012e 0C       		.uleb128 0xc
ARM GAS  C:\Users\vrnk\AppData\Local\Temp\cchVr3qk.s 			page 120


 4496 012f 49       		.uleb128 0x49
 4497 0130 13       		.uleb128 0x13
 4498 0131 20       		.uleb128 0x20
 4499 0132 0B       		.uleb128 0xb
 4500 0133 01       		.uleb128 0x1
 4501 0134 13       		.uleb128 0x13
 4502 0135 00       		.byte	0
 4503 0136 00       		.byte	0
 4504 0137 15       		.uleb128 0x15
 4505 0138 2E       		.uleb128 0x2e
 4506 0139 01       		.byte	0x1
 4507 013a 31       		.uleb128 0x31
 4508 013b 13       		.uleb128 0x13
 4509 013c 11       		.uleb128 0x11
 4510 013d 01       		.uleb128 0x1
 4511 013e 12       		.uleb128 0x12
 4512 013f 01       		.uleb128 0x1
 4513 0140 40       		.uleb128 0x40
 4514 0141 06       		.uleb128 0x6
 4515 0142 9742     		.uleb128 0x2117
 4516 0144 0C       		.uleb128 0xc
 4517 0145 01       		.uleb128 0x1
 4518 0146 13       		.uleb128 0x13
 4519 0147 00       		.byte	0
 4520 0148 00       		.byte	0
 4521 0149 16       		.uleb128 0x16
 4522 014a 05       		.uleb128 0x5
 4523 014b 00       		.byte	0
 4524 014c 31       		.uleb128 0x31
 4525 014d 13       		.uleb128 0x13
 4526 014e 02       		.uleb128 0x2
 4527 014f 06       		.uleb128 0x6
 4528 0150 00       		.byte	0
 4529 0151 00       		.byte	0
 4530 0152 17       		.uleb128 0x17
 4531 0153 1D       		.uleb128 0x1d
 4532 0154 01       		.byte	0x1
 4533 0155 31       		.uleb128 0x31
 4534 0156 13       		.uleb128 0x13
 4535 0157 11       		.uleb128 0x11
 4536 0158 01       		.uleb128 0x1
 4537 0159 12       		.uleb128 0x12
 4538 015a 01       		.uleb128 0x1
 4539 015b 58       		.uleb128 0x58
 4540 015c 0B       		.uleb128 0xb
 4541 015d 59       		.uleb128 0x59
 4542 015e 05       		.uleb128 0x5
 4543 015f 00       		.byte	0
 4544 0160 00       		.byte	0
 4545 0161 18       		.uleb128 0x18
 4546 0162 05       		.uleb128 0x5
 4547 0163 00       		.byte	0
 4548 0164 03       		.uleb128 0x3
 4549 0165 0E       		.uleb128 0xe
 4550 0166 3A       		.uleb128 0x3a
 4551 0167 0B       		.uleb128 0xb
 4552 0168 3B       		.uleb128 0x3b
ARM GAS  C:\Users\vrnk\AppData\Local\Temp\cchVr3qk.s 			page 121


 4553 0169 05       		.uleb128 0x5
 4554 016a 49       		.uleb128 0x49
 4555 016b 13       		.uleb128 0x13
 4556 016c 02       		.uleb128 0x2
 4557 016d 06       		.uleb128 0x6
 4558 016e 00       		.byte	0
 4559 016f 00       		.byte	0
 4560 0170 19       		.uleb128 0x19
 4561 0171 1D       		.uleb128 0x1d
 4562 0172 01       		.byte	0x1
 4563 0173 31       		.uleb128 0x31
 4564 0174 13       		.uleb128 0x13
 4565 0175 11       		.uleb128 0x11
 4566 0176 01       		.uleb128 0x1
 4567 0177 12       		.uleb128 0x12
 4568 0178 01       		.uleb128 0x1
 4569 0179 58       		.uleb128 0x58
 4570 017a 0B       		.uleb128 0xb
 4571 017b 59       		.uleb128 0x59
 4572 017c 05       		.uleb128 0x5
 4573 017d 01       		.uleb128 0x1
 4574 017e 13       		.uleb128 0x13
 4575 017f 00       		.byte	0
 4576 0180 00       		.byte	0
 4577 0181 1A       		.uleb128 0x1a
 4578 0182 2E       		.uleb128 0x2e
 4579 0183 01       		.byte	0x1
 4580 0184 3F       		.uleb128 0x3f
 4581 0185 0C       		.uleb128 0xc
 4582 0186 03       		.uleb128 0x3
 4583 0187 0E       		.uleb128 0xe
 4584 0188 3A       		.uleb128 0x3a
 4585 0189 0B       		.uleb128 0xb
 4586 018a 3B       		.uleb128 0x3b
 4587 018b 05       		.uleb128 0x5
 4588 018c 27       		.uleb128 0x27
 4589 018d 0C       		.uleb128 0xc
 4590 018e 49       		.uleb128 0x49
 4591 018f 13       		.uleb128 0x13
 4592 0190 11       		.uleb128 0x11
 4593 0191 01       		.uleb128 0x1
 4594 0192 12       		.uleb128 0x12
 4595 0193 01       		.uleb128 0x1
 4596 0194 40       		.uleb128 0x40
 4597 0195 0A       		.uleb128 0xa
 4598 0196 9742     		.uleb128 0x2117
 4599 0198 0C       		.uleb128 0xc
 4600 0199 01       		.uleb128 0x1
 4601 019a 13       		.uleb128 0x13
 4602 019b 00       		.byte	0
 4603 019c 00       		.byte	0
 4604 019d 1B       		.uleb128 0x1b
 4605 019e 2E       		.uleb128 0x2e
 4606 019f 01       		.byte	0x1
 4607 01a0 3F       		.uleb128 0x3f
 4608 01a1 0C       		.uleb128 0xc
 4609 01a2 03       		.uleb128 0x3
ARM GAS  C:\Users\vrnk\AppData\Local\Temp\cchVr3qk.s 			page 122


 4610 01a3 0E       		.uleb128 0xe
 4611 01a4 3A       		.uleb128 0x3a
 4612 01a5 0B       		.uleb128 0xb
 4613 01a6 3B       		.uleb128 0x3b
 4614 01a7 05       		.uleb128 0x5
 4615 01a8 27       		.uleb128 0x27
 4616 01a9 0C       		.uleb128 0xc
 4617 01aa 49       		.uleb128 0x49
 4618 01ab 13       		.uleb128 0x13
 4619 01ac 11       		.uleb128 0x11
 4620 01ad 01       		.uleb128 0x1
 4621 01ae 12       		.uleb128 0x12
 4622 01af 01       		.uleb128 0x1
 4623 01b0 40       		.uleb128 0x40
 4624 01b1 06       		.uleb128 0x6
 4625 01b2 9742     		.uleb128 0x2117
 4626 01b4 0C       		.uleb128 0xc
 4627 01b5 01       		.uleb128 0x1
 4628 01b6 13       		.uleb128 0x13
 4629 01b7 00       		.byte	0
 4630 01b8 00       		.byte	0
 4631 01b9 1C       		.uleb128 0x1c
 4632 01ba 1D       		.uleb128 0x1d
 4633 01bb 01       		.byte	0x1
 4634 01bc 31       		.uleb128 0x31
 4635 01bd 13       		.uleb128 0x13
 4636 01be 52       		.uleb128 0x52
 4637 01bf 01       		.uleb128 0x1
 4638 01c0 55       		.uleb128 0x55
 4639 01c1 06       		.uleb128 0x6
 4640 01c2 58       		.uleb128 0x58
 4641 01c3 0B       		.uleb128 0xb
 4642 01c4 59       		.uleb128 0x59
 4643 01c5 05       		.uleb128 0x5
 4644 01c6 01       		.uleb128 0x1
 4645 01c7 13       		.uleb128 0x13
 4646 01c8 00       		.byte	0
 4647 01c9 00       		.byte	0
 4648 01ca 1D       		.uleb128 0x1d
 4649 01cb 05       		.uleb128 0x5
 4650 01cc 00       		.byte	0
 4651 01cd 31       		.uleb128 0x31
 4652 01ce 13       		.uleb128 0x13
 4653 01cf 1C       		.uleb128 0x1c
 4654 01d0 0B       		.uleb128 0xb
 4655 01d1 00       		.byte	0
 4656 01d2 00       		.byte	0
 4657 01d3 1E       		.uleb128 0x1e
 4658 01d4 2E       		.uleb128 0x2e
 4659 01d5 00       		.byte	0
 4660 01d6 3F       		.uleb128 0x3f
 4661 01d7 0C       		.uleb128 0xc
 4662 01d8 03       		.uleb128 0x3
 4663 01d9 0E       		.uleb128 0xe
 4664 01da 3A       		.uleb128 0x3a
 4665 01db 0B       		.uleb128 0xb
 4666 01dc 3B       		.uleb128 0x3b
ARM GAS  C:\Users\vrnk\AppData\Local\Temp\cchVr3qk.s 			page 123


 4667 01dd 05       		.uleb128 0x5
 4668 01de 27       		.uleb128 0x27
 4669 01df 0C       		.uleb128 0xc
 4670 01e0 49       		.uleb128 0x49
 4671 01e1 13       		.uleb128 0x13
 4672 01e2 11       		.uleb128 0x11
 4673 01e3 01       		.uleb128 0x1
 4674 01e4 12       		.uleb128 0x12
 4675 01e5 01       		.uleb128 0x1
 4676 01e6 40       		.uleb128 0x40
 4677 01e7 0A       		.uleb128 0xa
 4678 01e8 9742     		.uleb128 0x2117
 4679 01ea 0C       		.uleb128 0xc
 4680 01eb 00       		.byte	0
 4681 01ec 00       		.byte	0
 4682 01ed 1F       		.uleb128 0x1f
 4683 01ee 2E       		.uleb128 0x2e
 4684 01ef 01       		.byte	0x1
 4685 01f0 3F       		.uleb128 0x3f
 4686 01f1 0C       		.uleb128 0xc
 4687 01f2 03       		.uleb128 0x3
 4688 01f3 0E       		.uleb128 0xe
 4689 01f4 3A       		.uleb128 0x3a
 4690 01f5 0B       		.uleb128 0xb
 4691 01f6 3B       		.uleb128 0x3b
 4692 01f7 05       		.uleb128 0x5
 4693 01f8 27       		.uleb128 0x27
 4694 01f9 0C       		.uleb128 0xc
 4695 01fa 11       		.uleb128 0x11
 4696 01fb 01       		.uleb128 0x1
 4697 01fc 12       		.uleb128 0x12
 4698 01fd 01       		.uleb128 0x1
 4699 01fe 40       		.uleb128 0x40
 4700 01ff 0A       		.uleb128 0xa
 4701 0200 9742     		.uleb128 0x2117
 4702 0202 0C       		.uleb128 0xc
 4703 0203 01       		.uleb128 0x1
 4704 0204 13       		.uleb128 0x13
 4705 0205 00       		.byte	0
 4706 0206 00       		.byte	0
 4707 0207 20       		.uleb128 0x20
 4708 0208 2E       		.uleb128 0x2e
 4709 0209 00       		.byte	0
 4710 020a 3F       		.uleb128 0x3f
 4711 020b 0C       		.uleb128 0xc
 4712 020c 03       		.uleb128 0x3
 4713 020d 0E       		.uleb128 0xe
 4714 020e 3A       		.uleb128 0x3a
 4715 020f 0B       		.uleb128 0xb
 4716 0210 3B       		.uleb128 0x3b
 4717 0211 05       		.uleb128 0x5
 4718 0212 27       		.uleb128 0x27
 4719 0213 0C       		.uleb128 0xc
 4720 0214 11       		.uleb128 0x11
 4721 0215 01       		.uleb128 0x1
 4722 0216 12       		.uleb128 0x12
 4723 0217 01       		.uleb128 0x1
ARM GAS  C:\Users\vrnk\AppData\Local\Temp\cchVr3qk.s 			page 124


 4724 0218 40       		.uleb128 0x40
 4725 0219 0A       		.uleb128 0xa
 4726 021a 9742     		.uleb128 0x2117
 4727 021c 0C       		.uleb128 0xc
 4728 021d 00       		.byte	0
 4729 021e 00       		.byte	0
 4730 021f 21       		.uleb128 0x21
 4731 0220 34       		.uleb128 0x34
 4732 0221 00       		.byte	0
 4733 0222 03       		.uleb128 0x3
 4734 0223 0E       		.uleb128 0xe
 4735 0224 3A       		.uleb128 0x3a
 4736 0225 0B       		.uleb128 0xb
 4737 0226 3B       		.uleb128 0x3b
 4738 0227 05       		.uleb128 0x5
 4739 0228 49       		.uleb128 0x49
 4740 0229 13       		.uleb128 0x13
 4741 022a 02       		.uleb128 0x2
 4742 022b 0A       		.uleb128 0xa
 4743 022c 00       		.byte	0
 4744 022d 00       		.byte	0
 4745 022e 22       		.uleb128 0x22
 4746 022f 05       		.uleb128 0x5
 4747 0230 00       		.byte	0
 4748 0231 03       		.uleb128 0x3
 4749 0232 0E       		.uleb128 0xe
 4750 0233 3A       		.uleb128 0x3a
 4751 0234 0B       		.uleb128 0xb
 4752 0235 3B       		.uleb128 0x3b
 4753 0236 05       		.uleb128 0x5
 4754 0237 49       		.uleb128 0x49
 4755 0238 13       		.uleb128 0x13
 4756 0239 02       		.uleb128 0x2
 4757 023a 0A       		.uleb128 0xa
 4758 023b 00       		.byte	0
 4759 023c 00       		.byte	0
 4760 023d 23       		.uleb128 0x23
 4761 023e 34       		.uleb128 0x34
 4762 023f 00       		.byte	0
 4763 0240 03       		.uleb128 0x3
 4764 0241 0E       		.uleb128 0xe
 4765 0242 3A       		.uleb128 0x3a
 4766 0243 0B       		.uleb128 0xb
 4767 0244 3B       		.uleb128 0x3b
 4768 0245 05       		.uleb128 0x5
 4769 0246 49       		.uleb128 0x49
 4770 0247 13       		.uleb128 0x13
 4771 0248 1C       		.uleb128 0x1c
 4772 0249 06       		.uleb128 0x6
 4773 024a 00       		.byte	0
 4774 024b 00       		.byte	0
 4775 024c 24       		.uleb128 0x24
 4776 024d 34       		.uleb128 0x34
 4777 024e 00       		.byte	0
 4778 024f 03       		.uleb128 0x3
 4779 0250 0E       		.uleb128 0xe
 4780 0251 3A       		.uleb128 0x3a
ARM GAS  C:\Users\vrnk\AppData\Local\Temp\cchVr3qk.s 			page 125


 4781 0252 0B       		.uleb128 0xb
 4782 0253 3B       		.uleb128 0x3b
 4783 0254 05       		.uleb128 0x5
 4784 0255 49       		.uleb128 0x49
 4785 0256 13       		.uleb128 0x13
 4786 0257 00       		.byte	0
 4787 0258 00       		.byte	0
 4788 0259 25       		.uleb128 0x25
 4789 025a 2E       		.uleb128 0x2e
 4790 025b 01       		.byte	0x1
 4791 025c 31       		.uleb128 0x31
 4792 025d 13       		.uleb128 0x13
 4793 025e 11       		.uleb128 0x11
 4794 025f 01       		.uleb128 0x1
 4795 0260 12       		.uleb128 0x12
 4796 0261 01       		.uleb128 0x1
 4797 0262 40       		.uleb128 0x40
 4798 0263 0A       		.uleb128 0xa
 4799 0264 9742     		.uleb128 0x2117
 4800 0266 0C       		.uleb128 0xc
 4801 0267 01       		.uleb128 0x1
 4802 0268 13       		.uleb128 0x13
 4803 0269 00       		.byte	0
 4804 026a 00       		.byte	0
 4805 026b 26       		.uleb128 0x26
 4806 026c 05       		.uleb128 0x5
 4807 026d 00       		.byte	0
 4808 026e 31       		.uleb128 0x31
 4809 026f 13       		.uleb128 0x13
 4810 0270 02       		.uleb128 0x2
 4811 0271 0A       		.uleb128 0xa
 4812 0272 00       		.byte	0
 4813 0273 00       		.byte	0
 4814 0274 27       		.uleb128 0x27
 4815 0275 34       		.uleb128 0x34
 4816 0276 00       		.byte	0
 4817 0277 03       		.uleb128 0x3
 4818 0278 0E       		.uleb128 0xe
 4819 0279 3A       		.uleb128 0x3a
 4820 027a 0B       		.uleb128 0xb
 4821 027b 3B       		.uleb128 0x3b
 4822 027c 0B       		.uleb128 0xb
 4823 027d 49       		.uleb128 0x49
 4824 027e 13       		.uleb128 0x13
 4825 027f 02       		.uleb128 0x2
 4826 0280 06       		.uleb128 0x6
 4827 0281 00       		.byte	0
 4828 0282 00       		.byte	0
 4829 0283 28       		.uleb128 0x28
 4830 0284 34       		.uleb128 0x34
 4831 0285 00       		.byte	0
 4832 0286 03       		.uleb128 0x3
 4833 0287 08       		.uleb128 0x8
 4834 0288 3A       		.uleb128 0x3a
 4835 0289 0B       		.uleb128 0xb
 4836 028a 3B       		.uleb128 0x3b
 4837 028b 0B       		.uleb128 0xb
ARM GAS  C:\Users\vrnk\AppData\Local\Temp\cchVr3qk.s 			page 126


 4838 028c 49       		.uleb128 0x49
 4839 028d 13       		.uleb128 0x13
 4840 028e 02       		.uleb128 0x2
 4841 028f 06       		.uleb128 0x6
 4842 0290 00       		.byte	0
 4843 0291 00       		.byte	0
 4844 0292 29       		.uleb128 0x29
 4845 0293 34       		.uleb128 0x34
 4846 0294 00       		.byte	0
 4847 0295 03       		.uleb128 0x3
 4848 0296 0E       		.uleb128 0xe
 4849 0297 3A       		.uleb128 0x3a
 4850 0298 0B       		.uleb128 0xb
 4851 0299 3B       		.uleb128 0x3b
 4852 029a 0B       		.uleb128 0xb
 4853 029b 49       		.uleb128 0x49
 4854 029c 13       		.uleb128 0x13
 4855 029d 02       		.uleb128 0x2
 4856 029e 0A       		.uleb128 0xa
 4857 029f 00       		.byte	0
 4858 02a0 00       		.byte	0
 4859 02a1 2A       		.uleb128 0x2a
 4860 02a2 898201   		.uleb128 0x4109
 4861 02a5 01       		.byte	0x1
 4862 02a6 11       		.uleb128 0x11
 4863 02a7 01       		.uleb128 0x1
 4864 02a8 31       		.uleb128 0x31
 4865 02a9 13       		.uleb128 0x13
 4866 02aa 01       		.uleb128 0x1
 4867 02ab 13       		.uleb128 0x13
 4868 02ac 00       		.byte	0
 4869 02ad 00       		.byte	0
 4870 02ae 2B       		.uleb128 0x2b
 4871 02af 01       		.uleb128 0x1
 4872 02b0 01       		.byte	0x1
 4873 02b1 49       		.uleb128 0x49
 4874 02b2 13       		.uleb128 0x13
 4875 02b3 01       		.uleb128 0x1
 4876 02b4 13       		.uleb128 0x13
 4877 02b5 00       		.byte	0
 4878 02b6 00       		.byte	0
 4879 02b7 2C       		.uleb128 0x2c
 4880 02b8 21       		.uleb128 0x21
 4881 02b9 00       		.byte	0
 4882 02ba 49       		.uleb128 0x49
 4883 02bb 13       		.uleb128 0x13
 4884 02bc 2F       		.uleb128 0x2f
 4885 02bd 0B       		.uleb128 0xb
 4886 02be 00       		.byte	0
 4887 02bf 00       		.byte	0
 4888 02c0 2D       		.uleb128 0x2d
 4889 02c1 26       		.uleb128 0x26
 4890 02c2 00       		.byte	0
 4891 02c3 49       		.uleb128 0x49
 4892 02c4 13       		.uleb128 0x13
 4893 02c5 00       		.byte	0
 4894 02c6 00       		.byte	0
ARM GAS  C:\Users\vrnk\AppData\Local\Temp\cchVr3qk.s 			page 127


 4895 02c7 2E       		.uleb128 0x2e
 4896 02c8 2E       		.uleb128 0x2e
 4897 02c9 01       		.byte	0x1
 4898 02ca 3F       		.uleb128 0x3f
 4899 02cb 0C       		.uleb128 0xc
 4900 02cc 03       		.uleb128 0x3
 4901 02cd 0E       		.uleb128 0xe
 4902 02ce 3A       		.uleb128 0x3a
 4903 02cf 0B       		.uleb128 0xb
 4904 02d0 3B       		.uleb128 0x3b
 4905 02d1 05       		.uleb128 0x5
 4906 02d2 27       		.uleb128 0x27
 4907 02d3 0C       		.uleb128 0xc
 4908 02d4 11       		.uleb128 0x11
 4909 02d5 01       		.uleb128 0x1
 4910 02d6 12       		.uleb128 0x12
 4911 02d7 01       		.uleb128 0x1
 4912 02d8 40       		.uleb128 0x40
 4913 02d9 06       		.uleb128 0x6
 4914 02da 9642     		.uleb128 0x2116
 4915 02dc 0C       		.uleb128 0xc
 4916 02dd 01       		.uleb128 0x1
 4917 02de 13       		.uleb128 0x13
 4918 02df 00       		.byte	0
 4919 02e0 00       		.byte	0
 4920 02e1 2F       		.uleb128 0x2f
 4921 02e2 34       		.uleb128 0x34
 4922 02e3 00       		.byte	0
 4923 02e4 03       		.uleb128 0x3
 4924 02e5 0E       		.uleb128 0xe
 4925 02e6 3A       		.uleb128 0x3a
 4926 02e7 0B       		.uleb128 0xb
 4927 02e8 3B       		.uleb128 0x3b
 4928 02e9 0B       		.uleb128 0xb
 4929 02ea 49       		.uleb128 0x49
 4930 02eb 13       		.uleb128 0x13
 4931 02ec 3F       		.uleb128 0x3f
 4932 02ed 0C       		.uleb128 0xc
 4933 02ee 02       		.uleb128 0x2
 4934 02ef 0A       		.uleb128 0xa
 4935 02f0 00       		.byte	0
 4936 02f1 00       		.byte	0
 4937 02f2 30       		.uleb128 0x30
 4938 02f3 2E       		.uleb128 0x2e
 4939 02f4 00       		.byte	0
 4940 02f5 3F       		.uleb128 0x3f
 4941 02f6 0C       		.uleb128 0xc
 4942 02f7 03       		.uleb128 0x3
 4943 02f8 0E       		.uleb128 0xe
 4944 02f9 3A       		.uleb128 0x3a
 4945 02fa 0B       		.uleb128 0xb
 4946 02fb 3B       		.uleb128 0x3b
 4947 02fc 0B       		.uleb128 0xb
 4948 02fd 27       		.uleb128 0x27
 4949 02fe 0C       		.uleb128 0xc
 4950 02ff 49       		.uleb128 0x49
 4951 0300 13       		.uleb128 0x13
ARM GAS  C:\Users\vrnk\AppData\Local\Temp\cchVr3qk.s 			page 128


 4952 0301 3C       		.uleb128 0x3c
 4953 0302 0C       		.uleb128 0xc
 4954 0303 00       		.byte	0
 4955 0304 00       		.byte	0
 4956 0305 31       		.uleb128 0x31
 4957 0306 2E       		.uleb128 0x2e
 4958 0307 01       		.byte	0x1
 4959 0308 3F       		.uleb128 0x3f
 4960 0309 0C       		.uleb128 0xc
 4961 030a 03       		.uleb128 0x3
 4962 030b 0E       		.uleb128 0xe
 4963 030c 3A       		.uleb128 0x3a
 4964 030d 0B       		.uleb128 0xb
 4965 030e 3B       		.uleb128 0x3b
 4966 030f 0B       		.uleb128 0xb
 4967 0310 27       		.uleb128 0x27
 4968 0311 0C       		.uleb128 0xc
 4969 0312 3C       		.uleb128 0x3c
 4970 0313 0C       		.uleb128 0xc
 4971 0314 01       		.uleb128 0x1
 4972 0315 13       		.uleb128 0x13
 4973 0316 00       		.byte	0
 4974 0317 00       		.byte	0
 4975 0318 32       		.uleb128 0x32
 4976 0319 05       		.uleb128 0x5
 4977 031a 00       		.byte	0
 4978 031b 49       		.uleb128 0x49
 4979 031c 13       		.uleb128 0x13
 4980 031d 00       		.byte	0
 4981 031e 00       		.byte	0
 4982 031f 33       		.uleb128 0x33
 4983 0320 2E       		.uleb128 0x2e
 4984 0321 01       		.byte	0x1
 4985 0322 3F       		.uleb128 0x3f
 4986 0323 0C       		.uleb128 0xc
 4987 0324 03       		.uleb128 0x3
 4988 0325 0E       		.uleb128 0xe
 4989 0326 3A       		.uleb128 0x3a
 4990 0327 0B       		.uleb128 0xb
 4991 0328 3B       		.uleb128 0x3b
 4992 0329 0B       		.uleb128 0xb
 4993 032a 27       		.uleb128 0x27
 4994 032b 0C       		.uleb128 0xc
 4995 032c 3C       		.uleb128 0x3c
 4996 032d 0C       		.uleb128 0xc
 4997 032e 00       		.byte	0
 4998 032f 00       		.byte	0
 4999 0330 00       		.byte	0
 5000              		.section	.debug_loc,"",%progbits
 5001              	.Ldebug_loc0:
 5002              	.LLST0:
 5003 0000 00000000 		.4byte	.LVL0
 5004 0004 08000000 		.4byte	.LVL1
 5005 0008 0100     		.2byte	0x1
 5006 000a 50       		.byte	0x50
 5007 000b 08000000 		.4byte	.LVL1
 5008 000f 18000000 		.4byte	.LFE4
ARM GAS  C:\Users\vrnk\AppData\Local\Temp\cchVr3qk.s 			page 129


 5009 0013 0400     		.2byte	0x4
 5010 0015 F3       		.byte	0xf3
 5011 0016 01       		.uleb128 0x1
 5012 0017 50       		.byte	0x50
 5013 0018 9F       		.byte	0x9f
 5014 0019 00000000 		.4byte	0
 5015 001d 00000000 		.4byte	0
 5016              	.LLST1:
 5017 0021 00000000 		.4byte	.LFB5
 5018 0025 04000000 		.4byte	.LCFI0
 5019 0029 0200     		.2byte	0x2
 5020 002b 7D       		.byte	0x7d
 5021 002c 00       		.sleb128 0
 5022 002d 04000000 		.4byte	.LCFI0
 5023 0031 20000000 		.4byte	.LFE5
 5024 0035 0200     		.2byte	0x2
 5025 0037 7D       		.byte	0x7d
 5026 0038 08       		.sleb128 8
 5027 0039 00000000 		.4byte	0
 5028 003d 00000000 		.4byte	0
 5029              	.LLST2:
 5030 0041 00000000 		.4byte	.LVL2
 5031 0045 0A000000 		.4byte	.LVL3
 5032 0049 0100     		.2byte	0x1
 5033 004b 50       		.byte	0x50
 5034 004c 0A000000 		.4byte	.LVL3
 5035 0050 20000000 		.4byte	.LFE5
 5036 0054 0400     		.2byte	0x4
 5037 0056 F3       		.byte	0xf3
 5038 0057 01       		.uleb128 0x1
 5039 0058 50       		.byte	0x50
 5040 0059 9F       		.byte	0x9f
 5041 005a 00000000 		.4byte	0
 5042 005e 00000000 		.4byte	0
 5043              	.LLST3:
 5044 0062 00000000 		.4byte	.LFB7
 5045 0066 02000000 		.4byte	.LCFI1
 5046 006a 0200     		.2byte	0x2
 5047 006c 7D       		.byte	0x7d
 5048 006d 00       		.sleb128 0
 5049 006e 02000000 		.4byte	.LCFI1
 5050 0072 30000000 		.4byte	.LFE7
 5051 0076 0200     		.2byte	0x2
 5052 0078 7D       		.byte	0x7d
 5053 0079 08       		.sleb128 8
 5054 007a 00000000 		.4byte	0
 5055 007e 00000000 		.4byte	0
 5056              	.LLST4:
 5057 0082 0A000000 		.4byte	.LVL5
 5058 0086 0C000000 		.4byte	.LVL6
 5059 008a 0100     		.2byte	0x1
 5060 008c 50       		.byte	0x50
 5061 008d 0C000000 		.4byte	.LVL6
 5062 0091 26000000 		.4byte	.LVL9
 5063 0095 0100     		.2byte	0x1
 5064 0097 54       		.byte	0x54
 5065 0098 00000000 		.4byte	0
ARM GAS  C:\Users\vrnk\AppData\Local\Temp\cchVr3qk.s 			page 130


 5066 009c 00000000 		.4byte	0
 5067              	.LLST5:
 5068 00a0 00000000 		.4byte	.LFB8
 5069 00a4 02000000 		.4byte	.LCFI2
 5070 00a8 0200     		.2byte	0x2
 5071 00aa 7D       		.byte	0x7d
 5072 00ab 00       		.sleb128 0
 5073 00ac 02000000 		.4byte	.LCFI2
 5074 00b0 44000000 		.4byte	.LFE8
 5075 00b4 0200     		.2byte	0x2
 5076 00b6 7D       		.byte	0x7d
 5077 00b7 08       		.sleb128 8
 5078 00b8 00000000 		.4byte	0
 5079 00bc 00000000 		.4byte	0
 5080              	.LLST6:
 5081 00c0 0A000000 		.4byte	.LVL11
 5082 00c4 0C000000 		.4byte	.LVL12
 5083 00c8 0100     		.2byte	0x1
 5084 00ca 50       		.byte	0x50
 5085 00cb 0C000000 		.4byte	.LVL12
 5086 00cf 36000000 		.4byte	.LVL15
 5087 00d3 0100     		.2byte	0x1
 5088 00d5 54       		.byte	0x54
 5089 00d6 00000000 		.4byte	0
 5090 00da 00000000 		.4byte	0
 5091              	.LLST7:
 5092 00de 00000000 		.4byte	.LFB9
 5093 00e2 02000000 		.4byte	.LCFI3
 5094 00e6 0200     		.2byte	0x2
 5095 00e8 7D       		.byte	0x7d
 5096 00e9 00       		.sleb128 0
 5097 00ea 02000000 		.4byte	.LCFI3
 5098 00ee 20000000 		.4byte	.LFE9
 5099 00f2 0200     		.2byte	0x2
 5100 00f4 7D       		.byte	0x7d
 5101 00f5 04       		.sleb128 4
 5102 00f6 00000000 		.4byte	0
 5103 00fa 00000000 		.4byte	0
 5104              	.LLST8:
 5105 00fe 00000000 		.4byte	.LVL16
 5106 0102 0C000000 		.4byte	.LVL19
 5107 0106 0100     		.2byte	0x1
 5108 0108 50       		.byte	0x50
 5109 0109 0C000000 		.4byte	.LVL19
 5110 010d 20000000 		.4byte	.LFE9
 5111 0111 0400     		.2byte	0x4
 5112 0113 F3       		.byte	0xf3
 5113 0114 01       		.uleb128 0x1
 5114 0115 50       		.byte	0x50
 5115 0116 9F       		.byte	0x9f
 5116 0117 00000000 		.4byte	0
 5117 011b 00000000 		.4byte	0
 5118              	.LLST9:
 5119 011f 06000000 		.4byte	.LVL17
 5120 0123 08000000 		.4byte	.LVL18
 5121 0127 0200     		.2byte	0x2
 5122 0129 30       		.byte	0x30
ARM GAS  C:\Users\vrnk\AppData\Local\Temp\cchVr3qk.s 			page 131


 5123 012a 9F       		.byte	0x9f
 5124 012b 00000000 		.4byte	0
 5125 012f 00000000 		.4byte	0
 5126              	.LLST10:
 5127 0133 00000000 		.4byte	.LFB10
 5128 0137 02000000 		.4byte	.LCFI4
 5129 013b 0200     		.2byte	0x2
 5130 013d 7D       		.byte	0x7d
 5131 013e 00       		.sleb128 0
 5132 013f 02000000 		.4byte	.LCFI4
 5133 0143 44000000 		.4byte	.LFE10
 5134 0147 0200     		.2byte	0x2
 5135 0149 7D       		.byte	0x7d
 5136 014a 10       		.sleb128 16
 5137 014b 00000000 		.4byte	0
 5138 014f 00000000 		.4byte	0
 5139              	.LLST11:
 5140 0153 00000000 		.4byte	.LVL20
 5141 0157 10000000 		.4byte	.LVL23
 5142 015b 0100     		.2byte	0x1
 5143 015d 50       		.byte	0x50
 5144 015e 10000000 		.4byte	.LVL23
 5145 0162 2A000000 		.4byte	.LVL26
 5146 0166 0100     		.2byte	0x1
 5147 0168 54       		.byte	0x54
 5148 0169 2A000000 		.4byte	.LVL26
 5149 016d 44000000 		.4byte	.LFE10
 5150 0171 0400     		.2byte	0x4
 5151 0173 F3       		.byte	0xf3
 5152 0174 01       		.uleb128 0x1
 5153 0175 50       		.byte	0x50
 5154 0176 9F       		.byte	0x9f
 5155 0177 00000000 		.4byte	0
 5156 017b 00000000 		.4byte	0
 5157              	.LLST12:
 5158 017f 00000000 		.4byte	.LVL20
 5159 0183 17000000 		.4byte	.LVL24-1
 5160 0187 0100     		.2byte	0x1
 5161 0189 51       		.byte	0x51
 5162 018a 17000000 		.4byte	.LVL24-1
 5163 018e 30000000 		.4byte	.LVL27
 5164 0192 0100     		.2byte	0x1
 5165 0194 55       		.byte	0x55
 5166 0195 30000000 		.4byte	.LVL27
 5167 0199 44000000 		.4byte	.LFE10
 5168 019d 0400     		.2byte	0x4
 5169 019f F3       		.byte	0xf3
 5170 01a0 01       		.uleb128 0x1
 5171 01a1 51       		.byte	0x51
 5172 01a2 9F       		.byte	0x9f
 5173 01a3 00000000 		.4byte	0
 5174 01a7 00000000 		.4byte	0
 5175              	.LLST13:
 5176 01ab 32000000 		.4byte	.LVL28
 5177 01af 38000000 		.4byte	.LVL30
 5178 01b3 0100     		.2byte	0x1
 5179 01b5 51       		.byte	0x51
ARM GAS  C:\Users\vrnk\AppData\Local\Temp\cchVr3qk.s 			page 132


 5180 01b6 00000000 		.4byte	0
 5181 01ba 00000000 		.4byte	0
 5182              	.LLST14:
 5183 01be 0A000000 		.4byte	.LVL21
 5184 01c2 0C000000 		.4byte	.LVL22
 5185 01c6 0200     		.2byte	0x2
 5186 01c8 30       		.byte	0x30
 5187 01c9 9F       		.byte	0x9f
 5188 01ca 00000000 		.4byte	0
 5189 01ce 00000000 		.4byte	0
 5190              	.LLST15:
 5191 01d2 00000000 		.4byte	.LVL31
 5192 01d6 04000000 		.4byte	.LVL32
 5193 01da 0100     		.2byte	0x1
 5194 01dc 50       		.byte	0x50
 5195 01dd 04000000 		.4byte	.LVL32
 5196 01e1 14000000 		.4byte	.LFE11
 5197 01e5 0400     		.2byte	0x4
 5198 01e7 F3       		.byte	0xf3
 5199 01e8 01       		.uleb128 0x1
 5200 01e9 50       		.byte	0x50
 5201 01ea 9F       		.byte	0x9f
 5202 01eb 00000000 		.4byte	0
 5203 01ef 00000000 		.4byte	0
 5204              	.LLST16:
 5205 01f3 00000000 		.4byte	.LFB12
 5206 01f7 02000000 		.4byte	.LCFI5
 5207 01fb 0200     		.2byte	0x2
 5208 01fd 7D       		.byte	0x7d
 5209 01fe 00       		.sleb128 0
 5210 01ff 02000000 		.4byte	.LCFI5
 5211 0203 3C000000 		.4byte	.LFE12
 5212 0207 0200     		.2byte	0x2
 5213 0209 7D       		.byte	0x7d
 5214 020a 10       		.sleb128 16
 5215 020b 00000000 		.4byte	0
 5216 020f 00000000 		.4byte	0
 5217              	.LLST17:
 5218 0213 00000000 		.4byte	.LVL33
 5219 0217 10000000 		.4byte	.LVL36
 5220 021b 0100     		.2byte	0x1
 5221 021d 50       		.byte	0x50
 5222 021e 10000000 		.4byte	.LVL36
 5223 0222 26000000 		.4byte	.LVL39
 5224 0226 0100     		.2byte	0x1
 5225 0228 54       		.byte	0x54
 5226 0229 26000000 		.4byte	.LVL39
 5227 022d 3C000000 		.4byte	.LFE12
 5228 0231 0400     		.2byte	0x4
 5229 0233 F3       		.byte	0xf3
 5230 0234 01       		.uleb128 0x1
 5231 0235 50       		.byte	0x50
 5232 0236 9F       		.byte	0x9f
 5233 0237 00000000 		.4byte	0
 5234 023b 00000000 		.4byte	0
 5235              	.LLST18:
 5236 023f 00000000 		.4byte	.LVL33
ARM GAS  C:\Users\vrnk\AppData\Local\Temp\cchVr3qk.s 			page 133


 5237 0243 17000000 		.4byte	.LVL37-1
 5238 0247 0100     		.2byte	0x1
 5239 0249 51       		.byte	0x51
 5240 024a 17000000 		.4byte	.LVL37-1
 5241 024e 2C000000 		.4byte	.LVL40
 5242 0252 0100     		.2byte	0x1
 5243 0254 55       		.byte	0x55
 5244 0255 2C000000 		.4byte	.LVL40
 5245 0259 3C000000 		.4byte	.LFE12
 5246 025d 0400     		.2byte	0x4
 5247 025f F3       		.byte	0xf3
 5248 0260 01       		.uleb128 0x1
 5249 0261 51       		.byte	0x51
 5250 0262 9F       		.byte	0x9f
 5251 0263 00000000 		.4byte	0
 5252 0267 00000000 		.4byte	0
 5253              	.LLST19:
 5254 026b 0A000000 		.4byte	.LVL34
 5255 026f 0C000000 		.4byte	.LVL35
 5256 0273 0200     		.2byte	0x2
 5257 0275 30       		.byte	0x30
 5258 0276 9F       		.byte	0x9f
 5259 0277 00000000 		.4byte	0
 5260 027b 00000000 		.4byte	0
 5261              	.LLST20:
 5262 027f 00000000 		.4byte	.LFB13
 5263 0283 02000000 		.4byte	.LCFI6
 5264 0287 0200     		.2byte	0x2
 5265 0289 7D       		.byte	0x7d
 5266 028a 00       		.sleb128 0
 5267 028b 02000000 		.4byte	.LCFI6
 5268 028f 20000000 		.4byte	.LFE13
 5269 0293 0200     		.2byte	0x2
 5270 0295 7D       		.byte	0x7d
 5271 0296 04       		.sleb128 4
 5272 0297 00000000 		.4byte	0
 5273 029b 00000000 		.4byte	0
 5274              	.LLST21:
 5275 029f 00000000 		.4byte	.LVL41
 5276 02a3 0C000000 		.4byte	.LVL44
 5277 02a7 0100     		.2byte	0x1
 5278 02a9 50       		.byte	0x50
 5279 02aa 0C000000 		.4byte	.LVL44
 5280 02ae 20000000 		.4byte	.LFE13
 5281 02b2 0400     		.2byte	0x4
 5282 02b4 F3       		.byte	0xf3
 5283 02b5 01       		.uleb128 0x1
 5284 02b6 50       		.byte	0x50
 5285 02b7 9F       		.byte	0x9f
 5286 02b8 00000000 		.4byte	0
 5287 02bc 00000000 		.4byte	0
 5288              	.LLST22:
 5289 02c0 06000000 		.4byte	.LVL42
 5290 02c4 08000000 		.4byte	.LVL43
 5291 02c8 0200     		.2byte	0x2
 5292 02ca 30       		.byte	0x30
 5293 02cb 9F       		.byte	0x9f
ARM GAS  C:\Users\vrnk\AppData\Local\Temp\cchVr3qk.s 			page 134


 5294 02cc 00000000 		.4byte	0
 5295 02d0 00000000 		.4byte	0
 5296              	.LLST23:
 5297 02d4 00000000 		.4byte	.LFB14
 5298 02d8 04000000 		.4byte	.LCFI7
 5299 02dc 0200     		.2byte	0x2
 5300 02de 7D       		.byte	0x7d
 5301 02df 00       		.sleb128 0
 5302 02e0 04000000 		.4byte	.LCFI7
 5303 02e4 24000000 		.4byte	.LFE14
 5304 02e8 0200     		.2byte	0x2
 5305 02ea 7D       		.byte	0x7d
 5306 02eb 08       		.sleb128 8
 5307 02ec 00000000 		.4byte	0
 5308 02f0 00000000 		.4byte	0
 5309              	.LLST24:
 5310 02f4 00000000 		.4byte	.LVL45
 5311 02f8 08000000 		.4byte	.LVL46
 5312 02fc 0100     		.2byte	0x1
 5313 02fe 50       		.byte	0x50
 5314 02ff 08000000 		.4byte	.LVL46
 5315 0303 16000000 		.4byte	.LVL48
 5316 0307 0100     		.2byte	0x1
 5317 0309 54       		.byte	0x54
 5318 030a 16000000 		.4byte	.LVL48
 5319 030e 24000000 		.4byte	.LFE14
 5320 0312 0400     		.2byte	0x4
 5321 0314 F3       		.byte	0xf3
 5322 0315 01       		.uleb128 0x1
 5323 0316 50       		.byte	0x50
 5324 0317 9F       		.byte	0x9f
 5325 0318 00000000 		.4byte	0
 5326 031c 00000000 		.4byte	0
 5327              	.LLST25:
 5328 0320 00000000 		.4byte	.LFB15
 5329 0324 04000000 		.4byte	.LCFI8
 5330 0328 0200     		.2byte	0x2
 5331 032a 7D       		.byte	0x7d
 5332 032b 00       		.sleb128 0
 5333 032c 04000000 		.4byte	.LCFI8
 5334 0330 24000000 		.4byte	.LFE15
 5335 0334 0200     		.2byte	0x2
 5336 0336 7D       		.byte	0x7d
 5337 0337 08       		.sleb128 8
 5338 0338 00000000 		.4byte	0
 5339 033c 00000000 		.4byte	0
 5340              	.LLST26:
 5341 0340 00000000 		.4byte	.LVL49
 5342 0344 08000000 		.4byte	.LVL50
 5343 0348 0100     		.2byte	0x1
 5344 034a 50       		.byte	0x50
 5345 034b 08000000 		.4byte	.LVL50
 5346 034f 18000000 		.4byte	.LVL52
 5347 0353 0100     		.2byte	0x1
 5348 0355 54       		.byte	0x54
 5349 0356 18000000 		.4byte	.LVL52
 5350 035a 24000000 		.4byte	.LFE15
ARM GAS  C:\Users\vrnk\AppData\Local\Temp\cchVr3qk.s 			page 135


 5351 035e 0400     		.2byte	0x4
 5352 0360 F3       		.byte	0xf3
 5353 0361 01       		.uleb128 0x1
 5354 0362 50       		.byte	0x50
 5355 0363 9F       		.byte	0x9f
 5356 0364 00000000 		.4byte	0
 5357 0368 00000000 		.4byte	0
 5358              	.LLST27:
 5359 036c 00000000 		.4byte	.LFB16
 5360 0370 04000000 		.4byte	.LCFI9
 5361 0374 0200     		.2byte	0x2
 5362 0376 7D       		.byte	0x7d
 5363 0377 00       		.sleb128 0
 5364 0378 04000000 		.4byte	.LCFI9
 5365 037c 44000000 		.4byte	.LFE16
 5366 0380 0200     		.2byte	0x2
 5367 0382 7D       		.byte	0x7d
 5368 0383 08       		.sleb128 8
 5369 0384 00000000 		.4byte	0
 5370 0388 00000000 		.4byte	0
 5371              	.LLST28:
 5372 038c 00000000 		.4byte	.LVL53
 5373 0390 08000000 		.4byte	.LVL54
 5374 0394 0100     		.2byte	0x1
 5375 0396 50       		.byte	0x50
 5376 0397 08000000 		.4byte	.LVL54
 5377 039b 30000000 		.4byte	.LVL61
 5378 039f 0100     		.2byte	0x1
 5379 03a1 54       		.byte	0x54
 5380 03a2 30000000 		.4byte	.LVL61
 5381 03a6 44000000 		.4byte	.LFE16
 5382 03aa 0400     		.2byte	0x4
 5383 03ac F3       		.byte	0xf3
 5384 03ad 01       		.uleb128 0x1
 5385 03ae 50       		.byte	0x50
 5386 03af 9F       		.byte	0x9f
 5387 03b0 00000000 		.4byte	0
 5388 03b4 00000000 		.4byte	0
 5389              	.LLST29:
 5390 03b8 2C000000 		.4byte	.LVL59
 5391 03bc 2E000000 		.4byte	.LVL60
 5392 03c0 0100     		.2byte	0x1
 5393 03c2 50       		.byte	0x50
 5394 03c3 2E000000 		.4byte	.LVL60
 5395 03c7 30000000 		.4byte	.LVL61
 5396 03cb 0100     		.2byte	0x1
 5397 03cd 52       		.byte	0x52
 5398 03ce 30000000 		.4byte	.LVL61
 5399 03d2 32000000 		.4byte	.LVL62
 5400 03d6 0100     		.2byte	0x1
 5401 03d8 54       		.byte	0x54
 5402 03d9 00000000 		.4byte	0
 5403 03dd 00000000 		.4byte	0
 5404              	.LLST30:
 5405 03e1 0C000000 		.4byte	.LVL56
 5406 03e5 0E000000 		.4byte	.LVL57
 5407 03e9 1500     		.2byte	0x15
ARM GAS  C:\Users\vrnk\AppData\Local\Temp\cchVr3qk.s 			page 136


 5408 03eb 71       		.byte	0x71
 5409 03ec 00       		.sleb128 0
 5410 03ed 39       		.byte	0x39
 5411 03ee 25       		.byte	0x25
 5412 03ef 31       		.byte	0x31
 5413 03f0 1A       		.byte	0x1a
 5414 03f1 70       		.byte	0x70
 5415 03f2 00       		.sleb128 0
 5416 03f3 31       		.byte	0x31
 5417 03f4 25       		.byte	0x25
 5418 03f5 31       		.byte	0x31
 5419 03f6 1A       		.byte	0x1a
 5420 03f7 21       		.byte	0x21
 5421 03f8 72       		.byte	0x72
 5422 03f9 00       		.sleb128 0
 5423 03fa 41       		.byte	0x41
 5424 03fb 25       		.byte	0x25
 5425 03fc 31       		.byte	0x31
 5426 03fd 1A       		.byte	0x1a
 5427 03fe 21       		.byte	0x21
 5428 03ff 9F       		.byte	0x9f
 5429 0400 00000000 		.4byte	0
 5430 0404 00000000 		.4byte	0
 5431              	.LLST31:
 5432 0408 00000000 		.4byte	.LFB19
 5433 040c 04000000 		.4byte	.LCFI10
 5434 0410 0200     		.2byte	0x2
 5435 0412 7D       		.byte	0x7d
 5436 0413 00       		.sleb128 0
 5437 0414 04000000 		.4byte	.LCFI10
 5438 0418 3C000000 		.4byte	.LFE19
 5439 041c 0200     		.2byte	0x2
 5440 041e 7D       		.byte	0x7d
 5441 041f 08       		.sleb128 8
 5442 0420 00000000 		.4byte	0
 5443 0424 00000000 		.4byte	0
 5444              	.LLST32:
 5445 0428 00000000 		.4byte	.LVL63
 5446 042c 08000000 		.4byte	.LVL64
 5447 0430 0100     		.2byte	0x1
 5448 0432 50       		.byte	0x50
 5449 0433 08000000 		.4byte	.LVL64
 5450 0437 22000000 		.4byte	.LVL67
 5451 043b 0100     		.2byte	0x1
 5452 043d 54       		.byte	0x54
 5453 043e 22000000 		.4byte	.LVL67
 5454 0442 3C000000 		.4byte	.LFE19
 5455 0446 0400     		.2byte	0x4
 5456 0448 F3       		.byte	0xf3
 5457 0449 01       		.uleb128 0x1
 5458 044a 50       		.byte	0x50
 5459 044b 9F       		.byte	0x9f
 5460 044c 00000000 		.4byte	0
 5461 0450 00000000 		.4byte	0
 5462              	.LLST33:
 5463 0454 1E000000 		.4byte	.LVL66
 5464 0458 24000000 		.4byte	.LVL68
ARM GAS  C:\Users\vrnk\AppData\Local\Temp\cchVr3qk.s 			page 137


 5465 045c 0100     		.2byte	0x1
 5466 045e 50       		.byte	0x50
 5467 045f 24000000 		.4byte	.LVL68
 5468 0463 28000000 		.4byte	.LVL69
 5469 0467 0100     		.2byte	0x1
 5470 0469 52       		.byte	0x52
 5471 046a 28000000 		.4byte	.LVL69
 5472 046e 2A000000 		.4byte	.LVL70
 5473 0472 0100     		.2byte	0x1
 5474 0474 54       		.byte	0x54
 5475 0475 00000000 		.4byte	0
 5476 0479 00000000 		.4byte	0
 5477              	.LLST34:
 5478 047d 00000000 		.4byte	.LFB21
 5479 0481 02000000 		.4byte	.LCFI11
 5480 0485 0200     		.2byte	0x2
 5481 0487 7D       		.byte	0x7d
 5482 0488 00       		.sleb128 0
 5483 0489 02000000 		.4byte	.LCFI11
 5484 048d 18000000 		.4byte	.LFE21
 5485 0491 0200     		.2byte	0x2
 5486 0493 7D       		.byte	0x7d
 5487 0494 04       		.sleb128 4
 5488 0495 00000000 		.4byte	0
 5489 0499 00000000 		.4byte	0
 5490              	.LLST35:
 5491 049d 00000000 		.4byte	.LVL71
 5492 04a1 0C000000 		.4byte	.LVL74
 5493 04a5 0100     		.2byte	0x1
 5494 04a7 50       		.byte	0x50
 5495 04a8 0C000000 		.4byte	.LVL74
 5496 04ac 18000000 		.4byte	.LFE21
 5497 04b0 0400     		.2byte	0x4
 5498 04b2 F3       		.byte	0xf3
 5499 04b3 01       		.uleb128 0x1
 5500 04b4 50       		.byte	0x50
 5501 04b5 9F       		.byte	0x9f
 5502 04b6 00000000 		.4byte	0
 5503 04ba 00000000 		.4byte	0
 5504              	.LLST36:
 5505 04be 06000000 		.4byte	.LVL72
 5506 04c2 08000000 		.4byte	.LVL73
 5507 04c6 0200     		.2byte	0x2
 5508 04c8 30       		.byte	0x30
 5509 04c9 9F       		.byte	0x9f
 5510 04ca 00000000 		.4byte	0
 5511 04ce 00000000 		.4byte	0
 5512              	.LLST37:
 5513 04d2 00000000 		.4byte	.LFB22
 5514 04d6 02000000 		.4byte	.LCFI12
 5515 04da 0200     		.2byte	0x2
 5516 04dc 7D       		.byte	0x7d
 5517 04dd 00       		.sleb128 0
 5518 04de 02000000 		.4byte	.LCFI12
 5519 04e2 34000000 		.4byte	.LFE22
 5520 04e6 0200     		.2byte	0x2
 5521 04e8 7D       		.byte	0x7d
ARM GAS  C:\Users\vrnk\AppData\Local\Temp\cchVr3qk.s 			page 138


 5522 04e9 04       		.sleb128 4
 5523 04ea 00000000 		.4byte	0
 5524 04ee 00000000 		.4byte	0
 5525              	.LLST38:
 5526 04f2 00000000 		.4byte	.LVL75
 5527 04f6 12000000 		.4byte	.LVL76
 5528 04fa 0100     		.2byte	0x1
 5529 04fc 50       		.byte	0x50
 5530 04fd 12000000 		.4byte	.LVL76
 5531 0501 14000000 		.4byte	.LVL77
 5532 0505 0400     		.2byte	0x4
 5533 0507 F3       		.byte	0xf3
 5534 0508 01       		.uleb128 0x1
 5535 0509 50       		.byte	0x50
 5536 050a 9F       		.byte	0x9f
 5537 050b 14000000 		.4byte	.LVL77
 5538 050f 16000000 		.4byte	.LVL78
 5539 0513 0100     		.2byte	0x1
 5540 0515 50       		.byte	0x50
 5541 0516 16000000 		.4byte	.LVL78
 5542 051a 1C000000 		.4byte	.LVL80
 5543 051e 0400     		.2byte	0x4
 5544 0520 F3       		.byte	0xf3
 5545 0521 01       		.uleb128 0x1
 5546 0522 50       		.byte	0x50
 5547 0523 9F       		.byte	0x9f
 5548 0524 1C000000 		.4byte	.LVL80
 5549 0528 22000000 		.4byte	.LVL81
 5550 052c 0100     		.2byte	0x1
 5551 052e 50       		.byte	0x50
 5552 052f 22000000 		.4byte	.LVL81
 5553 0533 24000000 		.4byte	.LVL82
 5554 0537 0400     		.2byte	0x4
 5555 0539 F3       		.byte	0xf3
 5556 053a 01       		.uleb128 0x1
 5557 053b 50       		.byte	0x50
 5558 053c 9F       		.byte	0x9f
 5559 053d 24000000 		.4byte	.LVL82
 5560 0541 28000000 		.4byte	.LVL83
 5561 0545 0100     		.2byte	0x1
 5562 0547 50       		.byte	0x50
 5563 0548 28000000 		.4byte	.LVL83
 5564 054c 34000000 		.4byte	.LFE22
 5565 0550 0400     		.2byte	0x4
 5566 0552 F3       		.byte	0xf3
 5567 0553 01       		.uleb128 0x1
 5568 0554 50       		.byte	0x50
 5569 0555 9F       		.byte	0x9f
 5570 0556 00000000 		.4byte	0
 5571 055a 00000000 		.4byte	0
 5572              	.LLST39:
 5573 055e 00000000 		.4byte	.LVL75
 5574 0562 12000000 		.4byte	.LVL76
 5575 0566 0200     		.2byte	0x2
 5576 0568 30       		.byte	0x30
 5577 0569 9F       		.byte	0x9f
 5578 056a 12000000 		.4byte	.LVL76
ARM GAS  C:\Users\vrnk\AppData\Local\Temp\cchVr3qk.s 			page 139


 5579 056e 14000000 		.4byte	.LVL77
 5580 0572 0100     		.2byte	0x1
 5581 0574 50       		.byte	0x50
 5582 0575 14000000 		.4byte	.LVL77
 5583 0579 1A000000 		.4byte	.LVL79
 5584 057d 0200     		.2byte	0x2
 5585 057f 30       		.byte	0x30
 5586 0580 9F       		.byte	0x9f
 5587 0581 1A000000 		.4byte	.LVL79
 5588 0585 1C000000 		.4byte	.LVL80
 5589 0589 0100     		.2byte	0x1
 5590 058b 50       		.byte	0x50
 5591 058c 1C000000 		.4byte	.LVL80
 5592 0590 22000000 		.4byte	.LVL81
 5593 0594 0200     		.2byte	0x2
 5594 0596 30       		.byte	0x30
 5595 0597 9F       		.byte	0x9f
 5596 0598 22000000 		.4byte	.LVL81
 5597 059c 24000000 		.4byte	.LVL82
 5598 05a0 0100     		.2byte	0x1
 5599 05a2 50       		.byte	0x50
 5600 05a3 24000000 		.4byte	.LVL82
 5601 05a7 28000000 		.4byte	.LVL83
 5602 05ab 0200     		.2byte	0x2
 5603 05ad 30       		.byte	0x30
 5604 05ae 9F       		.byte	0x9f
 5605 05af 28000000 		.4byte	.LVL83
 5606 05b3 34000000 		.4byte	.LFE22
 5607 05b7 0100     		.2byte	0x1
 5608 05b9 50       		.byte	0x50
 5609 05ba 00000000 		.4byte	0
 5610 05be 00000000 		.4byte	0
 5611              	.LLST40:
 5612 05c2 24000000 		.4byte	.LVL82
 5613 05c6 28000000 		.4byte	.LVL83
 5614 05ca 0200     		.2byte	0x2
 5615 05cc 30       		.byte	0x30
 5616 05cd 9F       		.byte	0x9f
 5617 05ce 00000000 		.4byte	0
 5618 05d2 00000000 		.4byte	0
 5619              	.LLST41:
 5620 05d6 00000000 		.4byte	.LFB24
 5621 05da 02000000 		.4byte	.LCFI13
 5622 05de 0200     		.2byte	0x2
 5623 05e0 7D       		.byte	0x7d
 5624 05e1 00       		.sleb128 0
 5625 05e2 02000000 		.4byte	.LCFI13
 5626 05e6 78000000 		.4byte	.LFE24
 5627 05ea 0200     		.2byte	0x2
 5628 05ec 7D       		.byte	0x7d
 5629 05ed 10       		.sleb128 16
 5630 05ee 00000000 		.4byte	0
 5631 05f2 00000000 		.4byte	0
 5632              	.LLST42:
 5633 05f6 00000000 		.4byte	.LVL84
 5634 05fa 07000000 		.4byte	.LVL85-1
 5635 05fe 0100     		.2byte	0x1
ARM GAS  C:\Users\vrnk\AppData\Local\Temp\cchVr3qk.s 			page 140


 5636 0600 50       		.byte	0x50
 5637 0601 07000000 		.4byte	.LVL85-1
 5638 0605 4A000000 		.4byte	.LVL91
 5639 0609 0100     		.2byte	0x1
 5640 060b 55       		.byte	0x55
 5641 060c 4A000000 		.4byte	.LVL91
 5642 0610 78000000 		.4byte	.LFE24
 5643 0614 0400     		.2byte	0x4
 5644 0616 F3       		.byte	0xf3
 5645 0617 01       		.uleb128 0x1
 5646 0618 50       		.byte	0x50
 5647 0619 9F       		.byte	0x9f
 5648 061a 00000000 		.4byte	0
 5649 061e 00000000 		.4byte	0
 5650              	.LLST43:
 5651 0622 0C000000 		.4byte	.LVL86
 5652 0626 0E000000 		.4byte	.LVL87
 5653 062a 0100     		.2byte	0x1
 5654 062c 50       		.byte	0x50
 5655 062d 0E000000 		.4byte	.LVL87
 5656 0631 62000000 		.4byte	.LVL94
 5657 0635 0100     		.2byte	0x1
 5658 0637 54       		.byte	0x54
 5659 0638 00000000 		.4byte	0
 5660 063c 00000000 		.4byte	0
 5661              	.LLST44:
 5662 0640 26000000 		.4byte	.LVL89
 5663 0644 42000000 		.4byte	.LVL90
 5664 0648 0200     		.2byte	0x2
 5665 064a 31       		.byte	0x31
 5666 064b 9F       		.byte	0x9f
 5667 064c 42000000 		.4byte	.LVL90
 5668 0650 56000000 		.4byte	.LVL92
 5669 0654 0100     		.2byte	0x1
 5670 0656 52       		.byte	0x52
 5671 0657 00000000 		.4byte	0
 5672 065b 00000000 		.4byte	0
 5673              	.LLST45:
 5674 065f 00000000 		.4byte	.LFB25
 5675 0663 04000000 		.4byte	.LCFI14
 5676 0667 0200     		.2byte	0x2
 5677 0669 7D       		.byte	0x7d
 5678 066a 00       		.sleb128 0
 5679 066b 04000000 		.4byte	.LCFI14
 5680 066f 2C000000 		.4byte	.LFE25
 5681 0673 0200     		.2byte	0x2
 5682 0675 7D       		.byte	0x7d
 5683 0676 08       		.sleb128 8
 5684 0677 00000000 		.4byte	0
 5685 067b 00000000 		.4byte	0
 5686              	.LLST46:
 5687 067f 00000000 		.4byte	.LVL95
 5688 0683 08000000 		.4byte	.LVL96
 5689 0687 0100     		.2byte	0x1
 5690 0689 50       		.byte	0x50
 5691 068a 08000000 		.4byte	.LVL96
 5692 068e 18000000 		.4byte	.LVL98
ARM GAS  C:\Users\vrnk\AppData\Local\Temp\cchVr3qk.s 			page 141


 5693 0692 0100     		.2byte	0x1
 5694 0694 54       		.byte	0x54
 5695 0695 18000000 		.4byte	.LVL98
 5696 0699 2C000000 		.4byte	.LFE25
 5697 069d 0400     		.2byte	0x4
 5698 069f F3       		.byte	0xf3
 5699 06a0 01       		.uleb128 0x1
 5700 06a1 50       		.byte	0x50
 5701 06a2 9F       		.byte	0x9f
 5702 06a3 00000000 		.4byte	0
 5703 06a7 00000000 		.4byte	0
 5704              	.LLST47:
 5705 06ab 00000000 		.4byte	.LVL99
 5706 06af 08000000 		.4byte	.LVL100
 5707 06b3 0100     		.2byte	0x1
 5708 06b5 50       		.byte	0x50
 5709 06b6 08000000 		.4byte	.LVL100
 5710 06ba 2C000000 		.4byte	.LFE26
 5711 06be 0400     		.2byte	0x4
 5712 06c0 F3       		.byte	0xf3
 5713 06c1 01       		.uleb128 0x1
 5714 06c2 50       		.byte	0x50
 5715 06c3 9F       		.byte	0x9f
 5716 06c4 00000000 		.4byte	0
 5717 06c8 00000000 		.4byte	0
 5718              	.LLST48:
 5719 06cc 00000000 		.4byte	.LFB32
 5720 06d0 02000000 		.4byte	.LCFI15
 5721 06d4 0200     		.2byte	0x2
 5722 06d6 7D       		.byte	0x7d
 5723 06d7 00       		.sleb128 0
 5724 06d8 02000000 		.4byte	.LCFI15
 5725 06dc 16000000 		.4byte	.LFE32
 5726 06e0 0200     		.2byte	0x2
 5727 06e2 7D       		.byte	0x7d
 5728 06e3 04       		.sleb128 4
 5729 06e4 00000000 		.4byte	0
 5730 06e8 00000000 		.4byte	0
 5731              	.LLST49:
 5732 06ec 00000000 		.4byte	.LVL103
 5733 06f0 0C000000 		.4byte	.LVL106
 5734 06f4 0100     		.2byte	0x1
 5735 06f6 50       		.byte	0x50
 5736 06f7 0C000000 		.4byte	.LVL106
 5737 06fb 16000000 		.4byte	.LFE32
 5738 06ff 0400     		.2byte	0x4
 5739 0701 F3       		.byte	0xf3
 5740 0702 01       		.uleb128 0x1
 5741 0703 50       		.byte	0x50
 5742 0704 9F       		.byte	0x9f
 5743 0705 00000000 		.4byte	0
 5744 0709 00000000 		.4byte	0
 5745              	.LLST50:
 5746 070d 06000000 		.4byte	.LVL104
 5747 0711 08000000 		.4byte	.LVL105
 5748 0715 0200     		.2byte	0x2
 5749 0717 30       		.byte	0x30
ARM GAS  C:\Users\vrnk\AppData\Local\Temp\cchVr3qk.s 			page 142


 5750 0718 9F       		.byte	0x9f
 5751 0719 00000000 		.4byte	0
 5752 071d 00000000 		.4byte	0
 5753              	.LLST51:
 5754 0721 00000000 		.4byte	.LFB33
 5755 0725 02000000 		.4byte	.LCFI16
 5756 0729 0200     		.2byte	0x2
 5757 072b 7D       		.byte	0x7d
 5758 072c 00       		.sleb128 0
 5759 072d 02000000 		.4byte	.LCFI16
 5760 0731 14000000 		.4byte	.LFE33
 5761 0735 0200     		.2byte	0x2
 5762 0737 7D       		.byte	0x7d
 5763 0738 04       		.sleb128 4
 5764 0739 00000000 		.4byte	0
 5765 073d 00000000 		.4byte	0
 5766              	.LLST52:
 5767 0741 00000000 		.4byte	.LVL108
 5768 0745 0C000000 		.4byte	.LVL111
 5769 0749 0100     		.2byte	0x1
 5770 074b 50       		.byte	0x50
 5771 074c 0C000000 		.4byte	.LVL111
 5772 0750 14000000 		.4byte	.LFE33
 5773 0754 0400     		.2byte	0x4
 5774 0756 F3       		.byte	0xf3
 5775 0757 01       		.uleb128 0x1
 5776 0758 50       		.byte	0x50
 5777 0759 9F       		.byte	0x9f
 5778 075a 00000000 		.4byte	0
 5779 075e 00000000 		.4byte	0
 5780              	.LLST53:
 5781 0762 06000000 		.4byte	.LVL109
 5782 0766 08000000 		.4byte	.LVL110
 5783 076a 0200     		.2byte	0x2
 5784 076c 30       		.byte	0x30
 5785 076d 9F       		.byte	0x9f
 5786 076e 00000000 		.4byte	0
 5787 0772 00000000 		.4byte	0
 5788              	.LLST54:
 5789 0776 00000000 		.4byte	.LFB34
 5790 077a 02000000 		.4byte	.LCFI17
 5791 077e 0200     		.2byte	0x2
 5792 0780 7D       		.byte	0x7d
 5793 0781 00       		.sleb128 0
 5794 0782 02000000 		.4byte	.LCFI17
 5795 0786 18000000 		.4byte	.LFE34
 5796 078a 0200     		.2byte	0x2
 5797 078c 7D       		.byte	0x7d
 5798 078d 04       		.sleb128 4
 5799 078e 00000000 		.4byte	0
 5800 0792 00000000 		.4byte	0
 5801              	.LLST55:
 5802 0796 00000000 		.4byte	.LVL112
 5803 079a 0C000000 		.4byte	.LVL115
 5804 079e 0100     		.2byte	0x1
 5805 07a0 50       		.byte	0x50
 5806 07a1 0C000000 		.4byte	.LVL115
ARM GAS  C:\Users\vrnk\AppData\Local\Temp\cchVr3qk.s 			page 143


 5807 07a5 18000000 		.4byte	.LFE34
 5808 07a9 0400     		.2byte	0x4
 5809 07ab F3       		.byte	0xf3
 5810 07ac 01       		.uleb128 0x1
 5811 07ad 50       		.byte	0x50
 5812 07ae 9F       		.byte	0x9f
 5813 07af 00000000 		.4byte	0
 5814 07b3 00000000 		.4byte	0
 5815              	.LLST56:
 5816 07b7 06000000 		.4byte	.LVL113
 5817 07bb 08000000 		.4byte	.LVL114
 5818 07bf 0200     		.2byte	0x2
 5819 07c1 30       		.byte	0x30
 5820 07c2 9F       		.byte	0x9f
 5821 07c3 00000000 		.4byte	0
 5822 07c7 00000000 		.4byte	0
 5823              	.LLST57:
 5824 07cb 00000000 		.4byte	.LFB35
 5825 07cf 02000000 		.4byte	.LCFI18
 5826 07d3 0200     		.2byte	0x2
 5827 07d5 7D       		.byte	0x7d
 5828 07d6 00       		.sleb128 0
 5829 07d7 02000000 		.4byte	.LCFI18
 5830 07db 18000000 		.4byte	.LFE35
 5831 07df 0200     		.2byte	0x2
 5832 07e1 7D       		.byte	0x7d
 5833 07e2 04       		.sleb128 4
 5834 07e3 00000000 		.4byte	0
 5835 07e7 00000000 		.4byte	0
 5836              	.LLST58:
 5837 07eb 00000000 		.4byte	.LVL117
 5838 07ef 0C000000 		.4byte	.LVL120
 5839 07f3 0100     		.2byte	0x1
 5840 07f5 50       		.byte	0x50
 5841 07f6 0C000000 		.4byte	.LVL120
 5842 07fa 18000000 		.4byte	.LFE35
 5843 07fe 0400     		.2byte	0x4
 5844 0800 F3       		.byte	0xf3
 5845 0801 01       		.uleb128 0x1
 5846 0802 50       		.byte	0x50
 5847 0803 9F       		.byte	0x9f
 5848 0804 00000000 		.4byte	0
 5849 0808 00000000 		.4byte	0
 5850              	.LLST59:
 5851 080c 06000000 		.4byte	.LVL118
 5852 0810 08000000 		.4byte	.LVL119
 5853 0814 0200     		.2byte	0x2
 5854 0816 30       		.byte	0x30
 5855 0817 9F       		.byte	0x9f
 5856 0818 00000000 		.4byte	0
 5857 081c 00000000 		.4byte	0
 5858              	.LLST60:
 5859 0820 00000000 		.4byte	.LFB36
 5860 0824 02000000 		.4byte	.LCFI19
 5861 0828 0200     		.2byte	0x2
 5862 082a 7D       		.byte	0x7d
 5863 082b 00       		.sleb128 0
ARM GAS  C:\Users\vrnk\AppData\Local\Temp\cchVr3qk.s 			page 144


 5864 082c 02000000 		.4byte	.LCFI19
 5865 0830 40000000 		.4byte	.LFE36
 5866 0834 0200     		.2byte	0x2
 5867 0836 7D       		.byte	0x7d
 5868 0837 10       		.sleb128 16
 5869 0838 00000000 		.4byte	0
 5870 083c 00000000 		.4byte	0
 5871              	.LLST61:
 5872 0840 00000000 		.4byte	.LVL121
 5873 0844 15000000 		.4byte	.LVL126-1
 5874 0848 0100     		.2byte	0x1
 5875 084a 50       		.byte	0x50
 5876 084b 15000000 		.4byte	.LVL126-1
 5877 084f 40000000 		.4byte	.LFE36
 5878 0853 0400     		.2byte	0x4
 5879 0855 F3       		.byte	0xf3
 5880 0856 01       		.uleb128 0x1
 5881 0857 50       		.byte	0x50
 5882 0858 9F       		.byte	0x9f
 5883 0859 00000000 		.4byte	0
 5884 085d 00000000 		.4byte	0
 5885              	.LLST62:
 5886 0861 00000000 		.4byte	.LVL121
 5887 0865 15000000 		.4byte	.LVL126-1
 5888 0869 0100     		.2byte	0x1
 5889 086b 51       		.byte	0x51
 5890 086c 15000000 		.4byte	.LVL126-1
 5891 0870 40000000 		.4byte	.LFE36
 5892 0874 0400     		.2byte	0x4
 5893 0876 F3       		.byte	0xf3
 5894 0877 01       		.uleb128 0x1
 5895 0878 51       		.byte	0x51
 5896 0879 9F       		.byte	0x9f
 5897 087a 00000000 		.4byte	0
 5898 087e 00000000 		.4byte	0
 5899              	.LLST63:
 5900 0882 16000000 		.4byte	.LVL126
 5901 0886 37000000 		.4byte	.LVL131-1
 5902 088a 0100     		.2byte	0x1
 5903 088c 50       		.byte	0x50
 5904 088d 00000000 		.4byte	0
 5905 0891 00000000 		.4byte	0
 5906              	.LLST64:
 5907 0895 12000000 		.4byte	.LVL125
 5908 0899 15000000 		.4byte	.LVL126-1
 5909 089d 0C00     		.2byte	0xc
 5910 089f 70       		.byte	0x70
 5911 08a0 00       		.sleb128 0
 5912 08a1 33       		.byte	0x33
 5913 08a2 1A       		.byte	0x1a
 5914 08a3 08       		.byte	0x8
 5915 08a4 FF       		.byte	0xff
 5916 08a5 1A       		.byte	0x1a
 5917 08a6 33       		.byte	0x33
 5918 08a7 24       		.byte	0x24
 5919 08a8 23       		.byte	0x23
 5920 08a9 06       		.uleb128 0x6
ARM GAS  C:\Users\vrnk\AppData\Local\Temp\cchVr3qk.s 			page 145


 5921 08aa 9F       		.byte	0x9f
 5922 08ab 15000000 		.4byte	.LVL126-1
 5923 08af 22000000 		.4byte	.LVL127
 5924 08b3 0C00     		.2byte	0xc
 5925 08b5 74       		.byte	0x74
 5926 08b6 00       		.sleb128 0
 5927 08b7 33       		.byte	0x33
 5928 08b8 1A       		.byte	0x1a
 5929 08b9 08       		.byte	0x8
 5930 08ba FF       		.byte	0xff
 5931 08bb 1A       		.byte	0x1a
 5932 08bc 33       		.byte	0x33
 5933 08bd 24       		.byte	0x24
 5934 08be 23       		.byte	0x23
 5935 08bf 06       		.uleb128 0x6
 5936 08c0 9F       		.byte	0x9f
 5937 08c1 00000000 		.4byte	0
 5938 08c5 00000000 		.4byte	0
 5939              	.LLST65:
 5940 08c9 26000000 		.4byte	.LVL128
 5941 08cd 32000000 		.4byte	.LVL130
 5942 08d1 0100     		.2byte	0x1
 5943 08d3 51       		.byte	0x51
 5944 08d4 32000000 		.4byte	.LVL130
 5945 08d8 38000000 		.4byte	.LVL132
 5946 08dc 0100     		.2byte	0x1
 5947 08de 54       		.byte	0x54
 5948 08df 00000000 		.4byte	0
 5949 08e3 00000000 		.4byte	0
 5950              	.LLST66:
 5951 08e7 0A000000 		.4byte	.LVL122
 5952 08eb 0C000000 		.4byte	.LVL123
 5953 08ef 0200     		.2byte	0x2
 5954 08f1 30       		.byte	0x30
 5955 08f2 9F       		.byte	0x9f
 5956 08f3 00000000 		.4byte	0
 5957 08f7 00000000 		.4byte	0
 5958              	.LLST67:
 5959 08fb 10000000 		.4byte	.LVL124
 5960 08ff 12000000 		.4byte	.LVL125
 5961 0903 0200     		.2byte	0x2
 5962 0905 30       		.byte	0x30
 5963 0906 9F       		.byte	0x9f
 5964 0907 00000000 		.4byte	0
 5965 090b 00000000 		.4byte	0
 5966              	.LLST68:
 5967 090f 00000000 		.4byte	.LFB37
 5968 0913 02000000 		.4byte	.LCFI20
 5969 0917 0200     		.2byte	0x2
 5970 0919 7D       		.byte	0x7d
 5971 091a 00       		.sleb128 0
 5972 091b 02000000 		.4byte	.LCFI20
 5973 091f 28000000 		.4byte	.LFE37
 5974 0923 0200     		.2byte	0x2
 5975 0925 7D       		.byte	0x7d
 5976 0926 04       		.sleb128 4
 5977 0927 00000000 		.4byte	0
ARM GAS  C:\Users\vrnk\AppData\Local\Temp\cchVr3qk.s 			page 146


 5978 092b 00000000 		.4byte	0
 5979              	.LLST69:
 5980 092f 00000000 		.4byte	.LVL133
 5981 0933 14000000 		.4byte	.LVL136
 5982 0937 0100     		.2byte	0x1
 5983 0939 50       		.byte	0x50
 5984 093a 14000000 		.4byte	.LVL136
 5985 093e 28000000 		.4byte	.LFE37
 5986 0942 0400     		.2byte	0x4
 5987 0944 F3       		.byte	0xf3
 5988 0945 01       		.uleb128 0x1
 5989 0946 50       		.byte	0x50
 5990 0947 9F       		.byte	0x9f
 5991 0948 00000000 		.4byte	0
 5992 094c 00000000 		.4byte	0
 5993              	.LLST70:
 5994 0950 06000000 		.4byte	.LVL134
 5995 0954 08000000 		.4byte	.LVL135
 5996 0958 0200     		.2byte	0x2
 5997 095a 30       		.byte	0x30
 5998 095b 9F       		.byte	0x9f
 5999 095c 00000000 		.4byte	0
 6000 0960 00000000 		.4byte	0
 6001              	.LLST71:
 6002 0964 00000000 		.4byte	.LVL137
 6003 0968 04000000 		.4byte	.LVL138
 6004 096c 0100     		.2byte	0x1
 6005 096e 50       		.byte	0x50
 6006 096f 04000000 		.4byte	.LVL138
 6007 0973 14000000 		.4byte	.LFE38
 6008 0977 0400     		.2byte	0x4
 6009 0979 F3       		.byte	0xf3
 6010 097a 01       		.uleb128 0x1
 6011 097b 50       		.byte	0x50
 6012 097c 9F       		.byte	0x9f
 6013 097d 00000000 		.4byte	0
 6014 0981 00000000 		.4byte	0
 6015              	.LLST72:
 6016 0985 00000000 		.4byte	.LVL139
 6017 0989 08000000 		.4byte	.LVL140
 6018 098d 0100     		.2byte	0x1
 6019 098f 50       		.byte	0x50
 6020 0990 08000000 		.4byte	.LVL140
 6021 0994 18000000 		.4byte	.LFE39
 6022 0998 0400     		.2byte	0x4
 6023 099a F3       		.byte	0xf3
 6024 099b 01       		.uleb128 0x1
 6025 099c 50       		.byte	0x50
 6026 099d 9F       		.byte	0x9f
 6027 099e 00000000 		.4byte	0
 6028 09a2 00000000 		.4byte	0
 6029              	.LLST73:
 6030 09a6 00000000 		.4byte	.LVL141
 6031 09aa 04000000 		.4byte	.LVL142
 6032 09ae 0100     		.2byte	0x1
 6033 09b0 50       		.byte	0x50
 6034 09b1 04000000 		.4byte	.LVL142
ARM GAS  C:\Users\vrnk\AppData\Local\Temp\cchVr3qk.s 			page 147


 6035 09b5 14000000 		.4byte	.LFE40
 6036 09b9 0400     		.2byte	0x4
 6037 09bb F3       		.byte	0xf3
 6038 09bc 01       		.uleb128 0x1
 6039 09bd 50       		.byte	0x50
 6040 09be 9F       		.byte	0x9f
 6041 09bf 00000000 		.4byte	0
 6042 09c3 00000000 		.4byte	0
 6043              	.LLST74:
 6044 09c7 00000000 		.4byte	.LVL143
 6045 09cb 04000000 		.4byte	.LVL144
 6046 09cf 0100     		.2byte	0x1
 6047 09d1 50       		.byte	0x50
 6048 09d2 04000000 		.4byte	.LVL144
 6049 09d6 14000000 		.4byte	.LFE41
 6050 09da 0400     		.2byte	0x4
 6051 09dc F3       		.byte	0xf3
 6052 09dd 01       		.uleb128 0x1
 6053 09de 50       		.byte	0x50
 6054 09df 9F       		.byte	0x9f
 6055 09e0 00000000 		.4byte	0
 6056 09e4 00000000 		.4byte	0
 6057              	.LLST75:
 6058 09e8 00000000 		.4byte	.LVL145
 6059 09ec 04000000 		.4byte	.LVL146
 6060 09f0 0100     		.2byte	0x1
 6061 09f2 50       		.byte	0x50
 6062 09f3 04000000 		.4byte	.LVL146
 6063 09f7 14000000 		.4byte	.LFE42
 6064 09fb 0400     		.2byte	0x4
 6065 09fd F3       		.byte	0xf3
 6066 09fe 01       		.uleb128 0x1
 6067 09ff 50       		.byte	0x50
 6068 0a00 9F       		.byte	0x9f
 6069 0a01 00000000 		.4byte	0
 6070 0a05 00000000 		.4byte	0
 6071              	.LLST76:
 6072 0a09 00000000 		.4byte	.LFB45
 6073 0a0d 02000000 		.4byte	.LCFI21
 6074 0a11 0200     		.2byte	0x2
 6075 0a13 7D       		.byte	0x7d
 6076 0a14 00       		.sleb128 0
 6077 0a15 02000000 		.4byte	.LCFI21
 6078 0a19 2C000000 		.4byte	.LFE45
 6079 0a1d 0200     		.2byte	0x2
 6080 0a1f 7D       		.byte	0x7d
 6081 0a20 08       		.sleb128 8
 6082 0a21 00000000 		.4byte	0
 6083 0a25 00000000 		.4byte	0
 6084              	.LLST77:
 6085 0a29 00000000 		.4byte	.LVL148
 6086 0a2d 04000000 		.4byte	.LVL149
 6087 0a31 0100     		.2byte	0x1
 6088 0a33 50       		.byte	0x50
 6089 0a34 04000000 		.4byte	.LVL149
 6090 0a38 22000000 		.4byte	.LVL153
 6091 0a3c 0100     		.2byte	0x1
ARM GAS  C:\Users\vrnk\AppData\Local\Temp\cchVr3qk.s 			page 148


 6092 0a3e 54       		.byte	0x54
 6093 0a3f 00000000 		.4byte	0
 6094 0a43 00000000 		.4byte	0
 6095              	.LLST78:
 6096 0a47 00000000 		.4byte	.LFB46
 6097 0a4b 02000000 		.4byte	.LCFI22
 6098 0a4f 0200     		.2byte	0x2
 6099 0a51 7D       		.byte	0x7d
 6100 0a52 00       		.sleb128 0
 6101 0a53 02000000 		.4byte	.LCFI22
 6102 0a57 14000000 		.4byte	.LFE46
 6103 0a5b 0200     		.2byte	0x2
 6104 0a5d 7D       		.byte	0x7d
 6105 0a5e 08       		.sleb128 8
 6106 0a5f 00000000 		.4byte	0
 6107 0a63 00000000 		.4byte	0
 6108              	.LLST79:
 6109 0a67 00000000 		.4byte	.LVL154
 6110 0a6b 08000000 		.4byte	.LVL155
 6111 0a6f 0100     		.2byte	0x1
 6112 0a71 50       		.byte	0x50
 6113 0a72 08000000 		.4byte	.LVL155
 6114 0a76 14000000 		.4byte	.LFE46
 6115 0a7a 0400     		.2byte	0x4
 6116 0a7c F3       		.byte	0xf3
 6117 0a7d 01       		.uleb128 0x1
 6118 0a7e 50       		.byte	0x50
 6119 0a7f 9F       		.byte	0x9f
 6120 0a80 00000000 		.4byte	0
 6121 0a84 00000000 		.4byte	0
 6122              	.LLST80:
 6123 0a88 00000000 		.4byte	.LFB18
 6124 0a8c 02000000 		.4byte	.LCFI23
 6125 0a90 0200     		.2byte	0x2
 6126 0a92 7D       		.byte	0x7d
 6127 0a93 00       		.sleb128 0
 6128 0a94 02000000 		.4byte	.LCFI23
 6129 0a98 40000000 		.4byte	.LFE18
 6130 0a9c 0200     		.2byte	0x2
 6131 0a9e 7D       		.byte	0x7d
 6132 0a9f 10       		.sleb128 16
 6133 0aa0 00000000 		.4byte	0
 6134 0aa4 00000000 		.4byte	0
 6135              	.LLST81:
 6136 0aa8 00000000 		.4byte	.LVL157
 6137 0aac 10000000 		.4byte	.LVL160
 6138 0ab0 0100     		.2byte	0x1
 6139 0ab2 50       		.byte	0x50
 6140 0ab3 10000000 		.4byte	.LVL160
 6141 0ab7 26000000 		.4byte	.LVL164
 6142 0abb 0100     		.2byte	0x1
 6143 0abd 54       		.byte	0x54
 6144 0abe 26000000 		.4byte	.LVL164
 6145 0ac2 40000000 		.4byte	.LFE18
 6146 0ac6 0400     		.2byte	0x4
 6147 0ac8 F3       		.byte	0xf3
 6148 0ac9 01       		.uleb128 0x1
ARM GAS  C:\Users\vrnk\AppData\Local\Temp\cchVr3qk.s 			page 149


 6149 0aca 50       		.byte	0x50
 6150 0acb 9F       		.byte	0x9f
 6151 0acc 00000000 		.4byte	0
 6152 0ad0 00000000 		.4byte	0
 6153              	.LLST82:
 6154 0ad4 00000000 		.4byte	.LVL157
 6155 0ad8 17000000 		.4byte	.LVL161-1
 6156 0adc 0100     		.2byte	0x1
 6157 0ade 51       		.byte	0x51
 6158 0adf 17000000 		.4byte	.LVL161-1
 6159 0ae3 2C000000 		.4byte	.LVL166
 6160 0ae7 0100     		.2byte	0x1
 6161 0ae9 55       		.byte	0x55
 6162 0aea 2C000000 		.4byte	.LVL166
 6163 0aee 40000000 		.4byte	.LFE18
 6164 0af2 0400     		.2byte	0x4
 6165 0af4 F3       		.byte	0xf3
 6166 0af5 01       		.uleb128 0x1
 6167 0af6 51       		.byte	0x51
 6168 0af7 9F       		.byte	0x9f
 6169 0af8 00000000 		.4byte	0
 6170 0afc 00000000 		.4byte	0
 6171              	.LLST83:
 6172 0b00 24000000 		.4byte	.LVL163
 6173 0b04 26000000 		.4byte	.LVL164
 6174 0b08 0100     		.2byte	0x1
 6175 0b0a 52       		.byte	0x52
 6176 0b0b 26000000 		.4byte	.LVL164
 6177 0b0f 2A000000 		.4byte	.LVL165
 6178 0b13 0B00     		.2byte	0xb
 6179 0b15 0A       		.byte	0xa
 6180 0b16 FFFF     		.2byte	0xffff
 6181 0b18 74       		.byte	0x74
 6182 0b19 00       		.sleb128 0
 6183 0b1a 24       		.byte	0x24
 6184 0b1b 20       		.byte	0x20
 6185 0b1c 72       		.byte	0x72
 6186 0b1d 00       		.sleb128 0
 6187 0b1e 1A       		.byte	0x1a
 6188 0b1f 9F       		.byte	0x9f
 6189 0b20 2A000000 		.4byte	.LVL165
 6190 0b24 40000000 		.4byte	.LFE18
 6191 0b28 0100     		.2byte	0x1
 6192 0b2a 52       		.byte	0x52
 6193 0b2b 00000000 		.4byte	0
 6194 0b2f 00000000 		.4byte	0
 6195              	.LLST84:
 6196 0b33 0A000000 		.4byte	.LVL158
 6197 0b37 0C000000 		.4byte	.LVL159
 6198 0b3b 0200     		.2byte	0x2
 6199 0b3d 30       		.byte	0x30
 6200 0b3e 9F       		.byte	0x9f
 6201 0b3f 00000000 		.4byte	0
 6202 0b43 00000000 		.4byte	0
 6203              	.LLST85:
 6204 0b47 00000000 		.4byte	.LFB6
 6205 0b4b 02000000 		.4byte	.LCFI24
ARM GAS  C:\Users\vrnk\AppData\Local\Temp\cchVr3qk.s 			page 150


 6206 0b4f 0200     		.2byte	0x2
 6207 0b51 7D       		.byte	0x7d
 6208 0b52 00       		.sleb128 0
 6209 0b53 02000000 		.4byte	.LCFI24
 6210 0b57 06000000 		.4byte	.LCFI25
 6211 0b5b 0200     		.2byte	0x2
 6212 0b5d 7D       		.byte	0x7d
 6213 0b5e 14       		.sleb128 20
 6214 0b5f 06000000 		.4byte	.LCFI25
 6215 0b63 3C010000 		.4byte	.LFE6
 6216 0b67 0200     		.2byte	0x2
 6217 0b69 7D       		.byte	0x7d
 6218 0b6a 28       		.sleb128 40
 6219 0b6b 00000000 		.4byte	0
 6220 0b6f 00000000 		.4byte	0
 6221              	.LLST86:
 6222 0b73 00000000 		.4byte	.LVL167
 6223 0b77 11000000 		.4byte	.LVL168-1
 6224 0b7b 0100     		.2byte	0x1
 6225 0b7d 50       		.byte	0x50
 6226 0b7e 11000000 		.4byte	.LVL168-1
 6227 0b82 A0000000 		.4byte	.LVL188
 6228 0b86 0100     		.2byte	0x1
 6229 0b88 54       		.byte	0x54
 6230 0b89 A0000000 		.4byte	.LVL188
 6231 0b8d BE000000 		.4byte	.LVL193
 6232 0b91 0A00     		.2byte	0xa
 6233 0b93 91       		.byte	0x91
 6234 0b94 60       		.sleb128 -32
 6235 0b95 06       		.byte	0x6
 6236 0b96 0C       		.byte	0xc
 6237 0b97 CDF1FF0F 		.4byte	0xffff1cd
 6238 0b9b 1C       		.byte	0x1c
 6239 0b9c 9F       		.byte	0x9f
 6240 0b9d BE000000 		.4byte	.LVL193
 6241 0ba1 C0000000 		.4byte	.LVL194
 6242 0ba5 0100     		.2byte	0x1
 6243 0ba7 54       		.byte	0x54
 6244 0ba8 C0000000 		.4byte	.LVL194
 6245 0bac CD000000 		.4byte	.LVL196-1
 6246 0bb0 0700     		.2byte	0x7
 6247 0bb2 72       		.byte	0x72
 6248 0bb3 B39C8080 		.sleb128 -268431821
 6248      7F
 6249 0bb8 9F       		.byte	0x9f
 6250 0bb9 CD000000 		.4byte	.LVL196-1
 6251 0bbd EA000000 		.4byte	.LVL200
 6252 0bc1 0A00     		.2byte	0xa
 6253 0bc3 91       		.byte	0x91
 6254 0bc4 60       		.sleb128 -32
 6255 0bc5 06       		.byte	0x6
 6256 0bc6 0C       		.byte	0xc
 6257 0bc7 CDF1FF0F 		.4byte	0xffff1cd
 6258 0bcb 1C       		.byte	0x1c
 6259 0bcc 9F       		.byte	0x9f
 6260 0bcd EA000000 		.4byte	.LVL200
 6261 0bd1 EC000000 		.4byte	.LVL201
ARM GAS  C:\Users\vrnk\AppData\Local\Temp\cchVr3qk.s 			page 151


 6262 0bd5 0100     		.2byte	0x1
 6263 0bd7 50       		.byte	0x50
 6264 0bd8 EC000000 		.4byte	.LVL201
 6265 0bdc 3C010000 		.4byte	.LFE6
 6266 0be0 0600     		.2byte	0x6
 6267 0be2 91       		.byte	0x91
 6268 0be3 5C       		.sleb128 -36
 6269 0be4 06       		.byte	0x6
 6270 0be5 23       		.byte	0x23
 6271 0be6 03       		.uleb128 0x3
 6272 0be7 9F       		.byte	0x9f
 6273 0be8 00000000 		.4byte	0
 6274 0bec 00000000 		.4byte	0
 6275              	.LLST87:
 6276 0bf0 40000000 		.4byte	.LVL174
 6277 0bf4 42000000 		.4byte	.LVL175
 6278 0bf8 0100     		.2byte	0x1
 6279 0bfa 56       		.byte	0x56
 6280 0bfb 50000000 		.4byte	.LVL176
 6281 0bff 52000000 		.4byte	.LVL177
 6282 0c03 0100     		.2byte	0x1
 6283 0c05 56       		.byte	0x56
 6284 0c06 60000000 		.4byte	.LVL178
 6285 0c0a 62000000 		.4byte	.LVL179
 6286 0c0e 0100     		.2byte	0x1
 6287 0c10 56       		.byte	0x56
 6288 0c11 70000000 		.4byte	.LVL180
 6289 0c15 72000000 		.4byte	.LVL181
 6290 0c19 0100     		.2byte	0x1
 6291 0c1b 56       		.byte	0x56
 6292 0c1c 7A000000 		.4byte	.LVL183
 6293 0c20 A6000000 		.4byte	.LVL189
 6294 0c24 0100     		.2byte	0x1
 6295 0c26 56       		.byte	0x56
 6296 0c27 A6000000 		.4byte	.LVL189
 6297 0c2b AD000000 		.4byte	.LVL190-1
 6298 0c2f 0400     		.2byte	0x4
 6299 0c31 74       		.byte	0x74
 6300 0c32 00       		.sleb128 0
 6301 0c33 06       		.byte	0x6
 6302 0c34 9F       		.byte	0x9f
 6303 0c35 BE000000 		.4byte	.LVL193
 6304 0c39 DC000000 		.4byte	.LVL197
 6305 0c3d 0100     		.2byte	0x1
 6306 0c3f 56       		.byte	0x56
 6307 0c40 DC000000 		.4byte	.LVL197
 6308 0c44 E1000000 		.4byte	.LVL198-1
 6309 0c48 0400     		.2byte	0x4
 6310 0c4a 74       		.byte	0x74
 6311 0c4b 00       		.sleb128 0
 6312 0c4c 06       		.byte	0x6
 6313 0c4d 9F       		.byte	0x9f
 6314 0c4e 00000000 		.4byte	0
 6315 0c52 00000000 		.4byte	0
 6316              	.LLST88:
 6317 0c56 7A000000 		.4byte	.LVL183
 6318 0c5a B2000000 		.4byte	.LVL191
ARM GAS  C:\Users\vrnk\AppData\Local\Temp\cchVr3qk.s 			page 152


 6319 0c5e 0100     		.2byte	0x1
 6320 0c60 55       		.byte	0x55
 6321 0c61 BE000000 		.4byte	.LVL193
 6322 0c65 E2000000 		.4byte	.LVL198
 6323 0c69 0100     		.2byte	0x1
 6324 0c6b 55       		.byte	0x55
 6325 0c6c 00000000 		.4byte	0
 6326 0c70 00000000 		.4byte	0
 6327              	.LLST89:
 6328 0c74 00000000 		.4byte	.LVL167
 6329 0c78 28000000 		.4byte	.LVL170
 6330 0c7c 0300     		.2byte	0x3
 6331 0c7e 08       		.byte	0x8
 6332 0c7f 30       		.byte	0x30
 6333 0c80 9F       		.byte	0x9f
 6334 0c81 28000000 		.4byte	.LVL170
 6335 0c85 2A000000 		.4byte	.LVL171
 6336 0c89 0100     		.2byte	0x1
 6337 0c8b 53       		.byte	0x53
 6338 0c8c 2A000000 		.4byte	.LVL171
 6339 0c90 32000000 		.4byte	.LVL173
 6340 0c94 0300     		.2byte	0x3
 6341 0c96 08       		.byte	0x8
 6342 0c97 30       		.byte	0x30
 6343 0c98 9F       		.byte	0x9f
 6344 0c99 32000000 		.4byte	.LVL173
 6345 0c9d 8A000000 		.4byte	.LVL184
 6346 0ca1 0100     		.2byte	0x1
 6347 0ca3 53       		.byte	0x53
 6348 0ca4 92000000 		.4byte	.LVL185
 6349 0ca8 94000000 		.4byte	.LVL186
 6350 0cac 0200     		.2byte	0x2
 6351 0cae 48       		.byte	0x48
 6352 0caf 9F       		.byte	0x9f
 6353 0cb0 94000000 		.4byte	.LVL186
 6354 0cb4 98000000 		.4byte	.LVL187
 6355 0cb8 0100     		.2byte	0x1
 6356 0cba 53       		.byte	0x53
 6357 0cbb BE000000 		.4byte	.LVL193
 6358 0cbf C2000000 		.4byte	.LVL195
 6359 0cc3 0100     		.2byte	0x1
 6360 0cc5 53       		.byte	0x53
 6361 0cc6 EA000000 		.4byte	.LVL200
 6362 0cca EC000000 		.4byte	.LVL201
 6363 0cce 0300     		.2byte	0x3
 6364 0cd0 08       		.byte	0x8
 6365 0cd1 30       		.byte	0x30
 6366 0cd2 9F       		.byte	0x9f
 6367 0cd3 00000000 		.4byte	0
 6368 0cd7 00000000 		.4byte	0
 6369              	.LLST90:
 6370 0cdb 16000000 		.4byte	.LVL169
 6371 0cdf EA000000 		.4byte	.LVL200
 6372 0ce3 0200     		.2byte	0x2
 6373 0ce5 91       		.byte	0x91
 6374 0ce6 64       		.sleb128 -28
 6375 0ce7 00000000 		.4byte	0
ARM GAS  C:\Users\vrnk\AppData\Local\Temp\cchVr3qk.s 			page 153


 6376 0ceb 00000000 		.4byte	0
 6377              	.LLST91:
 6378 0cef 2C000000 		.4byte	.LVL172
 6379 0cf3 32000000 		.4byte	.LVL173
 6380 0cf7 0100     		.2byte	0x1
 6381 0cf9 53       		.byte	0x53
 6382 0cfa 00000000 		.4byte	0
 6383 0cfe 00000000 		.4byte	0
 6384              	.LLST92:
 6385 0d02 EA000000 		.4byte	.LVL200
 6386 0d06 EC000000 		.4byte	.LVL201
 6387 0d0a 0200     		.2byte	0x2
 6388 0d0c 30       		.byte	0x30
 6389 0d0d 9F       		.byte	0x9f
 6390 0d0e 00000000 		.4byte	0
 6391 0d12 00000000 		.4byte	0
 6392              	.LLST93:
 6393 0d16 00000000 		.4byte	.LFB47
 6394 0d1a 02000000 		.4byte	.LCFI26
 6395 0d1e 0200     		.2byte	0x2
 6396 0d20 7D       		.byte	0x7d
 6397 0d21 00       		.sleb128 0
 6398 0d22 02000000 		.4byte	.LCFI26
 6399 0d26 48000000 		.4byte	.LFE47
 6400 0d2a 0200     		.2byte	0x2
 6401 0d2c 7D       		.byte	0x7d
 6402 0d2d 10       		.sleb128 16
 6403 0d2e 00000000 		.4byte	0
 6404 0d32 00000000 		.4byte	0
 6405              	.LLST94:
 6406 0d36 00000000 		.4byte	.LVL202
 6407 0d3a 14000000 		.4byte	.LVL203
 6408 0d3e 0100     		.2byte	0x1
 6409 0d40 50       		.byte	0x50
 6410 0d41 14000000 		.4byte	.LVL203
 6411 0d45 48000000 		.4byte	.LFE47
 6412 0d49 0400     		.2byte	0x4
 6413 0d4b F3       		.byte	0xf3
 6414 0d4c 01       		.uleb128 0x1
 6415 0d4d 50       		.byte	0x50
 6416 0d4e 9F       		.byte	0x9f
 6417 0d4f 00000000 		.4byte	0
 6418 0d53 00000000 		.4byte	0
 6419              		.section	.debug_aranges,"",%progbits
 6420 0000 94010000 		.4byte	0x194
 6421 0004 0200     		.2byte	0x2
 6422 0006 00000000 		.4byte	.Ldebug_info0
 6423 000a 04       		.byte	0x4
 6424 000b 00       		.byte	0
 6425 000c 0000     		.2byte	0
 6426 000e 0000     		.2byte	0
 6427 0010 00000000 		.4byte	.LFB0
 6428 0014 14000000 		.4byte	.LFE0-.LFB0
 6429 0018 00000000 		.4byte	.LFB1
 6430 001c 10000000 		.4byte	.LFE1-.LFB1
 6431 0020 00000000 		.4byte	.LFB2
 6432 0024 14000000 		.4byte	.LFE2-.LFB2
ARM GAS  C:\Users\vrnk\AppData\Local\Temp\cchVr3qk.s 			page 154


 6433 0028 00000000 		.4byte	.LFB3
 6434 002c 10000000 		.4byte	.LFE3-.LFB3
 6435 0030 00000000 		.4byte	.LFB4
 6436 0034 18000000 		.4byte	.LFE4-.LFB4
 6437 0038 00000000 		.4byte	.LFB5
 6438 003c 20000000 		.4byte	.LFE5-.LFB5
 6439 0040 00000000 		.4byte	.LFB7
 6440 0044 30000000 		.4byte	.LFE7-.LFB7
 6441 0048 00000000 		.4byte	.LFB8
 6442 004c 44000000 		.4byte	.LFE8-.LFB8
 6443 0050 00000000 		.4byte	.LFB9
 6444 0054 20000000 		.4byte	.LFE9-.LFB9
 6445 0058 00000000 		.4byte	.LFB10
 6446 005c 44000000 		.4byte	.LFE10-.LFB10
 6447 0060 00000000 		.4byte	.LFB11
 6448 0064 14000000 		.4byte	.LFE11-.LFB11
 6449 0068 00000000 		.4byte	.LFB12
 6450 006c 3C000000 		.4byte	.LFE12-.LFB12
 6451 0070 00000000 		.4byte	.LFB13
 6452 0074 20000000 		.4byte	.LFE13-.LFB13
 6453 0078 00000000 		.4byte	.LFB14
 6454 007c 24000000 		.4byte	.LFE14-.LFB14
 6455 0080 00000000 		.4byte	.LFB15
 6456 0084 24000000 		.4byte	.LFE15-.LFB15
 6457 0088 00000000 		.4byte	.LFB16
 6458 008c 44000000 		.4byte	.LFE16-.LFB16
 6459 0090 00000000 		.4byte	.LFB17
 6460 0094 14000000 		.4byte	.LFE17-.LFB17
 6461 0098 00000000 		.4byte	.LFB19
 6462 009c 3C000000 		.4byte	.LFE19-.LFB19
 6463 00a0 00000000 		.4byte	.LFB20
 6464 00a4 10000000 		.4byte	.LFE20-.LFB20
 6465 00a8 00000000 		.4byte	.LFB21
 6466 00ac 18000000 		.4byte	.LFE21-.LFB21
 6467 00b0 00000000 		.4byte	.LFB22
 6468 00b4 34000000 		.4byte	.LFE22-.LFB22
 6469 00b8 00000000 		.4byte	.LFB23
 6470 00bc 14000000 		.4byte	.LFE23-.LFB23
 6471 00c0 00000000 		.4byte	.LFB24
 6472 00c4 78000000 		.4byte	.LFE24-.LFB24
 6473 00c8 00000000 		.4byte	.LFB25
 6474 00cc 2C000000 		.4byte	.LFE25-.LFB25
 6475 00d0 00000000 		.4byte	.LFB26
 6476 00d4 2C000000 		.4byte	.LFE26-.LFB26
 6477 00d8 00000000 		.4byte	.LFB27
 6478 00dc 20000000 		.4byte	.LFE27-.LFB27
 6479 00e0 00000000 		.4byte	.LFB28
 6480 00e4 10000000 		.4byte	.LFE28-.LFB28
 6481 00e8 00000000 		.4byte	.LFB29
 6482 00ec 0C000000 		.4byte	.LFE29-.LFB29
 6483 00f0 00000000 		.4byte	.LFB30
 6484 00f4 10000000 		.4byte	.LFE30-.LFB30
 6485 00f8 00000000 		.4byte	.LFB31
 6486 00fc 0C000000 		.4byte	.LFE31-.LFB31
 6487 0100 00000000 		.4byte	.LFB32
 6488 0104 16000000 		.4byte	.LFE32-.LFB32
 6489 0108 00000000 		.4byte	.LFB33
ARM GAS  C:\Users\vrnk\AppData\Local\Temp\cchVr3qk.s 			page 155


 6490 010c 14000000 		.4byte	.LFE33-.LFB33
 6491 0110 00000000 		.4byte	.LFB34
 6492 0114 18000000 		.4byte	.LFE34-.LFB34
 6493 0118 00000000 		.4byte	.LFB35
 6494 011c 18000000 		.4byte	.LFE35-.LFB35
 6495 0120 00000000 		.4byte	.LFB36
 6496 0124 40000000 		.4byte	.LFE36-.LFB36
 6497 0128 00000000 		.4byte	.LFB37
 6498 012c 28000000 		.4byte	.LFE37-.LFB37
 6499 0130 00000000 		.4byte	.LFB38
 6500 0134 14000000 		.4byte	.LFE38-.LFB38
 6501 0138 00000000 		.4byte	.LFB39
 6502 013c 18000000 		.4byte	.LFE39-.LFB39
 6503 0140 00000000 		.4byte	.LFB40
 6504 0144 14000000 		.4byte	.LFE40-.LFB40
 6505 0148 00000000 		.4byte	.LFB41
 6506 014c 14000000 		.4byte	.LFE41-.LFB41
 6507 0150 00000000 		.4byte	.LFB42
 6508 0154 14000000 		.4byte	.LFE42-.LFB42
 6509 0158 00000000 		.4byte	.LFB43
 6510 015c 04000000 		.4byte	.LFE43-.LFB43
 6511 0160 00000000 		.4byte	.LFB44
 6512 0164 18000000 		.4byte	.LFE44-.LFB44
 6513 0168 00000000 		.4byte	.LFB45
 6514 016c 2C000000 		.4byte	.LFE45-.LFB45
 6515 0170 00000000 		.4byte	.LFB46
 6516 0174 14000000 		.4byte	.LFE46-.LFB46
 6517 0178 00000000 		.4byte	.LFB18
 6518 017c 40000000 		.4byte	.LFE18-.LFB18
 6519 0180 00000000 		.4byte	.LFB6
 6520 0184 3C010000 		.4byte	.LFE6-.LFB6
 6521 0188 00000000 		.4byte	.LFB47
 6522 018c 48000000 		.4byte	.LFE47-.LFB47
 6523 0190 00000000 		.4byte	0
 6524 0194 00000000 		.4byte	0
 6525              		.section	.debug_ranges,"",%progbits
 6526              	.Ldebug_ranges0:
 6527 0000 00000000 		.4byte	.LBB54
 6528 0004 02000000 		.4byte	.LBE54
 6529 0008 06000000 		.4byte	.LBB58
 6530 000c 08000000 		.4byte	.LBE58
 6531 0010 0E000000 		.4byte	.LBB66
 6532 0014 12000000 		.4byte	.LBE66
 6533 0018 00000000 		.4byte	0
 6534 001c 00000000 		.4byte	0
 6535 0020 08000000 		.4byte	.LBB59
 6536 0024 0A000000 		.4byte	.LBE59
 6537 0028 0C000000 		.4byte	.LBB65
 6538 002c 0E000000 		.4byte	.LBE65
 6539 0030 00000000 		.4byte	0
 6540 0034 00000000 		.4byte	0
 6541 0038 0A000000 		.4byte	.LBB62
 6542 003c 0C000000 		.4byte	.LBE62
 6543 0040 12000000 		.4byte	.LBB67
 6544 0044 16000000 		.4byte	.LBE67
 6545 0048 00000000 		.4byte	0
 6546 004c 00000000 		.4byte	0
ARM GAS  C:\Users\vrnk\AppData\Local\Temp\cchVr3qk.s 			page 156


 6547 0050 00000000 		.4byte	.LBB72
 6548 0054 02000000 		.4byte	.LBE72
 6549 0058 06000000 		.4byte	.LBB75
 6550 005c 08000000 		.4byte	.LBE75
 6551 0060 00000000 		.4byte	0
 6552 0064 00000000 		.4byte	0
 6553 0068 00000000 		.4byte	.LFB0
 6554 006c 14000000 		.4byte	.LFE0
 6555 0070 00000000 		.4byte	.LFB1
 6556 0074 10000000 		.4byte	.LFE1
 6557 0078 00000000 		.4byte	.LFB2
 6558 007c 14000000 		.4byte	.LFE2
 6559 0080 00000000 		.4byte	.LFB3
 6560 0084 10000000 		.4byte	.LFE3
 6561 0088 00000000 		.4byte	.LFB4
 6562 008c 18000000 		.4byte	.LFE4
 6563 0090 00000000 		.4byte	.LFB5
 6564 0094 20000000 		.4byte	.LFE5
 6565 0098 00000000 		.4byte	.LFB7
 6566 009c 30000000 		.4byte	.LFE7
 6567 00a0 00000000 		.4byte	.LFB8
 6568 00a4 44000000 		.4byte	.LFE8
 6569 00a8 00000000 		.4byte	.LFB9
 6570 00ac 20000000 		.4byte	.LFE9
 6571 00b0 00000000 		.4byte	.LFB10
 6572 00b4 44000000 		.4byte	.LFE10
 6573 00b8 00000000 		.4byte	.LFB11
 6574 00bc 14000000 		.4byte	.LFE11
 6575 00c0 00000000 		.4byte	.LFB12
 6576 00c4 3C000000 		.4byte	.LFE12
 6577 00c8 00000000 		.4byte	.LFB13
 6578 00cc 20000000 		.4byte	.LFE13
 6579 00d0 00000000 		.4byte	.LFB14
 6580 00d4 24000000 		.4byte	.LFE14
 6581 00d8 00000000 		.4byte	.LFB15
 6582 00dc 24000000 		.4byte	.LFE15
 6583 00e0 00000000 		.4byte	.LFB16
 6584 00e4 44000000 		.4byte	.LFE16
 6585 00e8 00000000 		.4byte	.LFB17
 6586 00ec 14000000 		.4byte	.LFE17
 6587 00f0 00000000 		.4byte	.LFB19
 6588 00f4 3C000000 		.4byte	.LFE19
 6589 00f8 00000000 		.4byte	.LFB20
 6590 00fc 10000000 		.4byte	.LFE20
 6591 0100 00000000 		.4byte	.LFB21
 6592 0104 18000000 		.4byte	.LFE21
 6593 0108 00000000 		.4byte	.LFB22
 6594 010c 34000000 		.4byte	.LFE22
 6595 0110 00000000 		.4byte	.LFB23
 6596 0114 14000000 		.4byte	.LFE23
 6597 0118 00000000 		.4byte	.LFB24
 6598 011c 78000000 		.4byte	.LFE24
 6599 0120 00000000 		.4byte	.LFB25
 6600 0124 2C000000 		.4byte	.LFE25
 6601 0128 00000000 		.4byte	.LFB26
 6602 012c 2C000000 		.4byte	.LFE26
 6603 0130 00000000 		.4byte	.LFB27
ARM GAS  C:\Users\vrnk\AppData\Local\Temp\cchVr3qk.s 			page 157


 6604 0134 20000000 		.4byte	.LFE27
 6605 0138 00000000 		.4byte	.LFB28
 6606 013c 10000000 		.4byte	.LFE28
 6607 0140 00000000 		.4byte	.LFB29
 6608 0144 0C000000 		.4byte	.LFE29
 6609 0148 00000000 		.4byte	.LFB30
 6610 014c 10000000 		.4byte	.LFE30
 6611 0150 00000000 		.4byte	.LFB31
 6612 0154 0C000000 		.4byte	.LFE31
 6613 0158 00000000 		.4byte	.LFB32
 6614 015c 16000000 		.4byte	.LFE32
 6615 0160 00000000 		.4byte	.LFB33
 6616 0164 14000000 		.4byte	.LFE33
 6617 0168 00000000 		.4byte	.LFB34
 6618 016c 18000000 		.4byte	.LFE34
 6619 0170 00000000 		.4byte	.LFB35
 6620 0174 18000000 		.4byte	.LFE35
 6621 0178 00000000 		.4byte	.LFB36
 6622 017c 40000000 		.4byte	.LFE36
 6623 0180 00000000 		.4byte	.LFB37
 6624 0184 28000000 		.4byte	.LFE37
 6625 0188 00000000 		.4byte	.LFB38
 6626 018c 14000000 		.4byte	.LFE38
 6627 0190 00000000 		.4byte	.LFB39
 6628 0194 18000000 		.4byte	.LFE39
 6629 0198 00000000 		.4byte	.LFB40
 6630 019c 14000000 		.4byte	.LFE40
 6631 01a0 00000000 		.4byte	.LFB41
 6632 01a4 14000000 		.4byte	.LFE41
 6633 01a8 00000000 		.4byte	.LFB42
 6634 01ac 14000000 		.4byte	.LFE42
 6635 01b0 00000000 		.4byte	.LFB43
 6636 01b4 04000000 		.4byte	.LFE43
 6637 01b8 00000000 		.4byte	.LFB44
 6638 01bc 18000000 		.4byte	.LFE44
 6639 01c0 00000000 		.4byte	.LFB45
 6640 01c4 2C000000 		.4byte	.LFE45
 6641 01c8 00000000 		.4byte	.LFB46
 6642 01cc 14000000 		.4byte	.LFE46
 6643 01d0 00000000 		.4byte	.LFB18
 6644 01d4 40000000 		.4byte	.LFE18
 6645 01d8 00000000 		.4byte	.LFB6
 6646 01dc 3C010000 		.4byte	.LFE6
 6647 01e0 00000000 		.4byte	.LFB47
 6648 01e4 48000000 		.4byte	.LFE47
 6649 01e8 00000000 		.4byte	0
 6650 01ec 00000000 		.4byte	0
 6651              		.section	.debug_line,"",%progbits
 6652              	.Ldebug_line0:
 6653 0000 5F050000 		.section	.debug_str,"MS",%progbits,1
 6653      02004F00 
 6653      00000201 
 6653      FB0E0D00 
 6653      01010101 
 6654              	.LASF32:
 6655 0000 43795379 		.ascii	"CySysWdtWriteMode\000"
 6655      73576474 
ARM GAS  C:\Users\vrnk\AppData\Local\Temp\cchVr3qk.s 			page 158


 6655      57726974 
 6655      654D6F64 
 6655      6500
 6656              	.LASF93:
 6657 0012 62675472 		.ascii	"bgTrim4\000"
 6657      696D3400 
 6658              	.LASF10:
 6659 001a 75696E74 		.ascii	"uint16\000"
 6659      313600
 6660              	.LASF63:
 6661 0021 696E7453 		.ascii	"intState\000"
 6661      74617465 
 6661      00
 6662              	.LASF77:
 6663 002a 76616C75 		.ascii	"value\000"
 6663      6500
 6664              	.LASF23:
 6665 0030 43795379 		.ascii	"CySysClkWriteHfclkDirect\000"
 6665      73436C6B 
 6665      57726974 
 6665      65486663 
 6665      6C6B4469 
 6666              	.LASF28:
 6667 0049 43795379 		.ascii	"CySysWdtUnlock\000"
 6667      73576474 
 6667      556E6C6F 
 6667      636B00
 6668              	.LASF69:
 6669 0058 6F6C6449 		.ascii	"oldIsr\000"
 6669      737200
 6670              	.LASF31:
 6671 005f 636F756E 		.ascii	"counterNum\000"
 6671      7465724E 
 6671      756D00
 6672              	.LASF62:
 6673 006a 43794469 		.ascii	"CyDisableInts\000"
 6673      7361626C 
 6673      65496E74 
 6673      7300
 6674              	.LASF101:
 6675 0078 63796465 		.ascii	"cydelay32kMs\000"
 6675      6C617933 
 6675      326B4D73 
 6675      00
 6676              	.LASF7:
 6677 0085 6C6F6E67 		.ascii	"long long unsigned int\000"
 6677      206C6F6E 
 6677      6720756E 
 6677      7369676E 
 6677      65642069 
 6678              	.LASF64:
 6679 009c 4379456E 		.ascii	"CyEnableInts\000"
 6679      61626C65 
 6679      496E7473 
 6679      00
 6680              	.LASF84:
 6681 00a9 4379536F 		.ascii	"CySoftwareReset\000"
ARM GAS  C:\Users\vrnk\AppData\Local\Temp\cchVr3qk.s 			page 159


 6681      66747761 
 6681      72655265 
 6681      73657400 
 6682              	.LASF80:
 6683 00b9 4379496E 		.ascii	"CyIntGetState\000"
 6683      74476574 
 6683      53746174 
 6683      6500
 6684              	.LASF6:
 6685 00c7 6C6F6E67 		.ascii	"long long int\000"
 6685      206C6F6E 
 6685      6720696E 
 6685      7400
 6686              	.LASF0:
 6687 00d5 7369676E 		.ascii	"signed char\000"
 6687      65642063 
 6687      68617200 
 6688              	.LASF37:
 6689 00e1 43795379 		.ascii	"CySysWdtReadMode\000"
 6689      73576474 
 6689      52656164 
 6689      4D6F6465 
 6689      00
 6690              	.LASF50:
 6691 00f2 43795379 		.ascii	"CySysWdtReadCount\000"
 6691      73576474 
 6691      52656164 
 6691      436F756E 
 6691      7400
 6692              	.LASF97:
 6693 0104 43794465 		.ascii	"CyDelayFreq\000"
 6693      6C617946 
 6693      72657100 
 6694              	.LASF27:
 6695 0110 43795379 		.ascii	"CySysWdtLock\000"
 6695      73576474 
 6695      4C6F636B 
 6695      00
 6696              	.LASF87:
 6697 011d 43794465 		.ascii	"CyDelayUs\000"
 6697      6C617955 
 6697      7300
 6698              	.LASF89:
 6699 0127 43795379 		.ascii	"CySysWdtWriteMatch\000"
 6699      73576474 
 6699      57726974 
 6699      654D6174 
 6699      636800
 6700              	.LASF46:
 6701 013a 62697473 		.ascii	"bits\000"
 6701      00
 6702              	.LASF4:
 6703 013f 6C6F6E67 		.ascii	"long int\000"
 6703      20696E74 
 6703      00
 6704              	.LASF81:
 6705 0148 4379496E 		.ascii	"CyIntDisable\000"
ARM GAS  C:\Users\vrnk\AppData\Local\Temp\cchVr3qk.s 			page 160


 6705      74446973 
 6705      61626C65 
 6705      00
 6706              	.LASF9:
 6707 0155 75696E74 		.ascii	"uint8\000"
 6707      3800
 6708              	.LASF99:
 6709 015b 63796465 		.ascii	"cydelayFreqKhz\000"
 6709      6C617946 
 6709      7265714B 
 6709      687A00
 6710              	.LASF36:
 6711 016a 656E6162 		.ascii	"enable\000"
 6711      6C6500
 6712              	.LASF13:
 6713 0171 646F7562 		.ascii	"double\000"
 6713      6C6500
 6714              	.LASF22:
 6715 0178 43795379 		.ascii	"CySysClkIloStop\000"
 6715      73436C6B 
 6715      496C6F53 
 6715      746F7000 
 6716              	.LASF42:
 6717 0188 43795379 		.ascii	"CySysWdtWriteCascade\000"
 6717      73576474 
 6717      57726974 
 6717      65436173 
 6717      63616465 
 6718              	.LASF76:
 6719 019d 73686966 		.ascii	"shift\000"
 6719      7400
 6720              	.LASF56:
 6721 01a3 636F756E 		.ascii	"countersMask\000"
 6721      74657273 
 6721      4D61736B 
 6721      00
 6722              	.LASF61:
 6723 01b0 43795379 		.ascii	"CySysLvdClearInterrupt\000"
 6723      734C7664 
 6723      436C6561 
 6723      72496E74 
 6723      65727275 
 6724              	.LASF11:
 6725 01c7 75696E74 		.ascii	"uint32\000"
 6725      333200
 6726              	.LASF109:
 6727 01ce 43794465 		.ascii	"CyDelayCycles\000"
 6727      6C617943 
 6727      79636C65 
 6727      7300
 6728              	.LASF67:
 6729 01dc 6E756D62 		.ascii	"number\000"
 6729      657200
 6730              	.LASF65:
 6731 01e3 6D61736B 		.ascii	"mask\000"
 6731      00
 6732              	.LASF51:
ARM GAS  C:\Users\vrnk\AppData\Local\Temp\cchVr3qk.s 			page 161


 6733 01e8 72656756 		.ascii	"regValue\000"
 6733      616C7565 
 6733      00
 6734              	.LASF57:
 6735 01f1 43795379 		.ascii	"CySysLvdEnable\000"
 6735      734C7664 
 6735      456E6162 
 6735      6C6500
 6736              	.LASF78:
 6737 0200 4379496E 		.ascii	"CyIntGetPriority\000"
 6737      74476574 
 6737      5072696F 
 6737      72697479 
 6737      00
 6738              	.LASF44:
 6739 0211 636F756E 		.ascii	"countersEnableStatus\000"
 6739      74657273 
 6739      456E6162 
 6739      6C655374 
 6739      61747573 
 6740              	.LASF39:
 6741 0226 43795379 		.ascii	"CySysWdtEnable\000"
 6741      73576474 
 6741      456E6162 
 6741      6C6500
 6742              	.LASF40:
 6743 0235 636F756E 		.ascii	"counterMask\000"
 6743      7465724D 
 6743      61736B00 
 6744              	.LASF8:
 6745 0241 756E7369 		.ascii	"unsigned int\000"
 6745      676E6564 
 6745      20696E74 
 6745      00
 6746              	.LASF5:
 6747 024e 6C6F6E67 		.ascii	"long unsigned int\000"
 6747      20756E73 
 6747      69676E65 
 6747      6420696E 
 6747      7400
 6748              	.LASF60:
 6749 0260 43795379 		.ascii	"CySysLvdGetInterruptSource\000"
 6749      734C7664 
 6749      47657449 
 6749      6E746572 
 6749      72757074 
 6750              	.LASF29:
 6751 027b 696E7465 		.ascii	"interruptState\000"
 6751      72727570 
 6751      74537461 
 6751      746500
 6752              	.LASF20:
 6753 028a 43795379 		.ascii	"CySysClkImoStop\000"
 6753      73436C6B 
 6753      496D6F53 
 6753      746F7000 
 6754              	.LASF108:
ARM GAS  C:\Users\vrnk\AppData\Local\Temp\cchVr3qk.s 			page 162


 6755 029a 4379456E 		.ascii	"CyEnterCriticalSection\000"
 6755      74657243 
 6755      72697469 
 6755      63616C53 
 6755      65637469 
 6756              	.LASF82:
 6757 02b1 4379496E 		.ascii	"CyIntSetPending\000"
 6757      74536574 
 6757      50656E64 
 6757      696E6700 
 6758              	.LASF3:
 6759 02c1 73686F72 		.ascii	"short unsigned int\000"
 6759      7420756E 
 6759      7369676E 
 6759      65642069 
 6759      6E7400
 6760              	.LASF106:
 6761 02d4 433A5C55 		.ascii	"C:\\Users\\vrnk\\Desktop\\ES100 FW -049\\FW\\SCB_Bo"
 6761      73657273 
 6761      5C76726E 
 6761      6B5C4465 
 6761      736B746F 
 6762 0301 6F746C6F 		.ascii	"otloader_42xx\\UART_Bootloader.cydsn\000"
 6762      61646572 
 6762      5F343278 
 6762      785C5541 
 6762      52545F42 
 6763              	.LASF72:
 6764 0325 4379496E 		.ascii	"CyIntSetVector\000"
 6764      74536574 
 6764      56656374 
 6764      6F7200
 6765              	.LASF105:
 6766 0334 2E5C4765 		.ascii	".\\Generated_Source\\PSoC4\\CyLib.c\000"
 6766      6E657261 
 6766      7465645F 
 6766      536F7572 
 6766      63655C50 
 6767              	.LASF21:
 6768 0355 43795379 		.ascii	"CySysClkIloStart\000"
 6768      73436C6B 
 6768      496C6F53 
 6768      74617274 
 6768      00
 6769              	.LASF91:
 6770 0366 43795379 		.ascii	"CySysClkWriteImoFreq\000"
 6770      73436C6B 
 6770      57726974 
 6770      65496D6F 
 6770      46726571 
 6771              	.LASF66:
 6772 037b 4379496E 		.ascii	"CyIntSetSysVector\000"
 6772      74536574 
 6772      53797356 
 6772      6563746F 
 6772      7200
 6773              	.LASF16:
ARM GAS  C:\Users\vrnk\AppData\Local\Temp\cchVr3qk.s 			page 163


 6774 038d 72656733 		.ascii	"reg32\000"
 6774      3200
 6775              	.LASF35:
 6776 0393 43795379 		.ascii	"CySysWdtWriteClearOnMatch\000"
 6776      73576474 
 6776      57726974 
 6776      65436C65 
 6776      61724F6E 
 6777              	.LASF38:
 6778 03ad 43795379 		.ascii	"CySysWdtReadClearOnMatch\000"
 6778      73576474 
 6778      52656164 
 6778      436C6561 
 6778      724F6E4D 
 6779              	.LASF18:
 6780 03c6 73697A65 		.ascii	"sizetype\000"
 6780      74797065 
 6780      00
 6781              	.LASF83:
 6782 03cf 4379496E 		.ascii	"CyIntClearPending\000"
 6782      74436C65 
 6782      61725065 
 6782      6E64696E 
 6782      6700
 6783              	.LASF68:
 6784 03e1 61646472 		.ascii	"address\000"
 6784      65737300 
 6785              	.LASF94:
 6786 03e9 62675472 		.ascii	"bgTrim5\000"
 6786      696D3500 
 6787              	.LASF90:
 6788 03f1 6D617463 		.ascii	"match\000"
 6788      6800
 6789              	.LASF96:
 6790 03f7 6379496D 		.ascii	"cyImoFreqMhz2Reg\000"
 6790      6F467265 
 6790      714D687A 
 6790      32526567 
 6790      00
 6791              	.LASF98:
 6792 0408 63796465 		.ascii	"cydelayFreqHz\000"
 6792      6C617946 
 6792      72657148 
 6792      7A00
 6793              	.LASF55:
 6794 0416 43795379 		.ascii	"CySysWdtResetCounters\000"
 6794      73576474 
 6794      52657365 
 6794      74436F75 
 6794      6E746572 
 6795              	.LASF74:
 6796 042c 4379496E 		.ascii	"CyIntSetPriority\000"
 6796      74536574 
 6796      5072696F 
 6796      72697479 
 6796      00
 6797              	.LASF53:
ARM GAS  C:\Users\vrnk\AppData\Local\Temp\cchVr3qk.s 			page 164


 6798 043d 43795379 		.ascii	"CySysWdtClearInterrupt\000"
 6798      73576474 
 6798      436C6561 
 6798      72496E74 
 6798      65727275 
 6799              	.LASF12:
 6800 0454 666C6F61 		.ascii	"float\000"
 6800      7400
 6801              	.LASF103:
 6802 045a 43794578 		.ascii	"CyExitCriticalSection\000"
 6802      69744372 
 6802      69746963 
 6802      616C5365 
 6802      6374696F 
 6803              	.LASF92:
 6804 0470 66726571 		.ascii	"freq\000"
 6804      00
 6805              	.LASF73:
 6806 0475 4379496E 		.ascii	"CyIntGetVector\000"
 6806      74476574 
 6806      56656374 
 6806      6F7200
 6807              	.LASF86:
 6808 0484 6D696C6C 		.ascii	"milliseconds\000"
 6808      69736563 
 6808      6F6E6473 
 6808      00
 6809              	.LASF48:
 6810 0491 43795379 		.ascii	"CySysWdtReadToggleBit\000"
 6810      73576474 
 6810      52656164 
 6810      546F6767 
 6810      6C654269 
 6811              	.LASF104:
 6812 04a7 474E5520 		.ascii	"GNU C 4.7.3 20130312 (release) [ARM/embedded-4_7-br"
 6812      4320342E 
 6812      372E3320 
 6812      32303133 
 6812      30333132 
 6813 04da 616E6368 		.ascii	"anch revision 196615]\000"
 6813      20726576 
 6813      6973696F 
 6813      6E203139 
 6813      36363135 
 6814              	.LASF15:
 6815 04f0 72656738 		.ascii	"reg8\000"
 6815      00
 6816              	.LASF58:
 6817 04f5 74687265 		.ascii	"threshold\000"
 6817      73686F6C 
 6817      6400
 6818              	.LASF102:
 6819 04ff 43794861 		.ascii	"CyHalt\000"
 6819      6C7400
 6820              	.LASF1:
 6821 0506 756E7369 		.ascii	"unsigned char\000"
 6821      676E6564 
ARM GAS  C:\Users\vrnk\AppData\Local\Temp\cchVr3qk.s 			page 165


 6821      20636861 
 6821      7200
 6822              	.LASF2:
 6823 0514 73686F72 		.ascii	"short int\000"
 6823      7420696E 
 6823      7400
 6824              	.LASF47:
 6825 051e 43795379 		.ascii	"CySysWdtReadCascade\000"
 6825      73576474 
 6825      52656164 
 6825      43617363 
 6825      61646500 
 6826              	.LASF41:
 6827 0532 43795379 		.ascii	"CySysWdtDisable\000"
 6827      73576474 
 6827      44697361 
 6827      626C6500 
 6828              	.LASF79:
 6829 0542 4379496E 		.ascii	"CyIntEnable\000"
 6829      74456E61 
 6829      626C6500 
 6830              	.LASF71:
 6831 054e 4379496E 		.ascii	"CyIntGetSysVector\000"
 6831      74476574 
 6831      53797356 
 6831      6563746F 
 6831      7200
 6832              	.LASF49:
 6833 0560 43795379 		.ascii	"CySysWdtReadMatch\000"
 6833      73576474 
 6833      52656164 
 6833      4D617463 
 6833      6800
 6834              	.LASF25:
 6835 0572 636C6B53 		.ascii	"clkSelect\000"
 6835      656C6563 
 6835      7400
 6836              	.LASF52:
 6837 057c 43795379 		.ascii	"CySysWdtGetInterruptSource\000"
 6837      73576474 
 6837      47657449 
 6837      6E746572 
 6837      72757074 
 6838              	.LASF30:
 6839 0597 72656173 		.ascii	"reason\000"
 6839      6F6E00
 6840              	.LASF70:
 6841 059e 72616D56 		.ascii	"ramVectorTable\000"
 6841      6563746F 
 6841      72546162 
 6841      6C6500
 6842              	.LASF14:
 6843 05ad 63686172 		.ascii	"char\000"
 6843      00
 6844              	.LASF75:
 6845 05b2 7072696F 		.ascii	"priority\000"
 6845      72697479 
ARM GAS  C:\Users\vrnk\AppData\Local\Temp\cchVr3qk.s 			page 166


 6845      00
 6846              	.LASF33:
 6847 05bb 6D6F6465 		.ascii	"mode\000"
 6847      00
 6848              	.LASF17:
 6849 05c0 63796973 		.ascii	"cyisraddress\000"
 6849      72616464 
 6849      72657373 
 6849      00
 6850              	.LASF95:
 6851 05cd 63757272 		.ascii	"currentFreq\000"
 6851      656E7446 
 6851      72657100 
 6852              	.LASF24:
 6853 05d9 43795379 		.ascii	"CySysClkWriteSysclkDiv\000"
 6853      73436C6B 
 6853      57726974 
 6853      65537973 
 6853      636C6B44 
 6854              	.LASF85:
 6855 05f0 43794465 		.ascii	"CyDelay\000"
 6855      6C617900 
 6856              	.LASF59:
 6857 05f8 43795379 		.ascii	"CySysLvdDisable\000"
 6857      734C7664 
 6857      44697361 
 6857      626C6500 
 6858              	.LASF34:
 6859 0608 636F6E66 		.ascii	"configRegValue\000"
 6859      69675265 
 6859      6756616C 
 6859      756500
 6860              	.LASF100:
 6861 0617 63796465 		.ascii	"cydelayFreqMhz\000"
 6861      6C617946 
 6861      7265714D 
 6861      687A00
 6862              	.LASF54:
 6863 0626 7764744C 		.ascii	"wdtLockState\000"
 6863      6F636B53 
 6863      74617465 
 6863      00
 6864              	.LASF43:
 6865 0633 63617363 		.ascii	"cascadeMask\000"
 6865      6164654D 
 6865      61736B00 
 6866              	.LASF26:
 6867 063f 64697669 		.ascii	"divider\000"
 6867      64657200 
 6868              	.LASF19:
 6869 0647 43795379 		.ascii	"CySysClkImoStart\000"
 6869      73436C6B 
 6869      496D6F53 
 6869      74617274 
 6869      00
 6870              	.LASF107:
 6871 0658 43795379 		.ascii	"CySysWdtReadEnabledStatus\000"
ARM GAS  C:\Users\vrnk\AppData\Local\Temp\cchVr3qk.s 			page 167


 6871      73576474 
 6871      52656164 
 6871      456E6162 
 6871      6C656453 
 6872              	.LASF88:
 6873 0672 6D696372 		.ascii	"microseconds\000"
 6873      6F736563 
 6873      6F6E6473 
 6873      00
 6874              	.LASF45:
 6875 067f 43795379 		.ascii	"CySysWdtWriteToggleBit\000"
 6875      73576474 
 6875      57726974 
 6875      65546F67 
 6875      676C6542 
 6876              		.ident	"GCC: (GNU Tools for ARM Embedded Processors) 4.7.3 20130312 (release) [ARM/embedded-4_7-br
