ARM GAS  C:\Users\vrnk\AppData\Local\Temp\cclmNMWc.s 			page 1


   1              		.cpu cortex-m0
   2              		.fpu softvfp
   3              		.eabi_attribute 20, 1
   4              		.eabi_attribute 21, 1
   5              		.eabi_attribute 23, 3
   6              		.eabi_attribute 24, 1
   7              		.eabi_attribute 25, 1
   8              		.eabi_attribute 26, 1
   9              		.eabi_attribute 30, 4
  10              		.eabi_attribute 34, 0
  11              		.eabi_attribute 18, 4
  12              		.code	16
  13              		.file	"UART.c"
  14              		.text
  15              	.Ltext0:
  16              		.cfi_sections	.debug_frame
  17              		.section	.text.UART_Init,"ax",%progbits
  18              		.align	1
  19              		.global	UART_Init
  20              		.code	16
  21              		.thumb_func
  22              		.type	UART_Init, %function
  23              	UART_Init:
  24              	.LFB0:
  25              		.file 1 ".\\Generated_Source\\PSoC4\\UART.c"
   1:.\Generated_Source\PSoC4/UART.c **** /*******************************************************************************
   2:.\Generated_Source\PSoC4/UART.c **** * File Name: UART.c
   3:.\Generated_Source\PSoC4/UART.c **** * Version 1.10
   4:.\Generated_Source\PSoC4/UART.c **** *
   5:.\Generated_Source\PSoC4/UART.c **** * Description:
   6:.\Generated_Source\PSoC4/UART.c **** *  This file provides the source code to the API for the SCB Component.
   7:.\Generated_Source\PSoC4/UART.c **** *
   8:.\Generated_Source\PSoC4/UART.c **** * Note:
   9:.\Generated_Source\PSoC4/UART.c **** *
  10:.\Generated_Source\PSoC4/UART.c **** *******************************************************************************
  11:.\Generated_Source\PSoC4/UART.c **** * Copyright 2013, Cypress Semiconductor Corporation.  All rights reserved.
  12:.\Generated_Source\PSoC4/UART.c **** * You may use this file only in accordance with the license, terms, conditions,
  13:.\Generated_Source\PSoC4/UART.c **** * disclaimers, and limitations in the end user license agreement accompanying
  14:.\Generated_Source\PSoC4/UART.c **** * the software package with which this file was provided.
  15:.\Generated_Source\PSoC4/UART.c **** *******************************************************************************/
  16:.\Generated_Source\PSoC4/UART.c **** 
  17:.\Generated_Source\PSoC4/UART.c **** #include "UART_PVT.h"
  18:.\Generated_Source\PSoC4/UART.c **** 
  19:.\Generated_Source\PSoC4/UART.c **** #if(UART_SCB_MODE_I2C_INC)
  20:.\Generated_Source\PSoC4/UART.c ****     #include "UART_I2C_PVT.h"
  21:.\Generated_Source\PSoC4/UART.c **** #endif /* (UART_SCB_MODE_I2C_INC) */
  22:.\Generated_Source\PSoC4/UART.c **** 
  23:.\Generated_Source\PSoC4/UART.c **** #if(UART_SCB_MODE_EZI2C_INC)
  24:.\Generated_Source\PSoC4/UART.c ****     #include "UART_EZI2C_PVT.h"
  25:.\Generated_Source\PSoC4/UART.c **** #endif /* (UART_SCB_MODE_EZI2C_INC) */
  26:.\Generated_Source\PSoC4/UART.c **** 
  27:.\Generated_Source\PSoC4/UART.c **** #if(UART_SCB_MODE_SPI_INC || UART_SCB_MODE_UART_INC)
  28:.\Generated_Source\PSoC4/UART.c ****     #include "UART_SPI_UART_PVT.h"
  29:.\Generated_Source\PSoC4/UART.c **** #endif /* (UART_SCB_MODE_SPI_INC || UART_SCB_MODE_UART_INC) */
  30:.\Generated_Source\PSoC4/UART.c **** 
  31:.\Generated_Source\PSoC4/UART.c **** 
  32:.\Generated_Source\PSoC4/UART.c **** /**********************************
ARM GAS  C:\Users\vrnk\AppData\Local\Temp\cclmNMWc.s 			page 2


  33:.\Generated_Source\PSoC4/UART.c **** *    Run Time Configuration Vars
  34:.\Generated_Source\PSoC4/UART.c **** **********************************/
  35:.\Generated_Source\PSoC4/UART.c **** 
  36:.\Generated_Source\PSoC4/UART.c **** /* Stores internal component configuration for unconfigured mode */
  37:.\Generated_Source\PSoC4/UART.c **** #if(UART_SCB_MODE_UNCONFIG_CONST_CFG)
  38:.\Generated_Source\PSoC4/UART.c ****     /* Common config vars */
  39:.\Generated_Source\PSoC4/UART.c ****     uint8 UART_scbMode = UART_SCB_MODE_UNCONFIG;
  40:.\Generated_Source\PSoC4/UART.c ****     uint8 UART_scbEnableWake;
  41:.\Generated_Source\PSoC4/UART.c ****     uint8 UART_scbEnableIntr;
  42:.\Generated_Source\PSoC4/UART.c **** 
  43:.\Generated_Source\PSoC4/UART.c ****     /* I2C config vars */
  44:.\Generated_Source\PSoC4/UART.c ****     uint8 UART_mode;
  45:.\Generated_Source\PSoC4/UART.c ****     uint8 UART_acceptAddr;
  46:.\Generated_Source\PSoC4/UART.c **** 
  47:.\Generated_Source\PSoC4/UART.c ****     /* SPI/UART config vars */
  48:.\Generated_Source\PSoC4/UART.c ****     volatile uint8 * UART_rxBuffer;
  49:.\Generated_Source\PSoC4/UART.c ****     uint8  UART_rxDataBits;
  50:.\Generated_Source\PSoC4/UART.c ****     uint32 UART_rxBufferSize;
  51:.\Generated_Source\PSoC4/UART.c **** 
  52:.\Generated_Source\PSoC4/UART.c ****     volatile uint8 * UART_txBuffer;
  53:.\Generated_Source\PSoC4/UART.c ****     uint8  UART_txDataBits;
  54:.\Generated_Source\PSoC4/UART.c ****     uint32 UART_txBufferSize;
  55:.\Generated_Source\PSoC4/UART.c **** 
  56:.\Generated_Source\PSoC4/UART.c ****     /* EZI2C config vars */
  57:.\Generated_Source\PSoC4/UART.c ****     uint8 UART_numberOfAddr;
  58:.\Generated_Source\PSoC4/UART.c ****     uint8 UART_subAddrSize;
  59:.\Generated_Source\PSoC4/UART.c **** #endif /* (UART_SCB_MODE_UNCONFIG_CONST_CFG) */
  60:.\Generated_Source\PSoC4/UART.c **** 
  61:.\Generated_Source\PSoC4/UART.c **** 
  62:.\Generated_Source\PSoC4/UART.c **** /**********************************
  63:.\Generated_Source\PSoC4/UART.c **** *     Common SCB Vars
  64:.\Generated_Source\PSoC4/UART.c **** **********************************/
  65:.\Generated_Source\PSoC4/UART.c **** 
  66:.\Generated_Source\PSoC4/UART.c **** uint8 UART_initVar = 0u;
  67:.\Generated_Source\PSoC4/UART.c **** cyisraddress UART_customIntrHandler = NULL;
  68:.\Generated_Source\PSoC4/UART.c **** 
  69:.\Generated_Source\PSoC4/UART.c **** 
  70:.\Generated_Source\PSoC4/UART.c **** /***************************************
  71:.\Generated_Source\PSoC4/UART.c **** *    Private Function Prototypes
  72:.\Generated_Source\PSoC4/UART.c **** ***************************************/
  73:.\Generated_Source\PSoC4/UART.c **** 
  74:.\Generated_Source\PSoC4/UART.c **** static void UART_ScbEnableIntr(void);
  75:.\Generated_Source\PSoC4/UART.c **** static void UART_ScbModeStop(void);
  76:.\Generated_Source\PSoC4/UART.c **** 
  77:.\Generated_Source\PSoC4/UART.c **** 
  78:.\Generated_Source\PSoC4/UART.c **** /*******************************************************************************
  79:.\Generated_Source\PSoC4/UART.c **** * Function Name: UART_Init
  80:.\Generated_Source\PSoC4/UART.c **** ********************************************************************************
  81:.\Generated_Source\PSoC4/UART.c **** *
  82:.\Generated_Source\PSoC4/UART.c **** * Summary:
  83:.\Generated_Source\PSoC4/UART.c **** *  Initializes SCB component to operate in one of selected configurations:
  84:.\Generated_Source\PSoC4/UART.c **** *  I2C, SPI, UART, EZI2C or EZSPI.
  85:.\Generated_Source\PSoC4/UART.c **** *  This function does not do any initialization when configuration is set to
  86:.\Generated_Source\PSoC4/UART.c **** *  Unconfigured SCB.
  87:.\Generated_Source\PSoC4/UART.c **** *
  88:.\Generated_Source\PSoC4/UART.c **** * Parameters:
  89:.\Generated_Source\PSoC4/UART.c **** *  None
ARM GAS  C:\Users\vrnk\AppData\Local\Temp\cclmNMWc.s 			page 3


  90:.\Generated_Source\PSoC4/UART.c **** *
  91:.\Generated_Source\PSoC4/UART.c **** * Return:
  92:.\Generated_Source\PSoC4/UART.c **** *  None
  93:.\Generated_Source\PSoC4/UART.c **** *
  94:.\Generated_Source\PSoC4/UART.c **** *******************************************************************************/
  95:.\Generated_Source\PSoC4/UART.c **** void UART_Init(void)
  96:.\Generated_Source\PSoC4/UART.c **** {
  26              		.loc 1 96 0
  27              		.cfi_startproc
  28 0000 08B5     		push	{r3, lr}
  29              	.LCFI0:
  30              		.cfi_def_cfa_offset 8
  31              		.cfi_offset 3, -8
  32              		.cfi_offset 14, -4
  97:.\Generated_Source\PSoC4/UART.c **** #if(UART_SCB_MODE_UNCONFIG_CONST_CFG)
  98:.\Generated_Source\PSoC4/UART.c ****     if(UART_SCB_MODE_UNCONFIG_RUNTM_CFG)
  99:.\Generated_Source\PSoC4/UART.c ****     {
 100:.\Generated_Source\PSoC4/UART.c ****         UART_initVar = 0u; /* Clear init var */
 101:.\Generated_Source\PSoC4/UART.c ****     }
 102:.\Generated_Source\PSoC4/UART.c ****     else
 103:.\Generated_Source\PSoC4/UART.c ****     {
 104:.\Generated_Source\PSoC4/UART.c ****         /* Initialization was done before call */
 105:.\Generated_Source\PSoC4/UART.c ****     }
 106:.\Generated_Source\PSoC4/UART.c **** 
 107:.\Generated_Source\PSoC4/UART.c **** #elif(UART_SCB_MODE_I2C_CONST_CFG)
 108:.\Generated_Source\PSoC4/UART.c ****     UART_I2CInit();
 109:.\Generated_Source\PSoC4/UART.c **** 
 110:.\Generated_Source\PSoC4/UART.c **** #elif(UART_SCB_MODE_SPI_CONST_CFG)
 111:.\Generated_Source\PSoC4/UART.c ****     UART_SpiInit();
 112:.\Generated_Source\PSoC4/UART.c **** 
 113:.\Generated_Source\PSoC4/UART.c **** #elif(UART_SCB_MODE_UART_CONST_CFG)
 114:.\Generated_Source\PSoC4/UART.c ****     UART_UartInit();
  33              		.loc 1 114 0
  34 0002 FFF7FEFF 		bl	UART_UartInit
  35              	.LVL0:
 115:.\Generated_Source\PSoC4/UART.c **** 
 116:.\Generated_Source\PSoC4/UART.c **** #elif(UART_SCB_MODE_EZI2C_CONST_CFG)
 117:.\Generated_Source\PSoC4/UART.c ****     UART_EzI2CInit();
 118:.\Generated_Source\PSoC4/UART.c **** 
 119:.\Generated_Source\PSoC4/UART.c **** #endif /* (UART_SCB_MODE_UNCONFIG_CONST_CFG) */
 120:.\Generated_Source\PSoC4/UART.c **** }
  36              		.loc 1 120 0
  37              		@ sp needed for prologue
  38 0006 08BD     		pop	{r3, pc}
  39              		.cfi_endproc
  40              	.LFE0:
  41              		.size	UART_Init, .-UART_Init
  42              		.section	.text.UART_Enable,"ax",%progbits
  43              		.align	1
  44              		.global	UART_Enable
  45              		.code	16
  46              		.thumb_func
  47              		.type	UART_Enable, %function
  48              	UART_Enable:
  49              	.LFB1:
 121:.\Generated_Source\PSoC4/UART.c **** 
 122:.\Generated_Source\PSoC4/UART.c **** 
ARM GAS  C:\Users\vrnk\AppData\Local\Temp\cclmNMWc.s 			page 4


 123:.\Generated_Source\PSoC4/UART.c **** /*******************************************************************************
 124:.\Generated_Source\PSoC4/UART.c **** * Function Name: UART_Enable
 125:.\Generated_Source\PSoC4/UART.c **** ********************************************************************************
 126:.\Generated_Source\PSoC4/UART.c **** *
 127:.\Generated_Source\PSoC4/UART.c **** * Summary:
 128:.\Generated_Source\PSoC4/UART.c **** *  Enables SCB component operation.
 129:.\Generated_Source\PSoC4/UART.c **** *  The SCB configuration should be not changed when the component is enabled.
 130:.\Generated_Source\PSoC4/UART.c **** *  Any configuration changes should be made after disabling the component.
 131:.\Generated_Source\PSoC4/UART.c **** *
 132:.\Generated_Source\PSoC4/UART.c **** * Parameters:
 133:.\Generated_Source\PSoC4/UART.c **** *  None
 134:.\Generated_Source\PSoC4/UART.c **** *
 135:.\Generated_Source\PSoC4/UART.c **** * Return:
 136:.\Generated_Source\PSoC4/UART.c **** *  None
 137:.\Generated_Source\PSoC4/UART.c **** *
 138:.\Generated_Source\PSoC4/UART.c **** *******************************************************************************/
 139:.\Generated_Source\PSoC4/UART.c **** void UART_Enable(void)
 140:.\Generated_Source\PSoC4/UART.c **** {
  50              		.loc 1 140 0
  51              		.cfi_startproc
  52 0000 08B5     		push	{r3, lr}
  53              	.LCFI1:
  54              		.cfi_def_cfa_offset 8
  55              		.cfi_offset 3, -8
  56              		.cfi_offset 14, -4
 141:.\Generated_Source\PSoC4/UART.c **** #if(UART_SCB_MODE_UNCONFIG_CONST_CFG)
 142:.\Generated_Source\PSoC4/UART.c ****     if(!UART_SCB_MODE_UNCONFIG_RUNTM_CFG)
 143:.\Generated_Source\PSoC4/UART.c ****     {
 144:.\Generated_Source\PSoC4/UART.c ****         /* Enable SCB block, only if already configured */
 145:.\Generated_Source\PSoC4/UART.c ****         UART_CTRL_REG |= UART_CTRL_ENABLED;
 146:.\Generated_Source\PSoC4/UART.c ****         
 147:.\Generated_Source\PSoC4/UART.c ****         /* Enable interrupt */
 148:.\Generated_Source\PSoC4/UART.c ****         UART_ScbEnableIntr();
 149:.\Generated_Source\PSoC4/UART.c ****     }
 150:.\Generated_Source\PSoC4/UART.c **** #else
 151:.\Generated_Source\PSoC4/UART.c ****     UART_CTRL_REG |= UART_CTRL_ENABLED; /* Enable SCB block */
  57              		.loc 1 151 0
  58 0002 044B     		ldr	r3, .L3
  59 0004 8022     		mov	r2, #128
  60 0006 1968     		ldr	r1, [r3]
  61 0008 1006     		lsl	r0, r2, #24
  62 000a 0843     		orr	r0, r1
  63 000c 1860     		str	r0, [r3]
  64              	.LBB8:
  65              	.LBB9:
 152:.\Generated_Source\PSoC4/UART.c ****     
 153:.\Generated_Source\PSoC4/UART.c ****     UART_ScbEnableIntr();
 154:.\Generated_Source\PSoC4/UART.c **** #endif /* (UART_SCB_MODE_UNCONFIG_CONST_CFG) */
 155:.\Generated_Source\PSoC4/UART.c **** }
 156:.\Generated_Source\PSoC4/UART.c **** 
 157:.\Generated_Source\PSoC4/UART.c **** 
 158:.\Generated_Source\PSoC4/UART.c **** /*******************************************************************************
 159:.\Generated_Source\PSoC4/UART.c **** * Function Name: UART_Start
 160:.\Generated_Source\PSoC4/UART.c **** ********************************************************************************
 161:.\Generated_Source\PSoC4/UART.c **** *
 162:.\Generated_Source\PSoC4/UART.c **** * Summary:
 163:.\Generated_Source\PSoC4/UART.c **** *  Invokes SCB_Init() and SCB_Enable().
ARM GAS  C:\Users\vrnk\AppData\Local\Temp\cclmNMWc.s 			page 5


 164:.\Generated_Source\PSoC4/UART.c **** *  After this function call the component is enabled and ready for operation.
 165:.\Generated_Source\PSoC4/UART.c **** *
 166:.\Generated_Source\PSoC4/UART.c **** * Parameters:
 167:.\Generated_Source\PSoC4/UART.c **** *  None
 168:.\Generated_Source\PSoC4/UART.c **** *
 169:.\Generated_Source\PSoC4/UART.c **** * Return:
 170:.\Generated_Source\PSoC4/UART.c **** *  None
 171:.\Generated_Source\PSoC4/UART.c **** *
 172:.\Generated_Source\PSoC4/UART.c **** * Global variables:
 173:.\Generated_Source\PSoC4/UART.c **** *  UART_initVar - used to check initial configuration, modified
 174:.\Generated_Source\PSoC4/UART.c **** *  on first function call.
 175:.\Generated_Source\PSoC4/UART.c **** *
 176:.\Generated_Source\PSoC4/UART.c **** *******************************************************************************/
 177:.\Generated_Source\PSoC4/UART.c **** void UART_Start(void)
 178:.\Generated_Source\PSoC4/UART.c **** {
 179:.\Generated_Source\PSoC4/UART.c ****     if(0u == UART_initVar)
 180:.\Generated_Source\PSoC4/UART.c ****     {
 181:.\Generated_Source\PSoC4/UART.c ****         UART_initVar = 1u; /* Component was initialized */
 182:.\Generated_Source\PSoC4/UART.c ****         UART_Init();       /* Initialize component      */
 183:.\Generated_Source\PSoC4/UART.c ****     }
 184:.\Generated_Source\PSoC4/UART.c **** 
 185:.\Generated_Source\PSoC4/UART.c ****     UART_Enable();
 186:.\Generated_Source\PSoC4/UART.c **** }
 187:.\Generated_Source\PSoC4/UART.c **** 
 188:.\Generated_Source\PSoC4/UART.c **** 
 189:.\Generated_Source\PSoC4/UART.c **** /*******************************************************************************
 190:.\Generated_Source\PSoC4/UART.c **** * Function Name: UART_Stop
 191:.\Generated_Source\PSoC4/UART.c **** ********************************************************************************
 192:.\Generated_Source\PSoC4/UART.c **** *
 193:.\Generated_Source\PSoC4/UART.c **** * Summary:
 194:.\Generated_Source\PSoC4/UART.c **** *  Disables the SCB component.
 195:.\Generated_Source\PSoC4/UART.c **** *
 196:.\Generated_Source\PSoC4/UART.c **** * Parameters:
 197:.\Generated_Source\PSoC4/UART.c **** *  None
 198:.\Generated_Source\PSoC4/UART.c **** *
 199:.\Generated_Source\PSoC4/UART.c **** * Return:
 200:.\Generated_Source\PSoC4/UART.c **** *  None
 201:.\Generated_Source\PSoC4/UART.c **** *
 202:.\Generated_Source\PSoC4/UART.c **** *******************************************************************************/
 203:.\Generated_Source\PSoC4/UART.c **** void UART_Stop(void)
 204:.\Generated_Source\PSoC4/UART.c **** {
 205:.\Generated_Source\PSoC4/UART.c **** #if(UART_SCB_IRQ_INTERNAL)
 206:.\Generated_Source\PSoC4/UART.c ****     UART_SCB_IRQ_Disable();     /* Disable interrupt before block */
 207:.\Generated_Source\PSoC4/UART.c **** #endif /* (UART_SCB_IRQ_INTERNAL) */
 208:.\Generated_Source\PSoC4/UART.c **** 
 209:.\Generated_Source\PSoC4/UART.c ****     UART_CTRL_REG &= (uint32) ~UART_CTRL_ENABLED;  /* Disable SCB block */
 210:.\Generated_Source\PSoC4/UART.c **** 
 211:.\Generated_Source\PSoC4/UART.c **** #if(UART_SCB_IRQ_INTERNAL)
 212:.\Generated_Source\PSoC4/UART.c ****     UART_SCB_IRQ_ClearPending(); /* Clear pending interrupt */
 213:.\Generated_Source\PSoC4/UART.c **** #endif /* (UART_SCB_IRQ_INTERNAL) */
 214:.\Generated_Source\PSoC4/UART.c ****     
 215:.\Generated_Source\PSoC4/UART.c ****     UART_ScbModeStop(); /* Calls scbMode specific Stop function */
 216:.\Generated_Source\PSoC4/UART.c **** }
 217:.\Generated_Source\PSoC4/UART.c **** 
 218:.\Generated_Source\PSoC4/UART.c **** 
 219:.\Generated_Source\PSoC4/UART.c **** /*******************************************************************************
 220:.\Generated_Source\PSoC4/UART.c **** * Function Name: UART_SetCustomInterruptHandler
ARM GAS  C:\Users\vrnk\AppData\Local\Temp\cclmNMWc.s 			page 6


 221:.\Generated_Source\PSoC4/UART.c **** ********************************************************************************
 222:.\Generated_Source\PSoC4/UART.c **** *
 223:.\Generated_Source\PSoC4/UART.c **** * Summary:
 224:.\Generated_Source\PSoC4/UART.c **** *  Registers a function to be called by the internal interrupt handler.
 225:.\Generated_Source\PSoC4/UART.c **** *  First the function that is registered is called, then the internal interrupt
 226:.\Generated_Source\PSoC4/UART.c **** *  handler performs any operations such as software buffer management functions
 227:.\Generated_Source\PSoC4/UART.c **** *  before the interrupt returns.  It is user's responsibility to not break the
 228:.\Generated_Source\PSoC4/UART.c **** *  software buffer operations. Only one custom handler is supported, which is
 229:.\Generated_Source\PSoC4/UART.c **** *  the function provided by the most recent call.
 230:.\Generated_Source\PSoC4/UART.c **** *  At initialization time no custom handler is registered.
 231:.\Generated_Source\PSoC4/UART.c **** *
 232:.\Generated_Source\PSoC4/UART.c **** * Parameters:
 233:.\Generated_Source\PSoC4/UART.c **** *  func: Pointer to the function to register.
 234:.\Generated_Source\PSoC4/UART.c **** *        The value NULL indicates to remove the current custom interrupt
 235:.\Generated_Source\PSoC4/UART.c **** *        handler.
 236:.\Generated_Source\PSoC4/UART.c **** *
 237:.\Generated_Source\PSoC4/UART.c **** * Return:
 238:.\Generated_Source\PSoC4/UART.c **** *  None
 239:.\Generated_Source\PSoC4/UART.c **** *
 240:.\Generated_Source\PSoC4/UART.c **** *******************************************************************************/
 241:.\Generated_Source\PSoC4/UART.c **** void UART_SetCustomInterruptHandler(cyisraddress func)
 242:.\Generated_Source\PSoC4/UART.c **** {
 243:.\Generated_Source\PSoC4/UART.c ****     UART_customIntrHandler = func; /* Register interrupt handler */
 244:.\Generated_Source\PSoC4/UART.c **** }
 245:.\Generated_Source\PSoC4/UART.c **** 
 246:.\Generated_Source\PSoC4/UART.c **** 
 247:.\Generated_Source\PSoC4/UART.c **** /*******************************************************************************
 248:.\Generated_Source\PSoC4/UART.c **** * Function Name: UART_ScbModeEnableIntr
 249:.\Generated_Source\PSoC4/UART.c **** ********************************************************************************
 250:.\Generated_Source\PSoC4/UART.c **** *
 251:.\Generated_Source\PSoC4/UART.c **** * Summary:
 252:.\Generated_Source\PSoC4/UART.c **** *  Enables interrupt for specific mode.
 253:.\Generated_Source\PSoC4/UART.c **** *
 254:.\Generated_Source\PSoC4/UART.c **** * Parameters:
 255:.\Generated_Source\PSoC4/UART.c **** *  None
 256:.\Generated_Source\PSoC4/UART.c **** *
 257:.\Generated_Source\PSoC4/UART.c **** * Return:
 258:.\Generated_Source\PSoC4/UART.c **** *  None
 259:.\Generated_Source\PSoC4/UART.c **** *
 260:.\Generated_Source\PSoC4/UART.c **** *******************************************************************************/
 261:.\Generated_Source\PSoC4/UART.c **** static void UART_ScbEnableIntr(void)
 262:.\Generated_Source\PSoC4/UART.c **** {
 263:.\Generated_Source\PSoC4/UART.c **** #if(UART_SCB_IRQ_INTERNAL)
 264:.\Generated_Source\PSoC4/UART.c ****     #if(UART_SCB_MODE_UNCONFIG_CONST_CFG)
 265:.\Generated_Source\PSoC4/UART.c ****         /* Enable interrupt source */
 266:.\Generated_Source\PSoC4/UART.c ****         if(0u != UART_scbEnableIntr)
 267:.\Generated_Source\PSoC4/UART.c ****         {
 268:.\Generated_Source\PSoC4/UART.c ****             UART_SCB_IRQ_Enable();
 269:.\Generated_Source\PSoC4/UART.c ****         }
 270:.\Generated_Source\PSoC4/UART.c ****     #else
 271:.\Generated_Source\PSoC4/UART.c ****         UART_SCB_IRQ_Enable();
  66              		.loc 1 271 0
  67 000e FFF7FEFF 		bl	UART_SCB_IRQ_Enable
  68              	.LVL1:
  69              	.LBE9:
  70              	.LBE8:
 155:.\Generated_Source\PSoC4/UART.c **** }
ARM GAS  C:\Users\vrnk\AppData\Local\Temp\cclmNMWc.s 			page 7


  71              		.loc 1 155 0
  72              		@ sp needed for prologue
  73 0012 08BD     		pop	{r3, pc}
  74              	.L4:
  75              		.align	2
  76              	.L3:
  77 0014 00000640 		.word	1074135040
  78              		.cfi_endproc
  79              	.LFE1:
  80              		.size	UART_Enable, .-UART_Enable
  81              		.section	.text.UART_Start,"ax",%progbits
  82              		.align	1
  83              		.global	UART_Start
  84              		.code	16
  85              		.thumb_func
  86              		.type	UART_Start, %function
  87              	UART_Start:
  88              	.LFB2:
 178:.\Generated_Source\PSoC4/UART.c **** {
  89              		.loc 1 178 0
  90              		.cfi_startproc
  91 0000 08B5     		push	{r3, lr}
  92              	.LCFI2:
  93              		.cfi_def_cfa_offset 8
  94              		.cfi_offset 3, -8
  95              		.cfi_offset 14, -4
 179:.\Generated_Source\PSoC4/UART.c ****     if(0u == UART_initVar)
  96              		.loc 1 179 0
  97 0002 054B     		ldr	r3, .L8
  98 0004 1A78     		ldrb	r2, [r3]
  99 0006 002A     		cmp	r2, #0
 100 0008 03D1     		bne	.L6
 181:.\Generated_Source\PSoC4/UART.c ****         UART_initVar = 1u; /* Component was initialized */
 101              		.loc 1 181 0
 102 000a 0120     		mov	r0, #1
 103 000c 1870     		strb	r0, [r3]
 104              	.LBB10:
 105              	.LBB11:
 114:.\Generated_Source\PSoC4/UART.c ****     UART_UartInit();
 106              		.loc 1 114 0
 107 000e FFF7FEFF 		bl	UART_UartInit
 108              	.LVL2:
 109              	.L6:
 110              	.LBE11:
 111              	.LBE10:
 185:.\Generated_Source\PSoC4/UART.c ****     UART_Enable();
 112              		.loc 1 185 0
 113 0012 FFF7FEFF 		bl	UART_Enable
 114              	.LVL3:
 186:.\Generated_Source\PSoC4/UART.c **** }
 115              		.loc 1 186 0
 116              		@ sp needed for prologue
 117 0016 08BD     		pop	{r3, pc}
 118              	.L9:
 119              		.align	2
 120              	.L8:
 121 0018 00000000 		.word	.LANCHOR0
ARM GAS  C:\Users\vrnk\AppData\Local\Temp\cclmNMWc.s 			page 8


 122              		.cfi_endproc
 123              	.LFE2:
 124              		.size	UART_Start, .-UART_Start
 125              		.section	.text.UART_Stop,"ax",%progbits
 126              		.align	1
 127              		.global	UART_Stop
 128              		.code	16
 129              		.thumb_func
 130              		.type	UART_Stop, %function
 131              	UART_Stop:
 132              	.LFB3:
 204:.\Generated_Source\PSoC4/UART.c **** {
 133              		.loc 1 204 0
 134              		.cfi_startproc
 135 0000 08B5     		push	{r3, lr}
 136              	.LCFI3:
 137              		.cfi_def_cfa_offset 8
 138              		.cfi_offset 3, -8
 139              		.cfi_offset 14, -4
 206:.\Generated_Source\PSoC4/UART.c ****     UART_SCB_IRQ_Disable();     /* Disable interrupt before block */
 140              		.loc 1 206 0
 141 0002 FFF7FEFF 		bl	UART_SCB_IRQ_Disable
 142              	.LVL4:
 209:.\Generated_Source\PSoC4/UART.c ****     UART_CTRL_REG &= (uint32) ~UART_CTRL_ENABLED;  /* Disable SCB block */
 143              		.loc 1 209 0
 144 0006 044B     		ldr	r3, .L11
 216:.\Generated_Source\PSoC4/UART.c **** }
 145              		.loc 1 216 0
 146              		@ sp needed for prologue
 209:.\Generated_Source\PSoC4/UART.c ****     UART_CTRL_REG &= (uint32) ~UART_CTRL_ENABLED;  /* Disable SCB block */
 147              		.loc 1 209 0
 148 0008 1A68     		ldr	r2, [r3]
 149 000a 5000     		lsl	r0, r2, #1
 150 000c 4108     		lsr	r1, r0, #1
 151 000e 1960     		str	r1, [r3]
 212:.\Generated_Source\PSoC4/UART.c ****     UART_SCB_IRQ_ClearPending(); /* Clear pending interrupt */
 152              		.loc 1 212 0
 153 0010 FFF7FEFF 		bl	UART_SCB_IRQ_ClearPending
 154              	.LVL5:
 216:.\Generated_Source\PSoC4/UART.c **** }
 155              		.loc 1 216 0
 156 0014 08BD     		pop	{r3, pc}
 157              	.L12:
 158 0016 C046     		.align	2
 159              	.L11:
 160 0018 00000640 		.word	1074135040
 161              		.cfi_endproc
 162              	.LFE3:
 163              		.size	UART_Stop, .-UART_Stop
 164              		.section	.text.UART_SetCustomInterruptHandler,"ax",%progbits
 165              		.align	1
 166              		.global	UART_SetCustomInterruptHandler
 167              		.code	16
 168              		.thumb_func
 169              		.type	UART_SetCustomInterruptHandler, %function
 170              	UART_SetCustomInterruptHandler:
 171              	.LFB4:
ARM GAS  C:\Users\vrnk\AppData\Local\Temp\cclmNMWc.s 			page 9


 242:.\Generated_Source\PSoC4/UART.c **** {
 172              		.loc 1 242 0
 173              		.cfi_startproc
 174              	.LVL6:
 243:.\Generated_Source\PSoC4/UART.c ****     UART_customIntrHandler = func; /* Register interrupt handler */
 175              		.loc 1 243 0
 176 0000 014B     		ldr	r3, .L14
 244:.\Generated_Source\PSoC4/UART.c **** }
 177              		.loc 1 244 0
 178              		@ sp needed for prologue
 243:.\Generated_Source\PSoC4/UART.c ****     UART_customIntrHandler = func; /* Register interrupt handler */
 179              		.loc 1 243 0
 180 0002 5860     		str	r0, [r3, #4]
 244:.\Generated_Source\PSoC4/UART.c **** }
 181              		.loc 1 244 0
 182 0004 7047     		bx	lr
 183              	.L15:
 184 0006 C046     		.align	2
 185              	.L14:
 186 0008 00000000 		.word	.LANCHOR0
 187              		.cfi_endproc
 188              	.LFE4:
 189              		.size	UART_SetCustomInterruptHandler, .-UART_SetCustomInterruptHandler
 190              		.global	UART_customIntrHandler
 191              		.global	UART_initVar
 192              		.bss
 193              		.align	2
 194              		.set	.LANCHOR0,. + 0
 195              		.type	UART_initVar, %object
 196              		.size	UART_initVar, 1
 197              	UART_initVar:
 198 0000 00       		.space	1
 199 0001 000000   		.space	3
 200              		.type	UART_customIntrHandler, %object
 201              		.size	UART_customIntrHandler, 4
 202              	UART_customIntrHandler:
 203 0004 00000000 		.space	4
 204              		.text
 205              	.Letext0:
 206              		.file 2 ".\\Generated_Source\\PSoC4\\cytypes.h"
 207              		.file 3 ".\\Generated_Source\\PSoC4\\UART_SPI_UART_PVT.h"
 208              		.file 4 ".\\Generated_Source\\PSoC4\\UART_SCB_IRQ.h"