ARM GAS  C:\Users\vrnk\AppData\Local\Temp\ccqpvOyE.s 			page 1


   1              		.cpu cortex-m0
   2              		.fpu softvfp
   3              		.eabi_attribute 20, 1
   4              		.eabi_attribute 21, 1
   5              		.eabi_attribute 23, 3
   6              		.eabi_attribute 24, 1
   7              		.eabi_attribute 25, 1
   8              		.eabi_attribute 26, 1
   9              		.eabi_attribute 30, 4
  10              		.eabi_attribute 34, 0
  11              		.eabi_attribute 18, 4
  12              		.code	16
  13              		.file	"UART_Btldr.c"
  14              		.text
  15              	.Ltext0:
  16              		.cfi_sections	.debug_frame
  17              		.section	.text.CyBtldrCommStart,"ax",%progbits
  18              		.align	1
  19              		.global	CyBtldrCommStart
  20              		.code	16
  21              		.thumb_func
  22              		.type	CyBtldrCommStart, %function
  23              	CyBtldrCommStart:
  24              	.LFB33:
  25              		.file 1 ".\\UART_Btldr.c"
   1:.\UART_Btldr.c **** /******************************************************************************
   2:.\UART_Btldr.c **** * Project Name		: UART_Bootloader
   3:.\UART_Btldr.c **** * File Name			: UART_Btldr.c
   4:.\UART_Btldr.c **** * Version 			: 1.0
   5:.\UART_Btldr.c **** * Device Used		: CY8C4245AXI-483
   6:.\UART_Btldr.c **** * Software Used		: PSoC Creator 3.0
   7:.\UART_Btldr.c **** * Compiler    		: ARMGCC 4.7.3, ARM RVDS Generic, ARM MDK Generic
   8:.\UART_Btldr.c **** * Related Hardware	: CY8CKIT-049-42xx PSoC 4 Prototyping Kit 
   9:.\UART_Btldr.c **** *
  10:.\UART_Btldr.c **** ********************************************************************************
  11:.\UART_Btldr.c **** * Copyright (2014), Cypress Semiconductor Corporation. All Rights Reserved.
  12:.\UART_Btldr.c **** ********************************************************************************
  13:.\UART_Btldr.c **** * This software is owned by Cypress Semiconductor Corporation (Cypress)
  14:.\UART_Btldr.c **** * and is protected by and subject to worldwide patent protection (United
  15:.\UART_Btldr.c **** * States and foreign), United States copyright laws and international treaty
  16:.\UART_Btldr.c **** * provisions. Cypress hereby grants to licensee a personal, non-exclusive,
  17:.\UART_Btldr.c **** * non-transferable license to copy, use, modify, create derivative works of,
  18:.\UART_Btldr.c **** * and compile the Cypress Source Code and derivative works for the sole
  19:.\UART_Btldr.c **** * purpose of creating custom software in support of licensee product to be
  20:.\UART_Btldr.c **** * used only in conjunction with a Cypress integrated circuit as specified in
  21:.\UART_Btldr.c **** * the applicable agreement. Any reproduction, modification, translation,
  22:.\UART_Btldr.c **** * compilation, or representation of this software except as specified above 
  23:.\UART_Btldr.c **** * is prohibited without the express written permission of Cypress.
  24:.\UART_Btldr.c **** *
  25:.\UART_Btldr.c **** * Disclaimer: CYPRESS MAKES NO WARRANTY OF ANY KIND, EXPRESS OR IMPLIED, WITH 
  26:.\UART_Btldr.c **** * REGARD TO THIS MATERIAL, INCLUDING, BUT NOT LIMITED TO, THE IMPLIED 
  27:.\UART_Btldr.c **** * WARRANTIES OF MERCHANTABILITY AND FITNESS FOR A PARTICULAR PURPOSE.
  28:.\UART_Btldr.c **** * Cypress reserves the right to make changes without further notice to the 
  29:.\UART_Btldr.c **** * materials described herein. Cypress does not assume any liability arising out 
  30:.\UART_Btldr.c **** * of the application or use of any product or circuit described herein. Cypress 
  31:.\UART_Btldr.c **** * does not authorize its products for use as critical components in life-support 
  32:.\UART_Btldr.c **** * systems where a malfunction or failure may reasonably be expected to result in 
ARM GAS  C:\Users\vrnk\AppData\Local\Temp\ccqpvOyE.s 			page 2


  33:.\UART_Btldr.c **** * significant injury to the user. The inclusion of Cypress' product in a life-
  34:.\UART_Btldr.c **** * support systems application implies that the manufacturer assumes all risk of 
  35:.\UART_Btldr.c **** * such use and in doing so indemnifies Cypress against all charges. 
  36:.\UART_Btldr.c **** *
  37:.\UART_Btldr.c **** * Use of this Software may be limited by and subject to the applicable Cypress
  38:.\UART_Btldr.c **** * software license agreement. 
  39:.\UART_Btldr.c **** *******************************************************************************/
  40:.\UART_Btldr.c **** /*******************************************************************************
  41:.\UART_Btldr.c **** * Description:
  42:.\UART_Btldr.c **** * This file contains the bootloader communication functions implemented using 
  43:.\UART_Btldr.c **** * UART. Some portion of this code depends on the code placed in UART receive 
  44:.\UART_Btldr.c **** * interrupt routine in main.c file.
  45:.\UART_Btldr.c **** ********************************************************************************/
  46:.\UART_Btldr.c **** 
  47:.\UART_Btldr.c **** #include "UART.h" 
  48:.\UART_Btldr.c **** #include "project.h"
  49:.\UART_Btldr.c **** 
  50:.\UART_Btldr.c **** /* Byte to Byte time out in ms for detecting end of block data from host*/
  51:.\UART_Btldr.c **** #define BYTE2BYTE_TIME_OUT 2
  52:.\UART_Btldr.c **** 
  53:.\UART_Btldr.c **** #define BTLDR_SIZEOF_READ_BUFFER 0xff
  54:.\UART_Btldr.c **** #define BTLDR_SIZEOF_WRITE_BUFFER 0xff
  55:.\UART_Btldr.c **** #define END_OF_PACKET 0x17
  56:.\UART_Btldr.c **** 
  57:.\UART_Btldr.c **** /***************************************
  58:.\UART_Btldr.c **** *Global variables
  59:.\UART_Btldr.c **** ***************************************/
  60:.\UART_Btldr.c **** 
  61:.\UART_Btldr.c **** /* UART receive data count variable  */
  62:.\UART_Btldr.c **** volatile uint16 receivedDataCount=0;
  63:.\UART_Btldr.c **** 
  64:.\UART_Btldr.c **** /*******************************************************************************
  65:.\UART_Btldr.c **** * Function Name: CyBtldrCommStart
  66:.\UART_Btldr.c **** ********************************************************************************
  67:.\UART_Btldr.c **** *
  68:.\UART_Btldr.c **** * Summary:
  69:.\UART_Btldr.c **** *  Starts the UART communication component 
  70:.\UART_Btldr.c **** *
  71:.\UART_Btldr.c **** * Parameters:  
  72:.\UART_Btldr.c **** *  void
  73:.\UART_Btldr.c **** *
  74:.\UART_Btldr.c **** * Return: 
  75:.\UART_Btldr.c **** *  void 
  76:.\UART_Btldr.c **** *
  77:.\UART_Btldr.c **** * Side Effects:
  78:.\UART_Btldr.c **** *   None  
  79:.\UART_Btldr.c **** *
  80:.\UART_Btldr.c **** *******************************************************************************/
  81:.\UART_Btldr.c **** void CyBtldrCommStart(void)
  82:.\UART_Btldr.c **** {        
  26              		.loc 1 82 0
  27              		.cfi_startproc
  28 0000 08B5     		push	{r3, lr}
  29              	.LCFI0:
  30              		.cfi_def_cfa_offset 8
  31              		.cfi_offset 3, -8
  32              		.cfi_offset 14, -4
ARM GAS  C:\Users\vrnk\AppData\Local\Temp\ccqpvOyE.s 			page 3


  83:.\UART_Btldr.c **** 	/* Start UART component and clear the TX,RX buffers */
  84:.\UART_Btldr.c **** 	UART_Start();
  33              		.loc 1 84 0
  34 0002 FFF7FEFF 		bl	UART_Start
  35              	.LVL0:
  85:.\UART_Btldr.c **** 	UART_SpiUartClearRxBuffer();
  86:.\UART_Btldr.c **** 	UART_SpiUartClearTxBuffer();
  87:.\UART_Btldr.c **** }
  36              		.loc 1 87 0
  37              		@ sp needed for prologue
  85:.\UART_Btldr.c **** 	UART_SpiUartClearRxBuffer();
  38              		.loc 1 85 0
  39 0006 FFF7FEFF 		bl	UART_SpiUartClearRxBuffer
  40              	.LVL1:
  86:.\UART_Btldr.c **** 	UART_SpiUartClearTxBuffer();
  41              		.loc 1 86 0
  42 000a FFF7FEFF 		bl	UART_SpiUartClearTxBuffer
  43              	.LVL2:
  44              		.loc 1 87 0
  45 000e 08BD     		pop	{r3, pc}
  46              		.cfi_endproc
  47              	.LFE33:
  48              		.size	CyBtldrCommStart, .-CyBtldrCommStart
  49              		.section	.text.CyBtldrCommStop,"ax",%progbits
  50              		.align	1
  51              		.global	CyBtldrCommStop
  52              		.code	16
  53              		.thumb_func
  54              		.type	CyBtldrCommStop, %function
  55              	CyBtldrCommStop:
  56              	.LFB34:
  88:.\UART_Btldr.c **** 
  89:.\UART_Btldr.c **** /*******************************************************************************
  90:.\UART_Btldr.c **** * Function Name: CyBtldrCommStop
  91:.\UART_Btldr.c **** ********************************************************************************
  92:.\UART_Btldr.c **** *
  93:.\UART_Btldr.c **** * Summary:
  94:.\UART_Btldr.c **** *  Disable the component.
  95:.\UART_Btldr.c **** *
  96:.\UART_Btldr.c **** * Parameters:  
  97:.\UART_Btldr.c **** *  void 
  98:.\UART_Btldr.c **** *
  99:.\UART_Btldr.c **** * Return: 
 100:.\UART_Btldr.c **** *  void 
 101:.\UART_Btldr.c **** *
 102:.\UART_Btldr.c **** *******************************************************************************/
 103:.\UART_Btldr.c **** void CyBtldrCommStop(void) 
 104:.\UART_Btldr.c **** {
  57              		.loc 1 104 0
  58              		.cfi_startproc
  59 0000 08B5     		push	{r3, lr}
  60              	.LCFI1:
  61              		.cfi_def_cfa_offset 8
  62              		.cfi_offset 3, -8
  63              		.cfi_offset 14, -4
 105:.\UART_Btldr.c ****     /* Stop UART */
 106:.\UART_Btldr.c ****     UART_Stop();
ARM GAS  C:\Users\vrnk\AppData\Local\Temp\ccqpvOyE.s 			page 4


  64              		.loc 1 106 0
  65 0002 FFF7FEFF 		bl	UART_Stop
  66              	.LVL3:
 107:.\UART_Btldr.c **** }
  67              		.loc 1 107 0
  68              		@ sp needed for prologue
  69 0006 08BD     		pop	{r3, pc}
  70              		.cfi_endproc
  71              	.LFE34:
  72              		.size	CyBtldrCommStop, .-CyBtldrCommStop
  73              		.section	.text.CyBtldrCommReset,"ax",%progbits
  74              		.align	1
  75              		.global	CyBtldrCommReset
  76              		.code	16
  77              		.thumb_func
  78              		.type	CyBtldrCommReset, %function
  79              	CyBtldrCommReset:
  80              	.LFB35:
 108:.\UART_Btldr.c **** 
 109:.\UART_Btldr.c **** /*******************************************************************************
 110:.\UART_Btldr.c **** * Function Name: CyBtldrCommReset
 111:.\UART_Btldr.c **** ********************************************************************************
 112:.\UART_Btldr.c **** *
 113:.\UART_Btldr.c **** * Summary:
 114:.\UART_Btldr.c **** *  Resets the receive and transmit communication Buffers.
 115:.\UART_Btldr.c **** *
 116:.\UART_Btldr.c **** * Parameters:  
 117:.\UART_Btldr.c **** *  void 
 118:.\UART_Btldr.c **** *
 119:.\UART_Btldr.c **** * Return: 
 120:.\UART_Btldr.c **** *  void 
 121:.\UART_Btldr.c **** *
 122:.\UART_Btldr.c **** * Side Effects:
 123:.\UART_Btldr.c **** *  
 124:.\UART_Btldr.c **** *******************************************************************************/
 125:.\UART_Btldr.c **** void CyBtldrCommReset(void)
 126:.\UART_Btldr.c **** {
  81              		.loc 1 126 0
  82              		.cfi_startproc
  83 0000 08B5     		push	{r3, lr}
  84              	.LCFI2:
  85              		.cfi_def_cfa_offset 8
  86              		.cfi_offset 3, -8
  87              		.cfi_offset 14, -4
 127:.\UART_Btldr.c ****     /* Clear RX and TX buffers */
 128:.\UART_Btldr.c ****     UART_SpiUartClearRxBuffer();
  88              		.loc 1 128 0
  89 0002 FFF7FEFF 		bl	UART_SpiUartClearRxBuffer
  90              	.LVL4:
 129:.\UART_Btldr.c ****     UART_SpiUartClearTxBuffer();
 130:.\UART_Btldr.c **** }
  91              		.loc 1 130 0
  92              		@ sp needed for prologue
 129:.\UART_Btldr.c ****     UART_SpiUartClearTxBuffer();
  93              		.loc 1 129 0
  94 0006 FFF7FEFF 		bl	UART_SpiUartClearTxBuffer
  95              	.LVL5:
ARM GAS  C:\Users\vrnk\AppData\Local\Temp\ccqpvOyE.s 			page 5


  96              		.loc 1 130 0
  97 000a 08BD     		pop	{r3, pc}
  98              		.cfi_endproc
  99              	.LFE35:
 100              		.size	CyBtldrCommReset, .-CyBtldrCommReset
 101              		.section	.text.CyBtldrCommWrite,"ax",%progbits
 102              		.align	1
 103              		.global	CyBtldrCommWrite
 104              		.code	16
 105              		.thumb_func
 106              		.type	CyBtldrCommWrite, %function
 107              	CyBtldrCommWrite:
 108              	.LFB36:
 131:.\UART_Btldr.c **** 
 132:.\UART_Btldr.c **** /*******************************************************************************
 133:.\UART_Btldr.c **** * Function Name: CyBtldrCommWrite
 134:.\UART_Btldr.c **** ********************************************************************************
 135:.\UART_Btldr.c **** *
 136:.\UART_Btldr.c **** * Summary:
 137:.\UART_Btldr.c **** *  Allows the caller to write data to the bootloader host. This function uses 
 138:.\UART_Btldr.c **** * a block write function for writing data using UART communication component. 
 139:.\UART_Btldr.c **** *
 140:.\UART_Btldr.c **** * Parameters:
 141:.\UART_Btldr.c **** *  pData:    A pointer to the block of data to send to the device
 142:.\UART_Btldr.c **** *  size:     The number of bytes to write.
 143:.\UART_Btldr.c **** *  count:    Pointer to an unsigned short variable to write the number of
 144:.\UART_Btldr.c **** *             bytes actually written.
 145:.\UART_Btldr.c **** *  timeOut:  Number of units to wait before returning because of a timeout.
 146:.\UART_Btldr.c **** *
 147:.\UART_Btldr.c **** * Return: 
 148:.\UART_Btldr.c **** *   cystatus: This function will return CYRET_SUCCESS if data is sent successfully.
 149:.\UART_Btldr.c **** *
 150:.\UART_Btldr.c **** * Side Effects:
 151:.\UART_Btldr.c **** *  This function should be called after command was received .
 152:.\UART_Btldr.c **** *
 153:.\UART_Btldr.c **** *******************************************************************************/
 154:.\UART_Btldr.c **** cystatus CyBtldrCommWrite(uint8 * pData, uint16 Size, uint16 * Count, uint8 TimeOut)
 155:.\UART_Btldr.c **** {
 109              		.loc 1 155 0
 110              		.cfi_startproc
 111              	.LVL6:
 112 0000 70B5     		push	{r4, r5, r6, lr}
 113              	.LCFI3:
 114              		.cfi_def_cfa_offset 16
 115              		.cfi_offset 4, -16
 116              		.cfi_offset 5, -12
 117              		.cfi_offset 6, -8
 118              		.cfi_offset 14, -4
 156:.\UART_Btldr.c ****     cystatus status = CYRET_EMPTY;
 157:.\UART_Btldr.c **** 	
 158:.\UART_Btldr.c ****     uint8 timeOutms = TimeOut; /* This timeout is not used in this function, defined to avoid compi
 159:.\UART_Btldr.c **** 	timeOutms += 10;
 160:.\UART_Btldr.c **** 	
 161:.\UART_Btldr.c ****    	receivedDataCount=0;
 119              		.loc 1 161 0
 120 0002 054B     		ldr	r3, .L5
 121              	.LVL7:
ARM GAS  C:\Users\vrnk\AppData\Local\Temp\ccqpvOyE.s 			page 6


 155:.\UART_Btldr.c **** {
 122              		.loc 1 155 0
 123 0004 0D1C     		mov	r5, r1
 124 0006 161C     		mov	r6, r2
 125              		.loc 1 161 0
 126 0008 0024     		mov	r4, #0
 162:.\UART_Btldr.c ****     
 163:.\UART_Btldr.c **** 	/* Write TX data using blocking function */
 164:.\UART_Btldr.c **** 	UART_SpiUartPutArray(pData, (uint8)Size);
 127              		.loc 1 164 0
 128 000a C9B2     		uxtb	r1, r1
 129              	.LVL8:
 161:.\UART_Btldr.c ****    	receivedDataCount=0;
 130              		.loc 1 161 0
 131 000c 1C80     		strh	r4, [r3]
 165:.\UART_Btldr.c **** 	
 166:.\UART_Btldr.c **** 	/* Return success code */
 167:.\UART_Btldr.c **** 	*Count = Size;
 168:.\UART_Btldr.c **** 	status = CYRET_SUCCESS;
 169:.\UART_Btldr.c **** 	
 170:.\UART_Btldr.c ****     return status;
 171:.\UART_Btldr.c **** }
 132              		.loc 1 171 0
 133              		@ sp needed for prologue
 164:.\UART_Btldr.c **** 	UART_SpiUartPutArray(pData, (uint8)Size);
 134              		.loc 1 164 0
 135 000e FFF7FEFF 		bl	UART_SpiUartPutArray
 136              	.LVL9:
 167:.\UART_Btldr.c **** 	*Count = Size;
 137              		.loc 1 167 0
 138 0012 3580     		strh	r5, [r6]
 139              	.LVL10:
 140              		.loc 1 171 0
 141 0014 201C     		mov	r0, r4
 142              	.LVL11:
 143 0016 70BD     		pop	{r4, r5, r6, pc}
 144              	.L6:
 145              		.align	2
 146              	.L5:
 147 0018 00000000 		.word	.LANCHOR0
 148              		.cfi_endproc
 149              	.LFE36:
 150              		.size	CyBtldrCommWrite, .-CyBtldrCommWrite
 151              		.section	.text.CyBtldrCommRead,"ax",%progbits
 152              		.align	1
 153              		.global	CyBtldrCommRead
 154              		.code	16
 155              		.thumb_func
 156              		.type	CyBtldrCommRead, %function
 157              	CyBtldrCommRead:
 158              	.LFB37:
 172:.\UART_Btldr.c **** 
 173:.\UART_Btldr.c **** /*******************************************************************************
 174:.\UART_Btldr.c **** * Function Name: CyBtldrCommRead
 175:.\UART_Btldr.c **** ********************************************************************************
 176:.\UART_Btldr.c **** *
 177:.\UART_Btldr.c **** * Summary:
ARM GAS  C:\Users\vrnk\AppData\Local\Temp\ccqpvOyE.s 			page 7


 178:.\UART_Btldr.c **** *  Receives the command. 
 179:.\UART_Btldr.c **** *
 180:.\UART_Btldr.c **** * Parameters:  
 181:.\UART_Btldr.c **** *  pData:    A pointer to the area to store the block of data received
 182:.\UART_Btldr.c **** *             from the device.
 183:.\UART_Btldr.c **** *  size:     Maximum size of the read buffer
 184:.\UART_Btldr.c **** *  count:    Pointer to an unsigned short variable to write the number
 185:.\UART_Btldr.c **** *             of bytes actually read.
 186:.\UART_Btldr.c **** *  timeOut:  Number of units to wait before returning because of a timeOut.
 187:.\UART_Btldr.c **** *            Timeout is measured in 10s of ms.
 188:.\UART_Btldr.c **** *
 189:.\UART_Btldr.c **** * Return: 
 190:.\UART_Btldr.c **** *  cystatus: This function will return CYRET_SUCCESS if at least one byte is received
 191:.\UART_Btldr.c **** *			 successfully within the timeout interval. If no data is received this 
 192:.\UART_Btldr.c **** *			 function will return CYRET_EMPTY.
 193:.\UART_Btldr.c **** *
 194:.\UART_Btldr.c **** * Theory: 
 195:.\UART_Btldr.c **** *  'receivedDataCount' is updated with number of bytes received in the UART RX 
 196:.\UART_Btldr.c **** *  interrupt routine. This variable is used to check whether some data is received 
 197:.\UART_Btldr.c **** *  within the timeout period specified in *.cydwr. If data is received before the timeout, 
 198:.\UART_Btldr.c **** *  the control will remain in another loop waiting for more data until no data is 
 199:.\UART_Btldr.c **** *  received for a BYTE2BYTE_TIME_OUT(2 ms) interval.
 200:.\UART_Btldr.c **** *
 201:.\UART_Btldr.c **** *  Note: Increase the BYTE2BYTE_TIME_OUT to 10 ms for baud rates less than 9600.  
 202:.\UART_Btldr.c **** * 
 203:.\UART_Btldr.c **** *  BYTE2BYTE_TIME_OUT is used for detecting timeout marking end of block data from host. 
 204:.\UART_Btldr.c **** *  This has to be set to a value which is greater than the expected maximum delay 
 205:.\UART_Btldr.c **** *  between two bytes during a block/packet transmission from the host. 
 206:.\UART_Btldr.c **** *  You have to account for the delay in hardware converters while calculating this value,
 207:.\UART_Btldr.c **** *  if you are using any USB-UART bridges.   
 208:.\UART_Btldr.c **** *******************************************************************************/
 209:.\UART_Btldr.c **** cystatus CyBtldrCommRead(uint8 * pData, uint16 Size, uint16 * Count, uint8 TimeOut)
 210:.\UART_Btldr.c **** {
 159              		.loc 1 210 0
 160              		.cfi_startproc
 161              	.LVL12:
 162 0000 F0B5     		push	{r4, r5, r6, r7, lr}
 163              	.LCFI4:
 164              		.cfi_def_cfa_offset 20
 165              		.cfi_offset 4, -20
 166              		.cfi_offset 5, -16
 167              		.cfi_offset 6, -12
 168              		.cfi_offset 7, -8
 169              		.cfi_offset 14, -4
 211:.\UART_Btldr.c ****     uint16 cntr,dataIndexCntr;
 212:.\UART_Btldr.c ****     uint16 tempCount,oldDataCount;
 213:.\UART_Btldr.c **** 	
 214:.\UART_Btldr.c ****     cystatus status = CYRET_EMPTY;
 215:.\UART_Btldr.c **** 
 216:.\UART_Btldr.c ****     /* Check whether data is received within the timeout period. 
 217:.\UART_Btldr.c **** 	*  Timeout period is in units of 10ms.
 218:.\UART_Btldr.c **** 	*  If at least one byte is received within the timeout interval, wait for more data */
 219:.\UART_Btldr.c **** 	for (cntr = 0; cntr < TimeOut*10; cntr++)
 170              		.loc 1 219 0
 171 0002 0A27     		mov	r7, #10
 172 0004 5F43     		mul	r7, r3
 210:.\UART_Btldr.c **** {
ARM GAS  C:\Users\vrnk\AppData\Local\Temp\ccqpvOyE.s 			page 8


 173              		.loc 1 210 0
 174 0006 87B0     		sub	sp, sp, #28
 175              	.LCFI5:
 176              		.cfi_def_cfa_offset 48
 210:.\UART_Btldr.c **** {
 177              		.loc 1 210 0
 178 0008 0290     		str	r0, [sp, #8]
 179 000a 0591     		str	r1, [sp, #20]
 180 000c 161C     		mov	r6, r2
 181              		.loc 1 219 0
 182 000e 0025     		mov	r5, #0
 183              	.LVL13:
 184              	.L8:
 185 0010 2A4C     		ldr	r4, .L31
 186              		.loc 1 219 0 is_stmt 0 discriminator 1
 187 0012 BD42     		cmp	r5, r7
 188 0014 19DA     		bge	.L29
 189              	.L12:
 220:.\UART_Btldr.c ****     {
 221:.\UART_Btldr.c **** 	    receivedDataCount = UART_SpiUartGetRxBufferSize();
 190              		.loc 1 221 0 is_stmt 1
 191 0016 FFF7FEFF 		bl	UART_SpiUartGetRxBufferSize
 192              	.LVL14:
 193 001a 80B2     		uxth	r0, r0
 194 001c 2080     		strh	r0, [r4]
 222:.\UART_Btldr.c **** 		
 223:.\UART_Btldr.c **** 		/* If at least one byte is received within the timeout interval enter the next loop
 224:.\UART_Btldr.c **** 		* waiting for more data reception */
 225:.\UART_Btldr.c **** 		if(receivedDataCount!=0) 
 195              		.loc 1 225 0
 196 001e 2388     		ldrh	r3, [r4]
 197 0020 002B     		cmp	r3, #0
 198 0022 0CD0     		beq	.L9
 199              	.L23:
 226:.\UART_Btldr.c **** 	   	{
 227:.\UART_Btldr.c **** 			/* Wait for more data until 2 ms byte to byte time out interval receivedDataCount 
 228:.\UART_Btldr.c **** 			* variable is updated in on each data reception. If no data is received during the 
 229:.\UART_Btldr.c **** 			* last 2 ms (BYTE2BYTE_TIME_OUT) then it is considered as end of transmitted data 
 230:.\UART_Btldr.c **** 			* block (packet) from the host and the program execution will break from the data 
 231:.\UART_Btldr.c **** 			* awaiting loop with status=CYRET_SUCCESS */
 232:.\UART_Btldr.c **** 			do{
 233:.\UART_Btldr.c **** 			   	oldDataCount = receivedDataCount;
 234:.\UART_Btldr.c **** 				CyDelay(BYTE2BYTE_TIME_OUT);
 200              		.loc 1 234 0
 201 0024 0220     		mov	r0, #2
 233:.\UART_Btldr.c **** 			   	oldDataCount = receivedDataCount;
 202              		.loc 1 233 0
 203 0026 2788     		ldrh	r7, [r4]
 204              	.LVL15:
 205              		.loc 1 234 0
 206 0028 FFF7FEFF 		bl	CyDelay
 207              	.LVL16:
 235:.\UART_Btldr.c **** 				receivedDataCount = UART_SpiUartGetRxBufferSize();			    
 208              		.loc 1 235 0
 209 002c FFF7FEFF 		bl	UART_SpiUartGetRxBufferSize
 210              	.LVL17:
 211 0030 81B2     		uxth	r1, r0
ARM GAS  C:\Users\vrnk\AppData\Local\Temp\ccqpvOyE.s 			page 9


 212 0032 2180     		strh	r1, [r4]
 236:.\UART_Btldr.c **** 			}while(receivedDataCount > oldDataCount);
 213              		.loc 1 236 0
 214 0034 2288     		ldrh	r2, [r4]
 215 0036 BA42     		cmp	r2, r7
 216 0038 F4D8     		bhi	.L23
 237:.\UART_Btldr.c **** 			status = CYRET_SUCCESS;	
 217              		.loc 1 237 0
 218 003a 0027     		mov	r7, #0
 219              	.LVL18:
 220 003c 06E0     		b	.L11
 221              	.L9:
 238:.\UART_Btldr.c **** 			break;
 239:.\UART_Btldr.c **** 		}
 240:.\UART_Btldr.c **** 		/* If no data is received, give a delay of 1ms and check again until the Timeout specified in .cy
 241:.\UART_Btldr.c **** 		else 
 242:.\UART_Btldr.c **** 		{
 243:.\UART_Btldr.c **** 			CyDelay(1);
 222              		.loc 1 243 0
 223 003e 0120     		mov	r0, #1
 219:.\UART_Btldr.c **** 	for (cntr = 0; cntr < TimeOut*10; cntr++)
 224              		.loc 1 219 0
 225 0040 0135     		add	r5, r5, #1
 226              	.LVL19:
 227              		.loc 1 243 0
 228 0042 FFF7FEFF 		bl	CyDelay
 229              	.LVL20:
 219:.\UART_Btldr.c **** 	for (cntr = 0; cntr < TimeOut*10; cntr++)
 230              		.loc 1 219 0
 231 0046 ADB2     		uxth	r5, r5
 232              	.LVL21:
 233 0048 E2E7     		b	.L8
 234              	.L29:
 214:.\UART_Btldr.c ****     cystatus status = CYRET_EMPTY;
 235              		.loc 1 214 0
 236 004a 0527     		mov	r7, #5
 237              	.L11:
 238              	.LVL22:
 244:.\UART_Btldr.c **** 		}
 245:.\UART_Btldr.c ****     }
 246:.\UART_Btldr.c **** 	
 247:.\UART_Btldr.c **** 	/* Initialize the data read indexes and Count value*/
 248:.\UART_Btldr.c **** 	*Count = 0;
 239              		.loc 1 248 0
 240 004c 0025     		mov	r5, #0
 241              	.LVL23:
 242 004e 3580     		strh	r5, [r6]
 243              	.LVL24:
 244              	.L27:
 249:.\UART_Btldr.c **** 	dataIndexCntr = 0;
 250:.\UART_Btldr.c **** 	
 251:.\UART_Btldr.c **** 	/* If receivedDataCount>0 , move the received data to the pData buffer */
 252:.\UART_Btldr.c **** 	while(receivedDataCount > 0)
 245              		.loc 1 252 0 discriminator 1
 246 0050 2088     		ldrh	r0, [r4]
 247 0052 0028     		cmp	r0, #0
 248 0054 2FD0     		beq	.L18
ARM GAS  C:\Users\vrnk\AppData\Local\Temp\ccqpvOyE.s 			page 10


 249              	.L19:
 253:.\UART_Btldr.c **** 	{
 254:.\UART_Btldr.c **** 		tempCount=receivedDataCount;
 250              		.loc 1 254 0
 251 0056 2388     		ldrh	r3, [r4]
 255:.\UART_Btldr.c **** 		*Count  =(*Count ) + tempCount;
 252              		.loc 1 255 0
 253 0058 3088     		ldrh	r0, [r6]
 254:.\UART_Btldr.c **** 		tempCount=receivedDataCount;
 254              		.loc 1 254 0
 255 005a 0193     		str	r3, [sp, #4]
 256              	.LVL25:
 257              		.loc 1 255 0
 258 005c 0199     		ldr	r1, [sp, #4]
 259 005e 4218     		add	r2, r0, r1
 256:.\UART_Btldr.c **** 		
 257:.\UART_Btldr.c **** 		/* Check if buffer overflow will occur before moving the data */
 258:.\UART_Btldr.c **** 		if(*Count < Size)
 260              		.loc 1 258 0
 261 0060 0599     		ldr	r1, [sp, #20]
 255:.\UART_Btldr.c **** 		*Count  =(*Count ) + tempCount;
 262              		.loc 1 255 0
 263 0062 93B2     		uxth	r3, r2
 264              	.LVL26:
 265 0064 3380     		strh	r3, [r6]
 266              		.loc 1 258 0
 267 0066 8B42     		cmp	r3, r1
 268 0068 21D2     		bcs	.L14
 209:.\UART_Btldr.c **** cystatus CyBtldrCommRead(uint8 * pData, uint16 Size, uint16 * Count, uint8 TimeOut)
 269              		.loc 1 209 0
 270 006a 0198     		ldr	r0, [sp, #4]
 271 006c 2A18     		add	r2, r5, r0
 272 006e 93B2     		uxth	r3, r2
 273 0070 0493     		str	r3, [sp, #16]
 274              	.LVL27:
 275              	.L15:
 259:.\UART_Btldr.c **** 		{
 260:.\UART_Btldr.c **** 			for (cntr = 0;((cntr < tempCount) ); cntr++)
 276              		.loc 1 260 0 discriminator 1
 277 0072 0499     		ldr	r1, [sp, #16]
 278 0074 8D42     		cmp	r5, r1
 279 0076 09D0     		beq	.L30
 280              	.L16:
 261:.\UART_Btldr.c **** 			{
 262:.\UART_Btldr.c **** 				/* Read the data and move it to the pData buffer */
 263:.\UART_Btldr.c **** 				pData[dataIndexCntr++] = UART_SpiUartReadRxData();   
 281              		.loc 1 263 0 discriminator 2
 282 0078 0299     		ldr	r1, [sp, #8]
 283 007a 4819     		add	r0, r1, r5
 284 007c 0390     		str	r0, [sp, #12]
 285 007e FFF7FEFF 		bl	UART_SpiUartReadRxData
 286              	.LVL28:
 287 0082 039A     		ldr	r2, [sp, #12]
 288 0084 0135     		add	r5, r5, #1
 289              	.LVL29:
 290 0086 1070     		strb	r0, [r2]
 291 0088 ADB2     		uxth	r5, r5
ARM GAS  C:\Users\vrnk\AppData\Local\Temp\ccqpvOyE.s 			page 11


 292              	.LVL30:
 293 008a F2E7     		b	.L15
 294              	.L30:
 264:.\UART_Btldr.c **** 			}
 265:.\UART_Btldr.c **** 			/* Disable the interrupts before updating the receivedDataCount and 
 266:.\UART_Btldr.c **** 			*  re-enable the interrupts after updating */
 267:.\UART_Btldr.c **** 			CyGlobalIntDisable;
 295              		.loc 1 267 0
 296              	@ 267 ".\UART_Btldr.c" 1
 297 008c 72B6     		CPSID   i
 298              	@ 0 "" 2
 268:.\UART_Btldr.c **** 			
 269:.\UART_Btldr.c **** 			/* subtract the read data count from received data count */
 270:.\UART_Btldr.c **** 			receivedDataCount=receivedDataCount-tempCount;
 299              		.loc 1 270 0
 300              		.code	16
 301 008e 2088     		ldrh	r0, [r4]
 302 0090 019A     		ldr	r2, [sp, #4]
 303 0092 831A     		sub	r3, r0, r2
 304 0094 99B2     		uxth	r1, r3
 305 0096 2180     		strh	r1, [r4]
 271:.\UART_Btldr.c **** 			
 272:.\UART_Btldr.c **** 			CyGlobalIntEnable;
 306              		.loc 1 272 0
 307              	@ 272 ".\UART_Btldr.c" 1
 308 0098 62B6     		CPSIE   i
 309              	@ 0 "" 2
 273:.\UART_Btldr.c **** 			
 274:.\UART_Btldr.c **** 			/* Check if the last data received is End of packet(0x17) 
 275:.\UART_Btldr.c **** 			*  If not wait for additional 5ms */
 276:.\UART_Btldr.c **** 			if(pData[dataIndexCntr-1]!= END_OF_PACKET)
 310              		.loc 1 276 0
 311              		.code	16
 312 009a 0298     		ldr	r0, [sp, #8]
 313 009c 4219     		add	r2, r0, r5
 314 009e 013A     		sub	r2, r2, #1
 315 00a0 1378     		ldrb	r3, [r2]
 316 00a2 172B     		cmp	r3, #23
 317 00a4 D4D0     		beq	.L27
 277:.\UART_Btldr.c **** 			    CyDelay(5);
 318              		.loc 1 277 0
 319 00a6 0520     		mov	r0, #5
 320 00a8 FFF7FEFF 		bl	CyDelay
 321              	.LVL31:
 322 00ac D0E7     		b	.L27
 323              	.L14:
 278:.\UART_Btldr.c **** 	 	}	
 279:.\UART_Btldr.c **** 		
 280:.\UART_Btldr.c **** 		/* If there is no space to move data, break from the loop */
 281:.\UART_Btldr.c **** 		else
 282:.\UART_Btldr.c **** 		{
 283:.\UART_Btldr.c **** 			*Count=(*Count)-tempCount;
 324              		.loc 1 283 0
 325 00ae 3080     		strh	r0, [r6]
 284:.\UART_Btldr.c **** 			UART_SpiUartClearRxBuffer();
 326              		.loc 1 284 0
 327 00b0 FFF7FEFF 		bl	UART_SpiUartClearRxBuffer
ARM GAS  C:\Users\vrnk\AppData\Local\Temp\ccqpvOyE.s 			page 12


 328              	.LVL32:
 285:.\UART_Btldr.c **** 			status = CYRET_EMPTY;
 329              		.loc 1 285 0
 330 00b4 0527     		mov	r7, #5
 331              	.LVL33:
 332              	.L18:
 286:.\UART_Btldr.c **** 			break;
 287:.\UART_Btldr.c **** 		}
 288:.\UART_Btldr.c **** 	}
 289:.\UART_Btldr.c **** 	return status;
 290:.\UART_Btldr.c **** }
 333              		.loc 1 290 0
 334 00b6 381C     		mov	r0, r7
 335 00b8 07B0     		add	sp, sp, #28
 336              		@ sp needed for prologue
 337              	.LVL34:
 338              	.LVL35:
 339              	.LVL36:
 340 00ba F0BD     		pop	{r4, r5, r6, r7, pc}
 341              	.L32:
 342              		.align	2
 343              	.L31:
 344 00bc 00000000 		.word	.LANCHOR0
 345              		.cfi_endproc
 346              	.LFE37:
 347              		.size	CyBtldrCommRead, .-CyBtldrCommRead
 348              		.global	receivedDataCount
 349              		.bss
 350              		.align	1
 351              		.set	.LANCHOR0,. + 0
 352              		.type	receivedDataCount, %object
 353              		.size	receivedDataCount, 2
 354              	receivedDataCount:
 355 0000 0000     		.space	2
 356              		.text
 357              	.Letext0:
 358              		.file 2 "./Generated_Source/PSoC4/cytypes.h"
 359              		.file 3 "./Generated_Source/PSoC4/UART.h"
 360              		.file 4 "./Generated_Source/PSoC4/UART_SPI_UART.h"
 361              		.file 5 "./Generated_Source/PSoC4/CyLib.h"